
/home/lin/SpinalProjects/DandRiscvSoC/ysyx-workbench/am-kernels/tests/cpu-tests/build/bit-riscv64-nemu.elf:     file format elf64-littleriscv


Disassembly of section .text:

0000000030000000 <_start>:
    30000000:	00000413          	li	s0,0
    30000004:	00009117          	auipc	sp,0x9
    30000008:	ffc10113          	addi	sp,sp,-4 # 30009000 <_end>
    3000000c:	1f4000ef          	jal	ra,30000200 <_trm_init>

0000000030000010 <check>:
    30000010:	00050463          	beqz	a0,30000018 <check+0x8>
    30000014:	00008067          	ret
    30000018:	ff010113          	addi	sp,sp,-16
    3000001c:	00100513          	li	a0,1
    30000020:	00113423          	sd	ra,8(sp)
    30000024:	1d4000ef          	jal	ra,300001f8 <halt>

0000000030000028 <getbit>:
    30000028:	4035d793          	srai	a5,a1,0x3
    3000002c:	00f50533          	add	a0,a0,a5
    30000030:	00054503          	lbu	a0,0(a0)
    30000034:	00100793          	li	a5,1
    30000038:	0075f593          	andi	a1,a1,7
    3000003c:	00b795bb          	sllw	a1,a5,a1
    30000040:	00b57533          	and	a0,a0,a1
    30000044:	00a03533          	snez	a0,a0
    30000048:	00008067          	ret

000000003000004c <setbit>:
    3000004c:	4035d793          	srai	a5,a1,0x3
    30000050:	ff010113          	addi	sp,sp,-16
    30000054:	00f50533          	add	a0,a0,a5
    30000058:	00a13423          	sd	a0,8(sp)
    3000005c:	0075f793          	andi	a5,a1,7
    30000060:	00100593          	li	a1,1
    30000064:	00f595bb          	sllw	a1,a1,a5
    30000068:	00813783          	ld	a5,8(sp)
    3000006c:	02061063          	bnez	a2,3000008c <setbit+0x40>
    30000070:	0007c783          	lbu	a5,0(a5)
    30000074:	fff5c593          	not	a1,a1
    30000078:	00f5f5b3          	and	a1,a1,a5
    3000007c:	00813783          	ld	a5,8(sp)
    30000080:	00b78023          	sb	a1,0(a5)
    30000084:	01010113          	addi	sp,sp,16
    30000088:	00008067          	ret
    3000008c:	0007c783          	lbu	a5,0(a5)
    30000090:	00f5e5b3          	or	a1,a1,a5
    30000094:	00813783          	ld	a5,8(sp)
    30000098:	0ff5f593          	andi	a1,a1,255
    3000009c:	00b78023          	sb	a1,0(a5)
    300000a0:	01010113          	addi	sp,sp,16
    300000a4:	00008067          	ret

00000000300000a8 <main>:
    300000a8:	fe010113          	addi	sp,sp,-32
    300000ac:	0aa00793          	li	a5,170
    300000b0:	00000593          	li	a1,0
    300000b4:	00810513          	addi	a0,sp,8
    300000b8:	00113c23          	sd	ra,24(sp)
    300000bc:	00f11423          	sh	a5,8(sp)
    300000c0:	f69ff0ef          	jal	ra,30000028 <getbit>
    300000c4:	00154513          	xori	a0,a0,1
    300000c8:	0ff57513          	andi	a0,a0,255
    300000cc:	f45ff0ef          	jal	ra,30000010 <check>
    300000d0:	00100593          	li	a1,1
    300000d4:	00810513          	addi	a0,sp,8
    300000d8:	f51ff0ef          	jal	ra,30000028 <getbit>
    300000dc:	f35ff0ef          	jal	ra,30000010 <check>
    300000e0:	00200593          	li	a1,2
    300000e4:	00810513          	addi	a0,sp,8
    300000e8:	f41ff0ef          	jal	ra,30000028 <getbit>
    300000ec:	00154513          	xori	a0,a0,1
    300000f0:	0ff57513          	andi	a0,a0,255
    300000f4:	f1dff0ef          	jal	ra,30000010 <check>
    300000f8:	00300593          	li	a1,3
    300000fc:	00810513          	addi	a0,sp,8
    30000100:	f29ff0ef          	jal	ra,30000028 <getbit>
    30000104:	f0dff0ef          	jal	ra,30000010 <check>
    30000108:	00400593          	li	a1,4
    3000010c:	00810513          	addi	a0,sp,8
    30000110:	f19ff0ef          	jal	ra,30000028 <getbit>
    30000114:	00154513          	xori	a0,a0,1
    30000118:	0ff57513          	andi	a0,a0,255
    3000011c:	ef5ff0ef          	jal	ra,30000010 <check>
    30000120:	00500593          	li	a1,5
    30000124:	00810513          	addi	a0,sp,8
    30000128:	f01ff0ef          	jal	ra,30000028 <getbit>
    3000012c:	ee5ff0ef          	jal	ra,30000010 <check>
    30000130:	00600593          	li	a1,6
    30000134:	00810513          	addi	a0,sp,8
    30000138:	ef1ff0ef          	jal	ra,30000028 <getbit>
    3000013c:	00154513          	xori	a0,a0,1
    30000140:	0ff57513          	andi	a0,a0,255
    30000144:	ecdff0ef          	jal	ra,30000010 <check>
    30000148:	00700593          	li	a1,7
    3000014c:	00810513          	addi	a0,sp,8
    30000150:	ed9ff0ef          	jal	ra,30000028 <getbit>
    30000154:	ebdff0ef          	jal	ra,30000010 <check>
    30000158:	00810513          	addi	a0,sp,8
    3000015c:	00100613          	li	a2,1
    30000160:	00800593          	li	a1,8
    30000164:	ee9ff0ef          	jal	ra,3000004c <setbit>
    30000168:	00810513          	addi	a0,sp,8
    3000016c:	00000613          	li	a2,0
    30000170:	00900593          	li	a1,9
    30000174:	ed9ff0ef          	jal	ra,3000004c <setbit>
    30000178:	00810513          	addi	a0,sp,8
    3000017c:	00100613          	li	a2,1
    30000180:	00a00593          	li	a1,10
    30000184:	ec9ff0ef          	jal	ra,3000004c <setbit>
    30000188:	00810513          	addi	a0,sp,8
    3000018c:	00000613          	li	a2,0
    30000190:	00b00593          	li	a1,11
    30000194:	eb9ff0ef          	jal	ra,3000004c <setbit>
    30000198:	00810513          	addi	a0,sp,8
    3000019c:	00100613          	li	a2,1
    300001a0:	00c00593          	li	a1,12
    300001a4:	ea9ff0ef          	jal	ra,3000004c <setbit>
    300001a8:	00810513          	addi	a0,sp,8
    300001ac:	00000613          	li	a2,0
    300001b0:	00d00593          	li	a1,13
    300001b4:	e99ff0ef          	jal	ra,3000004c <setbit>
    300001b8:	00810513          	addi	a0,sp,8
    300001bc:	00100613          	li	a2,1
    300001c0:	00e00593          	li	a1,14
    300001c4:	e89ff0ef          	jal	ra,3000004c <setbit>
    300001c8:	00810513          	addi	a0,sp,8
    300001cc:	00000613          	li	a2,0
    300001d0:	00f00593          	li	a1,15
    300001d4:	e79ff0ef          	jal	ra,3000004c <setbit>
    300001d8:	00914503          	lbu	a0,9(sp)
    300001dc:	fab50513          	addi	a0,a0,-85
    300001e0:	00153513          	seqz	a0,a0
    300001e4:	e2dff0ef          	jal	ra,30000010 <check>
    300001e8:	01813083          	ld	ra,24(sp)
    300001ec:	00000513          	li	a0,0
    300001f0:	02010113          	addi	sp,sp,32
    300001f4:	00008067          	ret

00000000300001f8 <halt>:
    300001f8:	0000006b          	0x6b
    300001fc:	0000006f          	j	300001fc <halt+0x4>

0000000030000200 <_trm_init>:
    30000200:	ff010113          	addi	sp,sp,-16
    30000204:	00000517          	auipc	a0,0x0
    30000208:	01c50513          	addi	a0,a0,28 # 30000220 <mainargs>
    3000020c:	00113423          	sd	ra,8(sp)
    30000210:	e99ff0ef          	jal	ra,300000a8 <main>
    30000214:	0000006b          	0x6b
    30000218:	0000006f          	j	30000218 <_trm_init+0x18>
