
/home/lin/SpinalProjects/DandRiscvSoC/ysyx-workbench/am-kernels/tests/cpu-tests/build/crc32-riscv64-nemu.elf:     file format elf64-littleriscv


Disassembly of section .text:

0000000030000000 <_start>:
    30000000:	00000413          	li	s0,0
    30000004:	00009117          	auipc	sp,0x9
    30000008:	ffc10113          	addi	sp,sp,-4 # 30009000 <_end>
    3000000c:	114000ef          	jal	ra,30000120 <_trm_init>

0000000030000010 <check>:
    30000010:	00050463          	beqz	a0,30000018 <check+0x8>
    30000014:	00008067          	ret
    30000018:	ff010113          	addi	sp,sp,-16
    3000001c:	00100513          	li	a0,1
    30000020:	00113423          	sd	ra,8(sp)
    30000024:	0f4000ef          	jal	ra,30000118 <halt>

0000000030000028 <rc_crc32>:
    30000028:	00000f97          	auipc	t6,0x0
    3000002c:	550f8f93          	addi	t6,t6,1360 # 30000578 <have_table.1507>
    30000030:	000fae03          	lw	t3,0(t6)
    30000034:	040e1c63          	bnez	t3,3000008c <rc_crc32+0x64>
    30000038:	edb88337          	lui	t1,0xedb88
    3000003c:	00000e97          	auipc	t4,0x0
    30000040:	13ce8e93          	addi	t4,t4,316 # 30000178 <table.1506>
    30000044:	32030313          	addi	t1,t1,800 # ffffffffedb88320 <_end+0xffffffffbdb7f320>
    30000048:	10000f13          	li	t5,256
    3000004c:	000e079b          	sext.w	a5,t3
    30000050:	00800713          	li	a4,8
    30000054:	0017d69b          	srliw	a3,a5,0x1
    30000058:	0017f813          	andi	a6,a5,1
    3000005c:	fff7071b          	addiw	a4,a4,-1
    30000060:	00d348b3          	xor	a7,t1,a3
    30000064:	0006879b          	sext.w	a5,a3
    30000068:	00080463          	beqz	a6,30000070 <rc_crc32+0x48>
    3000006c:	0008879b          	sext.w	a5,a7
    30000070:	fe0712e3          	bnez	a4,30000054 <rc_crc32+0x2c>
    30000074:	00fea023          	sw	a5,0(t4)
    30000078:	001e0e1b          	addiw	t3,t3,1
    3000007c:	004e8e93          	addi	t4,t4,4
    30000080:	fdee16e3          	bne	t3,t5,3000004c <rc_crc32+0x24>
    30000084:	00100793          	li	a5,1
    30000088:	00ffa023          	sw	a5,0(t6)
    3000008c:	00c58633          	add	a2,a1,a2
    30000090:	fff54793          	not	a5,a0
    30000094:	02c5fe63          	bgeu	a1,a2,300000d0 <rc_crc32+0xa8>
    30000098:	00000517          	auipc	a0,0x0
    3000009c:	0e050513          	addi	a0,a0,224 # 30000178 <table.1506>
    300000a0:	0005c703          	lbu	a4,0(a1)
    300000a4:	0087d69b          	srliw	a3,a5,0x8
    300000a8:	00158593          	addi	a1,a1,1
    300000ac:	00e7c733          	xor	a4,a5,a4
    300000b0:	0ff77713          	andi	a4,a4,255
    300000b4:	00271713          	slli	a4,a4,0x2
    300000b8:	00e50733          	add	a4,a0,a4
    300000bc:	00072783          	lw	a5,0(a4)
    300000c0:	00d7c7b3          	xor	a5,a5,a3
    300000c4:	0007879b          	sext.w	a5,a5
    300000c8:	fcb61ce3          	bne	a2,a1,300000a0 <rc_crc32+0x78>
    300000cc:	fff7c513          	not	a0,a5
    300000d0:	00008067          	ret

00000000300000d4 <main>:
    300000d4:	ff010113          	addi	sp,sp,-16
    300000d8:	02b00613          	li	a2,43
    300000dc:	00000597          	auipc	a1,0x0
    300000e0:	06458593          	addi	a1,a1,100 # 30000140 <_etext+0x4>
    300000e4:	00000513          	li	a0,0
    300000e8:	00113423          	sd	ra,8(sp)
    300000ec:	f3dff0ef          	jal	ra,30000028 <rc_crc32>
    300000f0:	414fa7b7          	lui	a5,0x414fa
    300000f4:	33978793          	addi	a5,a5,825 # 414fa339 <_end+0x114f1339>
    300000f8:	0005051b          	sext.w	a0,a0
    300000fc:	40f50533          	sub	a0,a0,a5
    30000100:	00153513          	seqz	a0,a0
    30000104:	f0dff0ef          	jal	ra,30000010 <check>
    30000108:	00813083          	ld	ra,8(sp)
    3000010c:	00000513          	li	a0,0
    30000110:	01010113          	addi	sp,sp,16
    30000114:	00008067          	ret

0000000030000118 <halt>:
    30000118:	0000006b          	0x6b
    3000011c:	0000006f          	j	3000011c <halt+0x4>

0000000030000120 <_trm_init>:
    30000120:	ff010113          	addi	sp,sp,-16
    30000124:	00000517          	auipc	a0,0x0
    30000128:	04c50513          	addi	a0,a0,76 # 30000170 <mainargs>
    3000012c:	00113423          	sd	ra,8(sp)
    30000130:	fa5ff0ef          	jal	ra,300000d4 <main>
    30000134:	0000006b          	0x6b
    30000138:	0000006f          	j	30000138 <_trm_init+0x18>
