
/home/lin/SpinalProjects/DandRiscvSoC/ysyx-workbench/am-kernels/tests/cpu-tests/build/div-riscv64-nemu.elf:     file format elf64-littleriscv


Disassembly of section .text:

0000000030000000 <_start>:
    30000000:	00000413          	li	s0,0
    30000004:	00009117          	auipc	sp,0x9
    30000008:	ffc10113          	addi	sp,sp,-4 # 30009000 <_end>
    3000000c:	0fc000ef          	jal	ra,30000108 <_trm_init>

0000000030000010 <check>:
    30000010:	00050463          	beqz	a0,30000018 <check+0x8>
    30000014:	00008067          	ret
    30000018:	ff010113          	addi	sp,sp,-16
    3000001c:	00100513          	li	a0,1
    30000020:	00113423          	sd	ra,8(sp)
    30000024:	0dc000ef          	jal	ra,30000100 <halt>

0000000030000028 <main>:
    30000028:	fe010113          	addi	sp,sp,-32
    3000002c:	00913423          	sd	s1,8(sp)
    30000030:	00000497          	auipc	s1,0x0
    30000034:	10048493          	addi	s1,s1,256 # 30000130 <a>
    30000038:	00113c23          	sd	ra,24(sp)
    3000003c:	00813823          	sd	s0,16(sp)
    30000040:	01213023          	sd	s2,0(sp)
    30000044:	00048713          	mv	a4,s1
    30000048:	00000793          	li	a5,0
    3000004c:	00a00693          	li	a3,10
    30000050:	00f72023          	sw	a5,0(a4)
    30000054:	0017879b          	addiw	a5,a5,1
    30000058:	00470713          	addi	a4,a4,4
    3000005c:	fed79ae3          	bne	a5,a3,30000050 <main+0x28>
    30000060:	00000597          	auipc	a1,0x0
    30000064:	0f858593          	addi	a1,a1,248 # 30000158 <a+0x28>
    30000068:	00000617          	auipc	a2,0x0
    3000006c:	0c860613          	addi	a2,a2,200 # 30000130 <a>
    30000070:	00b00693          	li	a3,11
    30000074:	00062703          	lw	a4,0(a2)
    30000078:	00100793          	li	a5,1
    3000007c:	02f7073b          	mulw	a4,a4,a5
    30000080:	0017879b          	addiw	a5,a5,1
    30000084:	fed79ce3          	bne	a5,a3,3000007c <main+0x54>
    30000088:	00e62023          	sw	a4,0(a2)
    3000008c:	00460613          	addi	a2,a2,4
    30000090:	feb612e3          	bne	a2,a1,30000074 <main+0x4c>
    30000094:	00000617          	auipc	a2,0x0
    30000098:	09c60613          	addi	a2,a2,156 # 30000130 <a>
    3000009c:	00b00693          	li	a3,11
    300000a0:	00062703          	lw	a4,0(a2)
    300000a4:	00100793          	li	a5,1
    300000a8:	02f7473b          	divw	a4,a4,a5
    300000ac:	0017879b          	addiw	a5,a5,1
    300000b0:	fed79ce3          	bne	a5,a3,300000a8 <main+0x80>
    300000b4:	00e62023          	sw	a4,0(a2)
    300000b8:	00460613          	addi	a2,a2,4
    300000bc:	feb612e3          	bne	a2,a1,300000a0 <main+0x78>
    300000c0:	00000413          	li	s0,0
    300000c4:	00a00913          	li	s2,10
    300000c8:	0004a503          	lw	a0,0(s1)
    300000cc:	00448493          	addi	s1,s1,4
    300000d0:	40850533          	sub	a0,a0,s0
    300000d4:	00153513          	seqz	a0,a0
    300000d8:	0014041b          	addiw	s0,s0,1
    300000dc:	f35ff0ef          	jal	ra,30000010 <check>
    300000e0:	ff2414e3          	bne	s0,s2,300000c8 <main+0xa0>
    300000e4:	01813083          	ld	ra,24(sp)
    300000e8:	01013403          	ld	s0,16(sp)
    300000ec:	00813483          	ld	s1,8(sp)
    300000f0:	00013903          	ld	s2,0(sp)
    300000f4:	00000513          	li	a0,0
    300000f8:	02010113          	addi	sp,sp,32
    300000fc:	00008067          	ret

0000000030000100 <halt>:
    30000100:	0000006b          	0x6b
    30000104:	0000006f          	j	30000104 <halt+0x4>

0000000030000108 <_trm_init>:
    30000108:	ff010113          	addi	sp,sp,-16
    3000010c:	00000517          	auipc	a0,0x0
    30000110:	01c50513          	addi	a0,a0,28 # 30000128 <mainargs>
    30000114:	00113423          	sd	ra,8(sp)
    30000118:	f11ff0ef          	jal	ra,30000028 <main>
    3000011c:	0000006b          	0x6b
    30000120:	0000006f          	j	30000120 <_trm_init+0x18>
