
/home/lin/SpinalProjects/DandRiscvSoC/ysyx-workbench/am-kernels/tests/cpu-tests/build/mersenne-riscv64-nemu.elf:     file format elf64-littleriscv


Disassembly of section .text:

0000000030000000 <_start>:
    30000000:	00000413          	li	s0,0
    30000004:	00009117          	auipc	sp,0x9
    30000008:	ffc10113          	addi	sp,sp,-4 # 30009000 <_end>
    3000000c:	11c000ef          	jal	ra,30000128 <_trm_init>

0000000030000010 <isPrime.part.0>:
    30000010:	01800793          	li	a5,24
    30000014:	00050693          	mv	a3,a0
    30000018:	04a7d463          	bge	a5,a0,30000060 <isPrime.part.0+0x50>
    3000001c:	00500793          	li	a5,5
    30000020:	02f5653b          	remw	a0,a0,a5
    30000024:	04050063          	beqz	a0,30000064 <isPrime.part.0+0x54>
    30000028:	00700793          	li	a5,7
    3000002c:	02f6e53b          	remw	a0,a3,a5
    30000030:	02050a63          	beqz	a0,30000064 <isPrime.part.0+0x54>
    30000034:	00500713          	li	a4,5
    30000038:	0140006f          	j	3000004c <isPrime.part.0+0x3c>
    3000003c:	02f6e53b          	remw	a0,a3,a5
    30000040:	02050263          	beqz	a0,30000064 <isPrime.part.0+0x54>
    30000044:	02b6e53b          	remw	a0,a3,a1
    30000048:	00050e63          	beqz	a0,30000064 <isPrime.part.0+0x54>
    3000004c:	0067079b          	addiw	a5,a4,6
    30000050:	02f7863b          	mulw	a2,a5,a5
    30000054:	0087059b          	addiw	a1,a4,8
    30000058:	0007871b          	sext.w	a4,a5
    3000005c:	fec6d0e3          	bge	a3,a2,3000003c <isPrime.part.0+0x2c>
    30000060:	00100513          	li	a0,1
    30000064:	00008067          	ret

0000000030000068 <check>:
    30000068:	00050463          	beqz	a0,30000070 <check+0x8>
    3000006c:	00008067          	ret
    30000070:	ff010113          	addi	sp,sp,-16
    30000074:	00100513          	li	a0,1
    30000078:	00113423          	sd	ra,8(sp)
    3000007c:	0a4000ef          	jal	ra,30000120 <halt>

0000000030000080 <main>:
    30000080:	ff010113          	addi	sp,sp,-16
    30000084:	3a100513          	li	a0,929
    30000088:	00813023          	sd	s0,0(sp)
    3000008c:	00113423          	sd	ra,8(sp)
    30000090:	f81ff0ef          	jal	ra,30000010 <isPrime.part.0>
    30000094:	00100413          	li	s0,1
    30000098:	06050a63          	beqz	a0,3000010c <main+0x8c>
    3000009c:	01600793          	li	a5,22
    300000a0:	3a100513          	li	a0,929
    300000a4:	fff7879b          	addiw	a5,a5,-1
    300000a8:	0015151b          	slliw	a0,a0,0x1
    300000ac:	fe079ce3          	bnez	a5,300000a4 <main+0x24>
    300000b0:	74300593          	li	a1,1859
    300000b4:	00100813          	li	a6,1
    300000b8:	0005869b          	sext.w	a3,a1
    300000bc:	00050413          	mv	s0,a0
    300000c0:	00100793          	li	a5,1
    300000c4:	02f787b3          	mul	a5,a5,a5
    300000c8:	0014171b          	slliw	a4,s0,0x1
    300000cc:	02b7e7b3          	rem	a5,a5,a1
    300000d0:	0007879b          	sext.w	a5,a5
    300000d4:	0017961b          	slliw	a2,a5,0x1
    300000d8:	00045463          	bgez	s0,300000e0 <main+0x60>
    300000dc:	0006079b          	sext.w	a5,a2
    300000e0:	0007041b          	sext.w	s0,a4
    300000e4:	00f6d463          	bge	a3,a5,300000ec <main+0x6c>
    300000e8:	40d787bb          	subw	a5,a5,a3
    300000ec:	fc041ce3          	bnez	s0,300000c4 <main+0x44>
    300000f0:	74258593          	addi	a1,a1,1858
    300000f4:	fd0792e3          	bne	a5,a6,300000b8 <main+0x38>
    300000f8:	000037b7          	lui	a5,0x3
    300000fc:	2cf78793          	addi	a5,a5,719 # 32cf <_entry_offset+0x32cf>
    30000100:	40f686b3          	sub	a3,a3,a5
    30000104:	0016b513          	seqz	a0,a3
    30000108:	f61ff0ef          	jal	ra,30000068 <check>
    3000010c:	00813083          	ld	ra,8(sp)
    30000110:	00040513          	mv	a0,s0
    30000114:	00013403          	ld	s0,0(sp)
    30000118:	01010113          	addi	sp,sp,16
    3000011c:	00008067          	ret

0000000030000120 <halt>:
    30000120:	0000006b          	0x6b
    30000124:	0000006f          	j	30000124 <halt+0x4>

0000000030000128 <_trm_init>:
    30000128:	ff010113          	addi	sp,sp,-16
    3000012c:	00000517          	auipc	a0,0x0
    30000130:	01c50513          	addi	a0,a0,28 # 30000148 <mainargs>
    30000134:	00113423          	sd	ra,8(sp)
    30000138:	f49ff0ef          	jal	ra,30000080 <main>
    3000013c:	0000006b          	0x6b
    30000140:	0000006f          	j	30000140 <_trm_init+0x18>
