
/home/lin/SpinalProjects/DandRiscvSoC/ysyx-workbench/am-kernels/tests/cpu-tests/build/min3-riscv64-nemu.elf:     file format elf64-littleriscv


Disassembly of section .text:

0000000030000000 <_start>:
    30000000:	00000413          	li	s0,0
    30000004:	00009117          	auipc	sp,0x9
    30000008:	ffc10113          	addi	sp,sp,-4 # 30009000 <_end>
    3000000c:	138000ef          	jal	ra,30000144 <_trm_init>

0000000030000010 <check>:
    30000010:	00050463          	beqz	a0,30000018 <check+0x8>
    30000014:	00008067          	ret
    30000018:	ff010113          	addi	sp,sp,-16
    3000001c:	00100513          	li	a0,1
    30000020:	00113423          	sd	ra,8(sp)
    30000024:	118000ef          	jal	ra,3000013c <halt>

0000000030000028 <main>:
    30000028:	f9010113          	addi	sp,sp,-112
    3000002c:	03613823          	sd	s6,48(sp)
    30000030:	00000b17          	auipc	s6,0x0
    30000034:	238b0b13          	addi	s6,s6,568 # 30000268 <test_data>
    30000038:	05213823          	sd	s2,80(sp)
    3000003c:	03713423          	sd	s7,40(sp)
    30000040:	03813023          	sd	s8,32(sp)
    30000044:	06113423          	sd	ra,104(sp)
    30000048:	06813023          	sd	s0,96(sp)
    3000004c:	04913c23          	sd	s1,88(sp)
    30000050:	05313423          	sd	s3,72(sp)
    30000054:	05413023          	sd	s4,64(sp)
    30000058:	03513c23          	sd	s5,56(sp)
    3000005c:	01913c23          	sd	s9,24(sp)
    30000060:	01a13823          	sd	s10,16(sp)
    30000064:	01b13423          	sd	s11,8(sp)
    30000068:	00000c17          	auipc	s8,0x0
    3000006c:	100c0c13          	addi	s8,s8,256 # 30000168 <ans>
    30000070:	00000917          	auipc	s2,0x0
    30000074:	20890913          	addi	s2,s2,520 # 30000278 <_bss_start>
    30000078:	000b0b93          	mv	s7,s6
    3000007c:	000baa83          	lw	s5,0(s7)
    30000080:	000c0993          	mv	s3,s8
    30000084:	000b0493          	mv	s1,s6
    30000088:	000a8c93          	mv	s9,s5
    3000008c:	0004a403          	lw	s0,0(s1)
    30000090:	008ad463          	bge	s5,s0,30000098 <main+0x70>
    30000094:	000c8413          	mv	s0,s9
    30000098:	00098d93          	mv	s11,s3
    3000009c:	000b0d13          	mv	s10,s6
    300000a0:	00040a13          	mv	s4,s0
    300000a4:	000d2503          	lw	a0,0(s10)
    300000a8:	004d0d13          	addi	s10,s10,4
    300000ac:	00a45463          	bge	s0,a0,300000b4 <main+0x8c>
    300000b0:	000a0513          	mv	a0,s4
    300000b4:	000da783          	lw	a5,0(s11)
    300000b8:	004d8d93          	addi	s11,s11,4
    300000bc:	40f50533          	sub	a0,a0,a5
    300000c0:	00153513          	seqz	a0,a0
    300000c4:	f4dff0ef          	jal	ra,30000010 <check>
    300000c8:	fd2d1ee3          	bne	s10,s2,300000a4 <main+0x7c>
    300000cc:	00100513          	li	a0,1
    300000d0:	00448493          	addi	s1,s1,4
    300000d4:	f3dff0ef          	jal	ra,30000010 <check>
    300000d8:	01098993          	addi	s3,s3,16
    300000dc:	fba498e3          	bne	s1,s10,3000008c <main+0x64>
    300000e0:	00100513          	li	a0,1
    300000e4:	004b8b93          	addi	s7,s7,4
    300000e8:	f29ff0ef          	jal	ra,30000010 <check>
    300000ec:	040c0c13          	addi	s8,s8,64
    300000f0:	f89b96e3          	bne	s7,s1,3000007c <main+0x54>
    300000f4:	00100513          	li	a0,1
    300000f8:	f19ff0ef          	jal	ra,30000010 <check>
    300000fc:	06813083          	ld	ra,104(sp)
    30000100:	06013403          	ld	s0,96(sp)
    30000104:	05813483          	ld	s1,88(sp)
    30000108:	05013903          	ld	s2,80(sp)
    3000010c:	04813983          	ld	s3,72(sp)
    30000110:	04013a03          	ld	s4,64(sp)
    30000114:	03813a83          	ld	s5,56(sp)
    30000118:	03013b03          	ld	s6,48(sp)
    3000011c:	02813b83          	ld	s7,40(sp)
    30000120:	02013c03          	ld	s8,32(sp)
    30000124:	01813c83          	ld	s9,24(sp)
    30000128:	01013d03          	ld	s10,16(sp)
    3000012c:	00813d83          	ld	s11,8(sp)
    30000130:	00000513          	li	a0,0
    30000134:	07010113          	addi	sp,sp,112
    30000138:	00008067          	ret

000000003000013c <halt>:
    3000013c:	0000006b          	0x6b
    30000140:	0000006f          	j	30000140 <halt+0x4>

0000000030000144 <_trm_init>:
    30000144:	ff010113          	addi	sp,sp,-16
    30000148:	00000517          	auipc	a0,0x0
    3000014c:	01850513          	addi	a0,a0,24 # 30000160 <_etext>
    30000150:	00113423          	sd	ra,8(sp)
    30000154:	ed5ff0ef          	jal	ra,30000028 <main>
    30000158:	0000006b          	0x6b
    3000015c:	0000006f          	j	3000015c <_trm_init+0x18>
