
/home/lin/SpinalProjects/DandRiscvSoC/ysyx-workbench/am-kernels/tests/cpu-tests/build/movsx-riscv64-nemu.elf:     file format elf64-littleriscv


Disassembly of section .text:

0000000030000000 <_start>:
    30000000:	00000413          	li	s0,0
    30000004:	00009117          	auipc	sp,0x9
    30000008:	ffc10113          	addi	sp,sp,-4 # 30009000 <_end>
    3000000c:	1b8000ef          	jal	ra,300001c4 <_trm_init>

0000000030000010 <check>:
    30000010:	00050463          	beqz	a0,30000018 <check+0x8>
    30000014:	00008067          	ret
    30000018:	ff010113          	addi	sp,sp,-16
    3000001c:	00100513          	li	a0,1
    30000020:	00113423          	sd	ra,8(sp)
    30000024:	198000ef          	jal	ra,300001bc <halt>

0000000030000028 <main>:
    30000028:	fe010113          	addi	sp,sp,-32
    3000002c:	00813823          	sd	s0,16(sp)
    30000030:	00000417          	auipc	s0,0x0
    30000034:	1c040413          	addi	s0,s0,448 # 300001f0 <A>
    30000038:	00042023          	sw	zero,0(s0)
    3000003c:	00100793          	li	a5,1
    30000040:	00f42223          	sw	a5,4(s0)
    30000044:	00200793          	li	a5,2
    30000048:	00f42423          	sw	a5,8(s0)
    3000004c:	00300793          	li	a5,3
    30000050:	00f42623          	sw	a5,12(s0)
    30000054:	00400793          	li	a5,4
    30000058:	00f42823          	sw	a5,16(s0)
    3000005c:	00c42783          	lw	a5,12(s0)
    30000060:	00913423          	sd	s1,8(sp)
    30000064:	00000497          	auipc	s1,0x0
    30000068:	1b448493          	addi	s1,s1,436 # 30000218 <C>
    3000006c:	00000717          	auipc	a4,0x0
    30000070:	16f72e23          	sw	a5,380(a4) # 300001e8 <b>
    30000074:	00000797          	auipc	a5,0x0
    30000078:	1747a783          	lw	a5,372(a5) # 300001e8 <b>
    3000007c:	00f42a23          	sw	a5,20(s0)
    30000080:	06100793          	li	a5,97
    30000084:	00f48023          	sb	a5,0(s1)
    30000088:	0004c503          	lbu	a0,0(s1)
    3000008c:	00113c23          	sd	ra,24(sp)
    30000090:	0185151b          	slliw	a0,a0,0x18
    30000094:	4185551b          	sraiw	a0,a0,0x18
    30000098:	f9f50513          	addi	a0,a0,-97
    3000009c:	00153513          	seqz	a0,a0
    300000a0:	f71ff0ef          	jal	ra,30000010 <check>
    300000a4:	0004c783          	lbu	a5,0(s1)
    300000a8:	00f480a3          	sb	a5,1(s1)
    300000ac:	0014c503          	lbu	a0,1(s1)
    300000b0:	0185151b          	slliw	a0,a0,0x18
    300000b4:	4185551b          	sraiw	a0,a0,0x18
    300000b8:	f9f50513          	addi	a0,a0,-97
    300000bc:	00153513          	seqz	a0,a0
    300000c0:	f51ff0ef          	jal	ra,30000010 <check>
    300000c4:	0004c783          	lbu	a5,0(s1)
    300000c8:	0187979b          	slliw	a5,a5,0x18
    300000cc:	4187d79b          	sraiw	a5,a5,0x18
    300000d0:	00f42023          	sw	a5,0(s0)
    300000d4:	00042503          	lw	a0,0(s0)
    300000d8:	0005051b          	sext.w	a0,a0
    300000dc:	f9f50513          	addi	a0,a0,-97
    300000e0:	00153513          	seqz	a0,a0
    300000e4:	f2dff0ef          	jal	ra,30000010 <check>
    300000e8:	f8000793          	li	a5,-128
    300000ec:	00f480a3          	sb	a5,1(s1)
    300000f0:	0014c783          	lbu	a5,1(s1)
    300000f4:	0187979b          	slliw	a5,a5,0x18
    300000f8:	4187d79b          	sraiw	a5,a5,0x18
    300000fc:	00f42023          	sw	a5,0(s0)
    30000100:	00442503          	lw	a0,4(s0)
    30000104:	0005051b          	sext.w	a0,a0
    30000108:	fff50513          	addi	a0,a0,-1
    3000010c:	00153513          	seqz	a0,a0
    30000110:	f01ff0ef          	jal	ra,30000010 <check>
    30000114:	00842503          	lw	a0,8(s0)
    30000118:	0005051b          	sext.w	a0,a0
    3000011c:	ffe50513          	addi	a0,a0,-2
    30000120:	00153513          	seqz	a0,a0
    30000124:	eedff0ef          	jal	ra,30000010 <check>
    30000128:	00c42503          	lw	a0,12(s0)
    3000012c:	0005051b          	sext.w	a0,a0
    30000130:	ffd50513          	addi	a0,a0,-3
    30000134:	00153513          	seqz	a0,a0
    30000138:	ed9ff0ef          	jal	ra,30000010 <check>
    3000013c:	01042503          	lw	a0,16(s0)
    30000140:	0005051b          	sext.w	a0,a0
    30000144:	ffc50513          	addi	a0,a0,-4
    30000148:	00153513          	seqz	a0,a0
    3000014c:	ec5ff0ef          	jal	ra,30000010 <check>
    30000150:	00000517          	auipc	a0,0x0
    30000154:	09852503          	lw	a0,152(a0) # 300001e8 <b>
    30000158:	ffd50513          	addi	a0,a0,-3
    3000015c:	00153513          	seqz	a0,a0
    30000160:	eb1ff0ef          	jal	ra,30000010 <check>
    30000164:	01442503          	lw	a0,20(s0)
    30000168:	0005051b          	sext.w	a0,a0
    3000016c:	ffd50513          	addi	a0,a0,-3
    30000170:	00153513          	seqz	a0,a0
    30000174:	e9dff0ef          	jal	ra,30000010 <check>
    30000178:	0014c503          	lbu	a0,1(s1)
    3000017c:	0185151b          	slliw	a0,a0,0x18
    30000180:	4185551b          	sraiw	a0,a0,0x18
    30000184:	08050513          	addi	a0,a0,128
    30000188:	00153513          	seqz	a0,a0
    3000018c:	e85ff0ef          	jal	ra,30000010 <check>
    30000190:	00042503          	lw	a0,0(s0)
    30000194:	0005051b          	sext.w	a0,a0
    30000198:	08050513          	addi	a0,a0,128
    3000019c:	00153513          	seqz	a0,a0
    300001a0:	e71ff0ef          	jal	ra,30000010 <check>
    300001a4:	01813083          	ld	ra,24(sp)
    300001a8:	01013403          	ld	s0,16(sp)
    300001ac:	00813483          	ld	s1,8(sp)
    300001b0:	00000513          	li	a0,0
    300001b4:	02010113          	addi	sp,sp,32
    300001b8:	00008067          	ret

00000000300001bc <halt>:
    300001bc:	0000006b          	0x6b
    300001c0:	0000006f          	j	300001c0 <halt+0x4>

00000000300001c4 <_trm_init>:
    300001c4:	ff010113          	addi	sp,sp,-16
    300001c8:	00000517          	auipc	a0,0x0
    300001cc:	01850513          	addi	a0,a0,24 # 300001e0 <_etext>
    300001d0:	00113423          	sd	ra,8(sp)
    300001d4:	e55ff0ef          	jal	ra,30000028 <main>
    300001d8:	0000006b          	0x6b
    300001dc:	0000006f          	j	300001dc <_trm_init+0x18>
