
/home/lin/SpinalProjects/DandRiscvSoC/ysyx-workbench/am-kernels/tests/cpu-tests/build/recursion-riscv64-nemu.elf:     file format elf64-littleriscv


Disassembly of section .text:

0000000030000000 <_start>:
    30000000:	00000413          	li	s0,0
    30000004:	00009117          	auipc	sp,0x9
    30000008:	ffc10113          	addi	sp,sp,-4 # 30009000 <_end>
    3000000c:	244000ef          	jal	ra,30000250 <_trm_init>

0000000030000010 <f0>:
    30000010:	00000797          	auipc	a5,0x0
    30000014:	29878793          	addi	a5,a5,664 # 300002a8 <lvl>
    30000018:	0007a703          	lw	a4,0(a5)
    3000001c:	00b75463          	bge	a4,a1,30000024 <f0+0x14>
    30000020:	00b7a023          	sw	a1,0(a5)
    30000024:	00000717          	auipc	a4,0x0
    30000028:	28870713          	addi	a4,a4,648 # 300002ac <rec>
    3000002c:	00072783          	lw	a5,0(a4)
    30000030:	0017879b          	addiw	a5,a5,1
    30000034:	00f72023          	sw	a5,0(a4)
    30000038:	00a05e63          	blez	a0,30000054 <f0+0x44>
    3000003c:	00300793          	li	a5,3
    30000040:	02f5453b          	divw	a0,a0,a5
    30000044:	0015859b          	addiw	a1,a1,1
    30000048:	00000317          	auipc	t1,0x0
    3000004c:	25833303          	ld	t1,600(t1) # 300002a0 <func+0x18>
    30000050:	00030067          	jr	t1
    30000054:	00100513          	li	a0,1
    30000058:	00008067          	ret

000000003000005c <f1>:
    3000005c:	00000797          	auipc	a5,0x0
    30000060:	24c78793          	addi	a5,a5,588 # 300002a8 <lvl>
    30000064:	0007a703          	lw	a4,0(a5)
    30000068:	00b75463          	bge	a4,a1,30000070 <f1+0x14>
    3000006c:	00b7a023          	sw	a1,0(a5)
    30000070:	00000717          	auipc	a4,0x0
    30000074:	23c70713          	addi	a4,a4,572 # 300002ac <rec>
    30000078:	00072783          	lw	a5,0(a4)
    3000007c:	0017879b          	addiw	a5,a5,1
    30000080:	00f72023          	sw	a5,0(a4)
    30000084:	00a05c63          	blez	a0,3000009c <f1+0x40>
    30000088:	0015859b          	addiw	a1,a1,1
    3000008c:	fff5051b          	addiw	a0,a0,-1
    30000090:	00000317          	auipc	t1,0x0
    30000094:	1f833303          	ld	t1,504(t1) # 30000288 <func>
    30000098:	00030067          	jr	t1
    3000009c:	00100513          	li	a0,1
    300000a0:	00008067          	ret

00000000300000a4 <f2>:
    300000a4:	00000717          	auipc	a4,0x0
    300000a8:	20470713          	addi	a4,a4,516 # 300002a8 <lvl>
    300000ac:	00072683          	lw	a3,0(a4)
    300000b0:	00050793          	mv	a5,a0
    300000b4:	00b6d463          	bge	a3,a1,300000bc <f2+0x18>
    300000b8:	00b72023          	sw	a1,0(a4)
    300000bc:	00000697          	auipc	a3,0x0
    300000c0:	1f068693          	addi	a3,a3,496 # 300002ac <rec>
    300000c4:	0006a703          	lw	a4,0(a3)
    300000c8:	00100513          	li	a0,1
    300000cc:	0017071b          	addiw	a4,a4,1
    300000d0:	00e6a023          	sw	a4,0(a3)
    300000d4:	02f05863          	blez	a5,30000104 <f2+0x60>
    300000d8:	ff010113          	addi	sp,sp,-16
    300000dc:	00113423          	sd	ra,8(sp)
    300000e0:	00078513          	mv	a0,a5
    300000e4:	0015859b          	addiw	a1,a1,1
    300000e8:	00000797          	auipc	a5,0x0
    300000ec:	1a87b783          	ld	a5,424(a5) # 30000290 <func+0x8>
    300000f0:	000780e7          	jalr	a5
    300000f4:	00813083          	ld	ra,8(sp)
    300000f8:	0095051b          	addiw	a0,a0,9
    300000fc:	01010113          	addi	sp,sp,16
    30000100:	00008067          	ret
    30000104:	00008067          	ret

0000000030000108 <f3>:
    30000108:	00000717          	auipc	a4,0x0
    3000010c:	1a070713          	addi	a4,a4,416 # 300002a8 <lvl>
    30000110:	00072683          	lw	a3,0(a4)
    30000114:	00050793          	mv	a5,a0
    30000118:	00b6d463          	bge	a3,a1,30000120 <f3+0x18>
    3000011c:	00b72023          	sw	a1,0(a4)
    30000120:	00000697          	auipc	a3,0x0
    30000124:	18c68693          	addi	a3,a3,396 # 300002ac <rec>
    30000128:	0006a703          	lw	a4,0(a3)
    3000012c:	00100513          	li	a0,1
    30000130:	0017071b          	addiw	a4,a4,1
    30000134:	00e6a023          	sw	a4,0(a3)
    30000138:	06f05a63          	blez	a5,300001ac <f3+0xa4>
    3000013c:	fe010113          	addi	sp,sp,-32
    30000140:	01213023          	sd	s2,0(sp)
    30000144:	00000917          	auipc	s2,0x0
    30000148:	14490913          	addi	s2,s2,324 # 30000288 <func>
    3000014c:	01093703          	ld	a4,16(s2)
    30000150:	00813823          	sd	s0,16(sp)
    30000154:	00913423          	sd	s1,8(sp)
    30000158:	0015841b          	addiw	s0,a1,1
    3000015c:	4017d493          	srai	s1,a5,0x1
    30000160:	00113c23          	sd	ra,24(sp)
    30000164:	00040593          	mv	a1,s0
    30000168:	00048513          	mv	a0,s1
    3000016c:	000700e7          	jalr	a4
    30000170:	01093783          	ld	a5,16(s2)
    30000174:	00040593          	mv	a1,s0
    30000178:	00050913          	mv	s2,a0
    3000017c:	00048513          	mv	a0,s1
    30000180:	000780e7          	jalr	a5
    30000184:	01813083          	ld	ra,24(sp)
    30000188:	01013403          	ld	s0,16(sp)
    3000018c:	0019179b          	slliw	a5,s2,0x1
    30000190:	012787bb          	addw	a5,a5,s2
    30000194:	0015151b          	slliw	a0,a0,0x1
    30000198:	00813483          	ld	s1,8(sp)
    3000019c:	00013903          	ld	s2,0(sp)
    300001a0:	00a7853b          	addw	a0,a5,a0
    300001a4:	02010113          	addi	sp,sp,32
    300001a8:	00008067          	ret
    300001ac:	00008067          	ret

00000000300001b0 <check>:
    300001b0:	00050463          	beqz	a0,300001b8 <check+0x8>
    300001b4:	00008067          	ret
    300001b8:	ff010113          	addi	sp,sp,-16
    300001bc:	00100513          	li	a0,1
    300001c0:	00113423          	sd	ra,8(sp)
    300001c4:	084000ef          	jal	ra,30000248 <halt>

00000000300001c8 <main>:
    300001c8:	ff010113          	addi	sp,sp,-16
    300001cc:	00004537          	lui	a0,0x4
    300001d0:	00113423          	sd	ra,8(sp)
    300001d4:	00813023          	sd	s0,0(sp)
    300001d8:	00000593          	li	a1,0
    300001dc:	00000797          	auipc	a5,0x0
    300001e0:	0ac7b783          	ld	a5,172(a5) # 30000288 <func>
    300001e4:	82350513          	addi	a0,a0,-2013 # 3823 <_entry_offset+0x3823>
    300001e8:	000780e7          	jalr	a5
    300001ec:	00000417          	auipc	s0,0x0
    300001f0:	08c40413          	addi	s0,s0,140 # 30000278 <ans>
    300001f4:	00042783          	lw	a5,0(s0)
    300001f8:	40a78533          	sub	a0,a5,a0
    300001fc:	00153513          	seqz	a0,a0
    30000200:	fb1ff0ef          	jal	ra,300001b0 <check>
    30000204:	00442503          	lw	a0,4(s0)
    30000208:	00000797          	auipc	a5,0x0
    3000020c:	0a47a783          	lw	a5,164(a5) # 300002ac <rec>
    30000210:	40f50533          	sub	a0,a0,a5
    30000214:	00153513          	seqz	a0,a0
    30000218:	f99ff0ef          	jal	ra,300001b0 <check>
    3000021c:	00842503          	lw	a0,8(s0)
    30000220:	00000797          	auipc	a5,0x0
    30000224:	0887a783          	lw	a5,136(a5) # 300002a8 <lvl>
    30000228:	40f50533          	sub	a0,a0,a5
    3000022c:	00153513          	seqz	a0,a0
    30000230:	f81ff0ef          	jal	ra,300001b0 <check>
    30000234:	00813083          	ld	ra,8(sp)
    30000238:	00013403          	ld	s0,0(sp)
    3000023c:	00000513          	li	a0,0
    30000240:	01010113          	addi	sp,sp,16
    30000244:	00008067          	ret

0000000030000248 <halt>:
    30000248:	0000006b          	0x6b
    3000024c:	0000006f          	j	3000024c <halt+0x4>

0000000030000250 <_trm_init>:
    30000250:	ff010113          	addi	sp,sp,-16
    30000254:	00000517          	auipc	a0,0x0
    30000258:	01c50513          	addi	a0,a0,28 # 30000270 <mainargs>
    3000025c:	00113423          	sd	ra,8(sp)
    30000260:	f69ff0ef          	jal	ra,300001c8 <main>
    30000264:	0000006b          	0x6b
    30000268:	0000006f          	j	30000268 <_trm_init+0x18>
