
/home/lin/SpinalProjects/DandRiscvSoC/ysyx-workbench/am-kernels/tests/cpu-tests/build/recursion-riscv64-nemu.elf:     file format elf64-littleriscv


Disassembly of section .text:

0000000080000000 <_start>:
    80000000:	00000413          	li	s0,0
    80000004:	00009117          	auipc	sp,0x9
    80000008:	ffc10113          	addi	sp,sp,-4 # 80009000 <_end>
    8000000c:	268000ef          	jal	ra,80000274 <_trm_init>

0000000080000010 <f0>:
    80000010:	00001717          	auipc	a4,0x1
    80000014:	8e870713          	addi	a4,a4,-1816 # 800008f8 <lvl>
    80000018:	00072683          	lw	a3,0(a4)
    8000001c:	00058793          	mv	a5,a1
    80000020:	00b6d463          	bge	a3,a1,80000028 <f0+0x18>
    80000024:	00b72023          	sw	a1,0(a4)
    80000028:	00001697          	auipc	a3,0x1
    8000002c:	8d468693          	addi	a3,a3,-1836 # 800008fc <rec>
    80000030:	0006a703          	lw	a4,0(a3)
    80000034:	0017071b          	addiw	a4,a4,1
    80000038:	00e6a023          	sw	a4,0(a3)
    8000003c:	02a05e63          	blez	a0,80000078 <f0+0x68>
    80000040:	ff010113          	addi	sp,sp,-16
    80000044:	00300593          	li	a1,3
    80000048:	00813023          	sd	s0,0(sp)
    8000004c:	00113423          	sd	ra,8(sp)
    80000050:	0017841b          	addiw	s0,a5,1
    80000054:	654000ef          	jal	ra,800006a8 <__divdi3>
    80000058:	00040593          	mv	a1,s0
    8000005c:	00013403          	ld	s0,0(sp)
    80000060:	00813083          	ld	ra,8(sp)
    80000064:	00001317          	auipc	t1,0x1
    80000068:	88c33303          	ld	t1,-1908(t1) # 800008f0 <func+0x18>
    8000006c:	0005051b          	sext.w	a0,a0
    80000070:	01010113          	addi	sp,sp,16
    80000074:	00030067          	jr	t1
    80000078:	00100513          	li	a0,1
    8000007c:	00008067          	ret

0000000080000080 <f1>:
    80000080:	00001797          	auipc	a5,0x1
    80000084:	87878793          	addi	a5,a5,-1928 # 800008f8 <lvl>
    80000088:	0007a703          	lw	a4,0(a5)
    8000008c:	00b75463          	bge	a4,a1,80000094 <f1+0x14>
    80000090:	00b7a023          	sw	a1,0(a5)
    80000094:	00001717          	auipc	a4,0x1
    80000098:	86870713          	addi	a4,a4,-1944 # 800008fc <rec>
    8000009c:	00072783          	lw	a5,0(a4)
    800000a0:	0017879b          	addiw	a5,a5,1
    800000a4:	00f72023          	sw	a5,0(a4)
    800000a8:	00a05c63          	blez	a0,800000c0 <f1+0x40>
    800000ac:	0015859b          	addiw	a1,a1,1
    800000b0:	fff5051b          	addiw	a0,a0,-1
    800000b4:	00001317          	auipc	t1,0x1
    800000b8:	82433303          	ld	t1,-2012(t1) # 800008d8 <func>
    800000bc:	00030067          	jr	t1
    800000c0:	00100513          	li	a0,1
    800000c4:	00008067          	ret

00000000800000c8 <f2>:
    800000c8:	00001717          	auipc	a4,0x1
    800000cc:	83070713          	addi	a4,a4,-2000 # 800008f8 <lvl>
    800000d0:	00072683          	lw	a3,0(a4)
    800000d4:	00050793          	mv	a5,a0
    800000d8:	00b6d463          	bge	a3,a1,800000e0 <f2+0x18>
    800000dc:	00b72023          	sw	a1,0(a4)
    800000e0:	00001697          	auipc	a3,0x1
    800000e4:	81c68693          	addi	a3,a3,-2020 # 800008fc <rec>
    800000e8:	0006a703          	lw	a4,0(a3)
    800000ec:	00100513          	li	a0,1
    800000f0:	0017071b          	addiw	a4,a4,1
    800000f4:	00e6a023          	sw	a4,0(a3)
    800000f8:	02f05863          	blez	a5,80000128 <f2+0x60>
    800000fc:	ff010113          	addi	sp,sp,-16
    80000100:	00113423          	sd	ra,8(sp)
    80000104:	00078513          	mv	a0,a5
    80000108:	0015859b          	addiw	a1,a1,1
    8000010c:	00000797          	auipc	a5,0x0
    80000110:	7d47b783          	ld	a5,2004(a5) # 800008e0 <func+0x8>
    80000114:	000780e7          	jalr	a5
    80000118:	00813083          	ld	ra,8(sp)
    8000011c:	0095051b          	addiw	a0,a0,9
    80000120:	01010113          	addi	sp,sp,16
    80000124:	00008067          	ret
    80000128:	00008067          	ret

000000008000012c <f3>:
    8000012c:	00000717          	auipc	a4,0x0
    80000130:	7cc70713          	addi	a4,a4,1996 # 800008f8 <lvl>
    80000134:	00072683          	lw	a3,0(a4)
    80000138:	00050793          	mv	a5,a0
    8000013c:	00b6d463          	bge	a3,a1,80000144 <f3+0x18>
    80000140:	00b72023          	sw	a1,0(a4)
    80000144:	00000697          	auipc	a3,0x0
    80000148:	7b868693          	addi	a3,a3,1976 # 800008fc <rec>
    8000014c:	0006a703          	lw	a4,0(a3)
    80000150:	00100513          	li	a0,1
    80000154:	0017071b          	addiw	a4,a4,1
    80000158:	00e6a023          	sw	a4,0(a3)
    8000015c:	06f05a63          	blez	a5,800001d0 <f3+0xa4>
    80000160:	fe010113          	addi	sp,sp,-32
    80000164:	01213023          	sd	s2,0(sp)
    80000168:	00000917          	auipc	s2,0x0
    8000016c:	77090913          	addi	s2,s2,1904 # 800008d8 <func>
    80000170:	01093703          	ld	a4,16(s2)
    80000174:	00813823          	sd	s0,16(sp)
    80000178:	00913423          	sd	s1,8(sp)
    8000017c:	0015841b          	addiw	s0,a1,1
    80000180:	4017d493          	srai	s1,a5,0x1
    80000184:	00113c23          	sd	ra,24(sp)
    80000188:	00040593          	mv	a1,s0
    8000018c:	00048513          	mv	a0,s1
    80000190:	000700e7          	jalr	a4
    80000194:	01093783          	ld	a5,16(s2)
    80000198:	00040593          	mv	a1,s0
    8000019c:	00050913          	mv	s2,a0
    800001a0:	00048513          	mv	a0,s1
    800001a4:	000780e7          	jalr	a5
    800001a8:	01813083          	ld	ra,24(sp)
    800001ac:	01013403          	ld	s0,16(sp)
    800001b0:	0019179b          	slliw	a5,s2,0x1
    800001b4:	012787bb          	addw	a5,a5,s2
    800001b8:	0015151b          	slliw	a0,a0,0x1
    800001bc:	00813483          	ld	s1,8(sp)
    800001c0:	00013903          	ld	s2,0(sp)
    800001c4:	00a7853b          	addw	a0,a5,a0
    800001c8:	02010113          	addi	sp,sp,32
    800001cc:	00008067          	ret
    800001d0:	00008067          	ret

00000000800001d4 <check>:
    800001d4:	00050463          	beqz	a0,800001dc <check+0x8>
    800001d8:	00008067          	ret
    800001dc:	ff010113          	addi	sp,sp,-16
    800001e0:	00100513          	li	a0,1
    800001e4:	00113423          	sd	ra,8(sp)
    800001e8:	084000ef          	jal	ra,8000026c <halt>

00000000800001ec <main>:
    800001ec:	ff010113          	addi	sp,sp,-16
    800001f0:	00004537          	lui	a0,0x4
    800001f4:	00113423          	sd	ra,8(sp)
    800001f8:	00813023          	sd	s0,0(sp)
    800001fc:	00000593          	li	a1,0
    80000200:	00000797          	auipc	a5,0x0
    80000204:	6d87b783          	ld	a5,1752(a5) # 800008d8 <func>
    80000208:	82350513          	addi	a0,a0,-2013 # 3823 <_entry_offset+0x3823>
    8000020c:	000780e7          	jalr	a5
    80000210:	00000417          	auipc	s0,0x0
    80000214:	6b840413          	addi	s0,s0,1720 # 800008c8 <ans>
    80000218:	00042783          	lw	a5,0(s0)
    8000021c:	40a78533          	sub	a0,a5,a0
    80000220:	00153513          	seqz	a0,a0
    80000224:	fb1ff0ef          	jal	ra,800001d4 <check>
    80000228:	00442503          	lw	a0,4(s0)
    8000022c:	00000797          	auipc	a5,0x0
    80000230:	6d07a783          	lw	a5,1744(a5) # 800008fc <rec>
    80000234:	40f50533          	sub	a0,a0,a5
    80000238:	00153513          	seqz	a0,a0
    8000023c:	f99ff0ef          	jal	ra,800001d4 <check>
    80000240:	00842503          	lw	a0,8(s0)
    80000244:	00000797          	auipc	a5,0x0
    80000248:	6b47a783          	lw	a5,1716(a5) # 800008f8 <lvl>
    8000024c:	40f50533          	sub	a0,a0,a5
    80000250:	00153513          	seqz	a0,a0
    80000254:	f81ff0ef          	jal	ra,800001d4 <check>
    80000258:	00813083          	ld	ra,8(sp)
    8000025c:	00013403          	ld	s0,0(sp)
    80000260:	00000513          	li	a0,0
    80000264:	01010113          	addi	sp,sp,16
    80000268:	00008067          	ret

000000008000026c <halt>:
    8000026c:	0000006b          	0x6b
    80000270:	0000006f          	j	80000270 <halt+0x4>

0000000080000274 <_trm_init>:
    80000274:	ff010113          	addi	sp,sp,-16
    80000278:	00000517          	auipc	a0,0x0
    8000027c:	64850513          	addi	a0,a0,1608 # 800008c0 <_etext>
    80000280:	00113423          	sd	ra,8(sp)
    80000284:	f69ff0ef          	jal	ra,800001ec <main>
    80000288:	0000006b          	0x6b
    8000028c:	0000006f          	j	8000028c <_trm_init+0x18>

0000000080000290 <__udivmoddi4>:
    80000290:	fa010113          	addi	sp,sp,-96
    80000294:	04913423          	sd	s1,72(sp)
    80000298:	05213023          	sd	s2,64(sp)
    8000029c:	03413823          	sd	s4,48(sp)
    800002a0:	03513423          	sd	s5,40(sp)
    800002a4:	04113c23          	sd	ra,88(sp)
    800002a8:	04813823          	sd	s0,80(sp)
    800002ac:	03313c23          	sd	s3,56(sp)
    800002b0:	03613023          	sd	s6,32(sp)
    800002b4:	01713c23          	sd	s7,24(sp)
    800002b8:	42055a93          	srai	s5,a0,0x20
    800002bc:	00050493          	mv	s1,a0
    800002c0:	00058913          	mv	s2,a1
    800002c4:	00060a13          	mv	s4,a2
    800002c8:	4205d813          	srai	a6,a1,0x20
    800002cc:	080a9063          	bnez	s5,8000034c <__udivmoddi4+0xbc>
    800002d0:	22081063          	bnez	a6,800004f0 <__udivmoddi4+0x260>
    800002d4:	0005891b          	sext.w	s2,a1
    800002d8:	0005049b          	sext.w	s1,a0
    800002dc:	02049493          	slli	s1,s1,0x20
    800002e0:	02091913          	slli	s2,s2,0x20
    800002e4:	0204d493          	srli	s1,s1,0x20
    800002e8:	02095913          	srli	s2,s2,0x20
    800002ec:	00060e63          	beqz	a2,80000308 <__udivmoddi4+0x78>
    800002f0:	00090593          	mv	a1,s2
    800002f4:	00048513          	mv	a0,s1
    800002f8:	400000ef          	jal	ra,800006f8 <__umoddi3>
    800002fc:	02051513          	slli	a0,a0,0x20
    80000300:	02055513          	srli	a0,a0,0x20
    80000304:	00aa3023          	sd	a0,0(s4)
    80000308:	00090593          	mv	a1,s2
    8000030c:	00048513          	mv	a0,s1
    80000310:	3e0000ef          	jal	ra,800006f0 <__udivdi3>
    80000314:	02051993          	slli	s3,a0,0x20
    80000318:	0209d993          	srli	s3,s3,0x20
    8000031c:	05813083          	ld	ra,88(sp)
    80000320:	05013403          	ld	s0,80(sp)
    80000324:	04813483          	ld	s1,72(sp)
    80000328:	04013903          	ld	s2,64(sp)
    8000032c:	03013a03          	ld	s4,48(sp)
    80000330:	02813a83          	ld	s5,40(sp)
    80000334:	02013b03          	ld	s6,32(sp)
    80000338:	01813b83          	ld	s7,24(sp)
    8000033c:	00098513          	mv	a0,s3
    80000340:	03813983          	ld	s3,56(sp)
    80000344:	06010113          	addi	sp,sp,96
    80000348:	00008067          	ret
    8000034c:	0005851b          	sext.w	a0,a1
    80000350:	06051e63          	bnez	a0,800003cc <__udivmoddi4+0x13c>
    80000354:	20080e63          	beqz	a6,80000570 <__udivmoddi4+0x2e0>
    80000358:	00048b9b          	sext.w	s7,s1
    8000035c:	280b8c63          	beqz	s7,800005f4 <__udivmoddi4+0x364>
    80000360:	fff8071b          	addiw	a4,a6,-1
    80000364:	00e877b3          	and	a5,a6,a4
    80000368:	0007879b          	sext.w	a5,a5
    8000036c:	2c078463          	beqz	a5,80000634 <__udivmoddi4+0x3a4>
    80000370:	02081513          	slli	a0,a6,0x20
    80000374:	02055513          	srli	a0,a0,0x20
    80000378:	4fc000ef          	jal	ra,80000874 <__clzdi2>
    8000037c:	00050b13          	mv	s6,a0
    80000380:	020a9513          	slli	a0,s5,0x20
    80000384:	02055513          	srli	a0,a0,0x20
    80000388:	4ec000ef          	jal	ra,80000874 <__clzdi2>
    8000038c:	fe0b0b1b          	addiw	s6,s6,-32
    80000390:	fe05089b          	addiw	a7,a0,-32
    80000394:	411b073b          	subw	a4,s6,a7
    80000398:	01e00793          	li	a5,30
    8000039c:	1ce7ec63          	bltu	a5,a4,80000574 <__udivmoddi4+0x2e4>
    800003a0:	0017089b          	addiw	a7,a4,1
    800003a4:	02000793          	li	a5,32
    800003a8:	411787bb          	subw	a5,a5,a7
    800003ac:	00fa96bb          	sllw	a3,s5,a5
    800003b0:	011bd73b          	srlw	a4,s7,a7
    800003b4:	00e6e6b3          	or	a3,a3,a4
    800003b8:	00fb97bb          	sllw	a5,s7,a5
    800003bc:	011ad73b          	srlw	a4,s5,a7
    800003c0:	00000813          	li	a6,0
    800003c4:	00068a9b          	sext.w	s5,a3
    800003c8:	06c0006f          	j	80000434 <__udivmoddi4+0x1a4>
    800003cc:	12080e63          	beqz	a6,80000508 <__udivmoddi4+0x278>
    800003d0:	02081513          	slli	a0,a6,0x20
    800003d4:	02055513          	srli	a0,a0,0x20
    800003d8:	49c000ef          	jal	ra,80000874 <__clzdi2>
    800003dc:	00050993          	mv	s3,a0
    800003e0:	020a9513          	slli	a0,s5,0x20
    800003e4:	02055513          	srli	a0,a0,0x20
    800003e8:	48c000ef          	jal	ra,80000874 <__clzdi2>
    800003ec:	fe09899b          	addiw	s3,s3,-32
    800003f0:	fe05051b          	addiw	a0,a0,-32
    800003f4:	40a9873b          	subw	a4,s3,a0
    800003f8:	01f00793          	li	a5,31
    800003fc:	16e7ec63          	bltu	a5,a4,80000574 <__udivmoddi4+0x2e4>
    80000400:	0017089b          	addiw	a7,a4,1
    80000404:	02000713          	li	a4,32
    80000408:	00000993          	li	s3,0
    8000040c:	0004879b          	sext.w	a5,s1
    80000410:	24e88e63          	beq	a7,a4,8000066c <__udivmoddi4+0x3dc>
    80000414:	4117053b          	subw	a0,a4,a7
    80000418:	00aa96bb          	sllw	a3,s5,a0
    8000041c:	0117d73b          	srlw	a4,a5,a7
    80000420:	00e6e6b3          	or	a3,a3,a4
    80000424:	00a797bb          	sllw	a5,a5,a0
    80000428:	011ad73b          	srlw	a4,s5,a7
    8000042c:	00000813          	li	a6,0
    80000430:	00068a9b          	sext.w	s5,a3
    80000434:	fff00313          	li	t1,-1
    80000438:	02035593          	srli	a1,t1,0x20
    8000043c:	00000513          	li	a0,0
    80000440:	02031313          	slli	t1,t1,0x20
    80000444:	00c0006f          	j	80000450 <__udivmoddi4+0x1c0>
    80000448:	42045713          	srai	a4,s0,0x20
    8000044c:	00040a9b          	sext.w	s5,s0
    80000450:	01fad61b          	srliw	a2,s5,0x1f
    80000454:	0017171b          	slliw	a4,a4,0x1
    80000458:	00c76733          	or	a4,a4,a2
    8000045c:	02071713          	slli	a4,a4,0x20
    80000460:	01f7d61b          	srliw	a2,a5,0x1f
    80000464:	001a969b          	slliw	a3,s5,0x1
    80000468:	00b47433          	and	s0,s0,a1
    8000046c:	00e46433          	or	s0,s0,a4
    80000470:	00c6e733          	or	a4,a3,a2
    80000474:	02071713          	slli	a4,a4,0x20
    80000478:	02075713          	srli	a4,a4,0x20
    8000047c:	00647433          	and	s0,s0,t1
    80000480:	00e46433          	or	s0,s0,a4
    80000484:	fff44713          	not	a4,s0
    80000488:	01270733          	add	a4,a4,s2
    8000048c:	01f8561b          	srliw	a2,a6,0x1f
    80000490:	0017979b          	slliw	a5,a5,0x1
    80000494:	0018181b          	slliw	a6,a6,0x1
    80000498:	43f75693          	srai	a3,a4,0x3f
    8000049c:	01056833          	or	a6,a0,a6
    800004a0:	00c7e7b3          	or	a5,a5,a2
    800004a4:	0126f6b3          	and	a3,a3,s2
    800004a8:	fff8889b          	addiw	a7,a7,-1
    800004ac:	0007879b          	sext.w	a5,a5
    800004b0:	0008081b          	sext.w	a6,a6
    800004b4:	00072513          	slti	a0,a4,0
    800004b8:	40d40433          	sub	s0,s0,a3
    800004bc:	f80896e3          	bnez	a7,80000448 <__udivmoddi4+0x1b8>
    800004c0:	00b9f9b3          	and	s3,s3,a1
    800004c4:	02079793          	slli	a5,a5,0x20
    800004c8:	00f9e9b3          	or	s3,s3,a5
    800004cc:	02081593          	slli	a1,a6,0x20
    800004d0:	0205d593          	srli	a1,a1,0x20
    800004d4:	0069f9b3          	and	s3,s3,t1
    800004d8:	00b9e9b3          	or	s3,s3,a1
    800004dc:	00199993          	slli	s3,s3,0x1
    800004e0:	00a9e9b3          	or	s3,s3,a0
    800004e4:	e20a0ce3          	beqz	s4,8000031c <__udivmoddi4+0x8c>
    800004e8:	008a3023          	sd	s0,0(s4)
    800004ec:	e31ff06f          	j	8000031c <__udivmoddi4+0x8c>
    800004f0:	00000993          	li	s3,0
    800004f4:	e20604e3          	beqz	a2,8000031c <__udivmoddi4+0x8c>
    800004f8:	02051793          	slli	a5,a0,0x20
    800004fc:	0207d793          	srli	a5,a5,0x20
    80000500:	00f63023          	sd	a5,0(a2)
    80000504:	e19ff06f          	j	8000031c <__udivmoddi4+0x8c>
    80000508:	fff5071b          	addiw	a4,a0,-1
    8000050c:	00e577b3          	and	a5,a0,a4
    80000510:	0007879b          	sext.w	a5,a5
    80000514:	06079863          	bnez	a5,80000584 <__udivmoddi4+0x2f4>
    80000518:	00060a63          	beqz	a2,8000052c <__udivmoddi4+0x29c>
    8000051c:	00e4f733          	and	a4,s1,a4
    80000520:	02071713          	slli	a4,a4,0x20
    80000524:	02075713          	srli	a4,a4,0x20
    80000528:	00e63023          	sd	a4,0(a2)
    8000052c:	00100793          	li	a5,1
    80000530:	00048993          	mv	s3,s1
    80000534:	def504e3          	beq	a0,a5,8000031c <__udivmoddi4+0x8c>
    80000538:	02051513          	slli	a0,a0,0x20
    8000053c:	02055513          	srli	a0,a0,0x20
    80000540:	2e8000ef          	jal	ra,80000828 <__ctzdi2>
    80000544:	02000793          	li	a5,32
    80000548:	40a787bb          	subw	a5,a5,a0
    8000054c:	00a4d9bb          	srlw	s3,s1,a0
    80000550:	00fa97bb          	sllw	a5,s5,a5
    80000554:	0137e9b3          	or	s3,a5,s3
    80000558:	00aad53b          	srlw	a0,s5,a0
    8000055c:	02099993          	slli	s3,s3,0x20
    80000560:	0209d993          	srli	s3,s3,0x20
    80000564:	02051513          	slli	a0,a0,0x20
    80000568:	013569b3          	or	s3,a0,s3
    8000056c:	db1ff06f          	j	8000031c <__udivmoddi4+0x8c>
    80000570:	00100073          	ebreak
    80000574:	00000993          	li	s3,0
    80000578:	da0a02e3          	beqz	s4,8000031c <__udivmoddi4+0x8c>
    8000057c:	009a3023          	sd	s1,0(s4)
    80000580:	d9dff06f          	j	8000031c <__udivmoddi4+0x8c>
    80000584:	02051513          	slli	a0,a0,0x20
    80000588:	02055513          	srli	a0,a0,0x20
    8000058c:	01013423          	sd	a6,8(sp)
    80000590:	2e4000ef          	jal	ra,80000874 <__clzdi2>
    80000594:	00050b13          	mv	s6,a0
    80000598:	020a9513          	slli	a0,s5,0x20
    8000059c:	02055513          	srli	a0,a0,0x20
    800005a0:	2d4000ef          	jal	ra,80000874 <__clzdi2>
    800005a4:	fe0b0b1b          	addiw	s6,s6,-32
    800005a8:	fe05069b          	addiw	a3,a0,-32
    800005ac:	40db06bb          	subw	a3,s6,a3
    800005b0:	0216889b          	addiw	a7,a3,33
    800005b4:	02000593          	li	a1,32
    800005b8:	00813803          	ld	a6,8(sp)
    800005bc:	0004879b          	sext.w	a5,s1
    800005c0:	00000713          	li	a4,0
    800005c4:	e6b888e3          	beq	a7,a1,80000434 <__udivmoddi4+0x1a4>
    800005c8:	01f00713          	li	a4,31
    800005cc:	0b176663          	bltu	a4,a7,80000678 <__udivmoddi4+0x3e8>
    800005d0:	02000713          	li	a4,32
    800005d4:	4117063b          	subw	a2,a4,a7
    800005d8:	00ca96bb          	sllw	a3,s5,a2
    800005dc:	0117d73b          	srlw	a4,a5,a7
    800005e0:	00e6e6b3          	or	a3,a3,a4
    800005e4:	00c797bb          	sllw	a5,a5,a2
    800005e8:	011ad73b          	srlw	a4,s5,a7
    800005ec:	00068a9b          	sext.w	s5,a3
    800005f0:	e45ff06f          	j	80000434 <__udivmoddi4+0x1a4>
    800005f4:	020a9a93          	slli	s5,s5,0x20
    800005f8:	02081413          	slli	s0,a6,0x20
    800005fc:	020ada93          	srli	s5,s5,0x20
    80000600:	02045413          	srli	s0,s0,0x20
    80000604:	00060c63          	beqz	a2,8000061c <__udivmoddi4+0x38c>
    80000608:	00040593          	mv	a1,s0
    8000060c:	000a8513          	mv	a0,s5
    80000610:	0e8000ef          	jal	ra,800006f8 <__umoddi3>
    80000614:	02051513          	slli	a0,a0,0x20
    80000618:	00aa3023          	sd	a0,0(s4)
    8000061c:	00040593          	mv	a1,s0
    80000620:	000a8513          	mv	a0,s5
    80000624:	0cc000ef          	jal	ra,800006f0 <__udivdi3>
    80000628:	02051993          	slli	s3,a0,0x20
    8000062c:	0209d993          	srli	s3,s3,0x20
    80000630:	cedff06f          	j	8000031c <__udivmoddi4+0x8c>
    80000634:	00060e63          	beqz	a2,80000650 <__udivmoddi4+0x3c0>
    80000638:	00eaf733          	and	a4,s5,a4
    8000063c:	020b9793          	slli	a5,s7,0x20
    80000640:	02071713          	slli	a4,a4,0x20
    80000644:	0207d793          	srli	a5,a5,0x20
    80000648:	00e7e733          	or	a4,a5,a4
    8000064c:	00e63023          	sd	a4,0(a2)
    80000650:	02081513          	slli	a0,a6,0x20
    80000654:	02055513          	srli	a0,a0,0x20
    80000658:	1d0000ef          	jal	ra,80000828 <__ctzdi2>
    8000065c:	00aad9bb          	srlw	s3,s5,a0
    80000660:	02099993          	slli	s3,s3,0x20
    80000664:	0209d993          	srli	s3,s3,0x20
    80000668:	cb5ff06f          	j	8000031c <__udivmoddi4+0x8c>
    8000066c:	00000713          	li	a4,0
    80000670:	00000813          	li	a6,0
    80000674:	dc1ff06f          	j	80000434 <__udivmoddi4+0x1a4>
    80000678:	04000713          	li	a4,64
    8000067c:	4117063b          	subw	a2,a4,a7
    80000680:	0016869b          	addiw	a3,a3,1
    80000684:	00ca973b          	sllw	a4,s5,a2
    80000688:	00d7d5bb          	srlw	a1,a5,a3
    8000068c:	00c7963b          	sllw	a2,a5,a2
    80000690:	00b767b3          	or	a5,a4,a1
    80000694:	0007879b          	sext.w	a5,a5
    80000698:	00080713          	mv	a4,a6
    8000069c:	00dadabb          	srlw	s5,s5,a3
    800006a0:	00060813          	mv	a6,a2
    800006a4:	d91ff06f          	j	80000434 <__udivmoddi4+0x1a4>

00000000800006a8 <__divdi3>:
    800006a8:	ff010113          	addi	sp,sp,-16
    800006ac:	00813023          	sd	s0,0(sp)
    800006b0:	43f55793          	srai	a5,a0,0x3f
    800006b4:	43f5d413          	srai	s0,a1,0x3f
    800006b8:	00f54533          	xor	a0,a0,a5
    800006bc:	0085c5b3          	xor	a1,a1,s0
    800006c0:	408585b3          	sub	a1,a1,s0
    800006c4:	00000613          	li	a2,0
    800006c8:	40f50533          	sub	a0,a0,a5
    800006cc:	00113423          	sd	ra,8(sp)
    800006d0:	0087c433          	xor	s0,a5,s0
    800006d4:	bbdff0ef          	jal	ra,80000290 <__udivmoddi4>
    800006d8:	00854533          	xor	a0,a0,s0
    800006dc:	00813083          	ld	ra,8(sp)
    800006e0:	40850533          	sub	a0,a0,s0
    800006e4:	00013403          	ld	s0,0(sp)
    800006e8:	01010113          	addi	sp,sp,16
    800006ec:	00008067          	ret

00000000800006f0 <__udivdi3>:
    800006f0:	00000613          	li	a2,0
    800006f4:	b9dff06f          	j	80000290 <__udivmoddi4>

00000000800006f8 <__umoddi3>:
    800006f8:	fe010113          	addi	sp,sp,-32
    800006fc:	00810613          	addi	a2,sp,8
    80000700:	00113c23          	sd	ra,24(sp)
    80000704:	b8dff0ef          	jal	ra,80000290 <__udivmoddi4>
    80000708:	01813083          	ld	ra,24(sp)
    8000070c:	00813503          	ld	a0,8(sp)
    80000710:	02010113          	addi	sp,sp,32
    80000714:	00008067          	ret

0000000080000718 <__clzsi2>:
    80000718:	ffff07b7          	lui	a5,0xffff0
    8000071c:	00f577b3          	and	a5,a0,a5
    80000720:	01000713          	li	a4,16
    80000724:	00078663          	beqz	a5,80000730 <__clzsi2+0x18>
    80000728:	0105551b          	srliw	a0,a0,0x10
    8000072c:	00000713          	li	a4,0
    80000730:	000107b7          	lui	a5,0x10
    80000734:	f0078793          	addi	a5,a5,-256 # ff00 <_entry_offset+0xff00>
    80000738:	00f577b3          	and	a5,a0,a5
    8000073c:	04078063          	beqz	a5,8000077c <__clzsi2+0x64>
    80000740:	0085551b          	srliw	a0,a0,0x8
    80000744:	0f057793          	andi	a5,a0,240
    80000748:	04078063          	beqz	a5,80000788 <__clzsi2+0x70>
    8000074c:	0045551b          	srliw	a0,a0,0x4
    80000750:	00c57793          	andi	a5,a0,12
    80000754:	04078063          	beqz	a5,80000794 <__clzsi2+0x7c>
    80000758:	0025551b          	srliw	a0,a0,0x2
    8000075c:	00257793          	andi	a5,a0,2
    80000760:	00200693          	li	a3,2
    80000764:	0017b793          	seqz	a5,a5
    80000768:	40f007bb          	negw	a5,a5
    8000076c:	40a6853b          	subw	a0,a3,a0
    80000770:	00a7f533          	and	a0,a5,a0
    80000774:	00e5053b          	addw	a0,a0,a4
    80000778:	00008067          	ret
    8000077c:	0f057793          	andi	a5,a0,240
    80000780:	0087071b          	addiw	a4,a4,8
    80000784:	fc0794e3          	bnez	a5,8000074c <__clzsi2+0x34>
    80000788:	00c57793          	andi	a5,a0,12
    8000078c:	0047071b          	addiw	a4,a4,4
    80000790:	fc0794e3          	bnez	a5,80000758 <__clzsi2+0x40>
    80000794:	00257793          	andi	a5,a0,2
    80000798:	00200693          	li	a3,2
    8000079c:	0017b793          	seqz	a5,a5
    800007a0:	40f007bb          	negw	a5,a5
    800007a4:	40a6853b          	subw	a0,a3,a0
    800007a8:	0027071b          	addiw	a4,a4,2
    800007ac:	00a7f533          	and	a0,a5,a0
    800007b0:	00e5053b          	addw	a0,a0,a4
    800007b4:	00008067          	ret

00000000800007b8 <__ctzsi2>:
    800007b8:	03051793          	slli	a5,a0,0x30
    800007bc:	0307d793          	srli	a5,a5,0x30
    800007c0:	00000693          	li	a3,0
    800007c4:	00079663          	bnez	a5,800007d0 <__ctzsi2+0x18>
    800007c8:	0105551b          	srliw	a0,a0,0x10
    800007cc:	01000693          	li	a3,16
    800007d0:	0ff57793          	andi	a5,a0,255
    800007d4:	00079663          	bnez	a5,800007e0 <__ctzsi2+0x28>
    800007d8:	0085551b          	srliw	a0,a0,0x8
    800007dc:	0086869b          	addiw	a3,a3,8
    800007e0:	00f57793          	andi	a5,a0,15
    800007e4:	00079663          	bnez	a5,800007f0 <__ctzsi2+0x38>
    800007e8:	0045551b          	srliw	a0,a0,0x4
    800007ec:	0046869b          	addiw	a3,a3,4
    800007f0:	00357793          	andi	a5,a0,3
    800007f4:	00079663          	bnez	a5,80000800 <__ctzsi2+0x48>
    800007f8:	0025551b          	srliw	a0,a0,0x2
    800007fc:	0026869b          	addiw	a3,a3,2
    80000800:	0015571b          	srliw	a4,a0,0x1
    80000804:	fff54793          	not	a5,a0
    80000808:	0017f793          	andi	a5,a5,1
    8000080c:	00177513          	andi	a0,a4,1
    80000810:	00200713          	li	a4,2
    80000814:	40a7073b          	subw	a4,a4,a0
    80000818:	40f007bb          	negw	a5,a5
    8000081c:	00f777b3          	and	a5,a4,a5
    80000820:	00d7853b          	addw	a0,a5,a3
    80000824:	00008067          	ret

0000000080000828 <__ctzdi2>:
    80000828:	0005079b          	sext.w	a5,a0
    8000082c:	ff010113          	addi	sp,sp,-16
    80000830:	0017b713          	seqz	a4,a5
    80000834:	00813023          	sd	s0,0(sp)
    80000838:	42055513          	srai	a0,a0,0x20
    8000083c:	40e0043b          	negw	s0,a4
    80000840:	fff7071b          	addiw	a4,a4,-1
    80000844:	00e7f7b3          	and	a5,a5,a4
    80000848:	00a47533          	and	a0,s0,a0
    8000084c:	00a7e533          	or	a0,a5,a0
    80000850:	0005051b          	sext.w	a0,a0
    80000854:	00113423          	sd	ra,8(sp)
    80000858:	02047413          	andi	s0,s0,32
    8000085c:	f5dff0ef          	jal	ra,800007b8 <__ctzsi2>
    80000860:	00813083          	ld	ra,8(sp)
    80000864:	00a4053b          	addw	a0,s0,a0
    80000868:	00013403          	ld	s0,0(sp)
    8000086c:	01010113          	addi	sp,sp,16
    80000870:	00008067          	ret

0000000080000874 <__clzdi2>:
    80000874:	42055713          	srai	a4,a0,0x20
    80000878:	00173693          	seqz	a3,a4
    8000087c:	40d007bb          	negw	a5,a3
    80000880:	fff6869b          	addiw	a3,a3,-1
    80000884:	00d77733          	and	a4,a4,a3
    80000888:	00f57533          	and	a0,a0,a5
    8000088c:	ff010113          	addi	sp,sp,-16
    80000890:	00a76533          	or	a0,a4,a0
    80000894:	00813023          	sd	s0,0(sp)
    80000898:	0005051b          	sext.w	a0,a0
    8000089c:	0007841b          	sext.w	s0,a5
    800008a0:	00113423          	sd	ra,8(sp)
    800008a4:	02047413          	andi	s0,s0,32
    800008a8:	e71ff0ef          	jal	ra,80000718 <__clzsi2>
    800008ac:	00813083          	ld	ra,8(sp)
    800008b0:	00a4053b          	addw	a0,s0,a0
    800008b4:	00013403          	ld	s0,0(sp)
    800008b8:	01010113          	addi	sp,sp,16
    800008bc:	00008067          	ret
