
/home/lin/SpinalProjects/DandRiscvSoC/ysyx-workbench/am-kernels/tests/cpu-tests/build/string-riscv64-npc.elf:     file format elf64-littleriscv


Disassembly of section .text:

0000000080000000 <_start>:
    80000000:	00000413          	li	s0,0
    80000004:	00009117          	auipc	sp,0x9
    80000008:	ffc10113          	addi	sp,sp,-4 # 80009000 <_end>
    8000000c:	120000ef          	jal	ra,8000012c <_trm_init>

0000000080000010 <check>:
    80000010:	00050463          	beqz	a0,80000018 <check+0x8>
    80000014:	00008067          	ret
    80000018:	ff010113          	addi	sp,sp,-16
    8000001c:	00100513          	li	a0,1
    80000020:	00113423          	sd	ra,8(sp)
    80000024:	0fc000ef          	jal	ra,80000120 <halt>

0000000080000028 <main>:
    80000028:	ff010113          	addi	sp,sp,-16
    8000002c:	00813023          	sd	s0,0(sp)
    80000030:	00000417          	auipc	s0,0x0
    80000034:	2a840413          	addi	s0,s0,680 # 800002d8 <s>
    80000038:	01043583          	ld	a1,16(s0)
    8000003c:	00043503          	ld	a0,0(s0)
    80000040:	00113423          	sd	ra,8(sp)
    80000044:	174000ef          	jal	ra,800001b8 <strcmp>
    80000048:	00153513          	seqz	a0,a0
    8000004c:	fc5ff0ef          	jal	ra,80000010 <check>
    80000050:	00843583          	ld	a1,8(s0)
    80000054:	00043503          	ld	a0,0(s0)
    80000058:	160000ef          	jal	ra,800001b8 <strcmp>
    8000005c:	01f5551b          	srliw	a0,a0,0x1f
    80000060:	fb1ff0ef          	jal	ra,80000010 <check>
    80000064:	00843583          	ld	a1,8(s0)
    80000068:	00043503          	ld	a0,0(s0)
    8000006c:	00158593          	addi	a1,a1,1
    80000070:	00150513          	addi	a0,a0,1
    80000074:	144000ef          	jal	ra,800001b8 <strcmp>
    80000078:	01f5551b          	srliw	a0,a0,0x1f
    8000007c:	f95ff0ef          	jal	ra,80000010 <check>
    80000080:	00843583          	ld	a1,8(s0)
    80000084:	00043503          	ld	a0,0(s0)
    80000088:	00258593          	addi	a1,a1,2
    8000008c:	00250513          	addi	a0,a0,2
    80000090:	128000ef          	jal	ra,800001b8 <strcmp>
    80000094:	01f5551b          	srliw	a0,a0,0x1f
    80000098:	f79ff0ef          	jal	ra,80000010 <check>
    8000009c:	00843583          	ld	a1,8(s0)
    800000a0:	00043503          	ld	a0,0(s0)
    800000a4:	00358593          	addi	a1,a1,3
    800000a8:	00350513          	addi	a0,a0,3
    800000ac:	10c000ef          	jal	ra,800001b8 <strcmp>
    800000b0:	01f5551b          	srliw	a0,a0,0x1f
    800000b4:	f5dff0ef          	jal	ra,80000010 <check>
    800000b8:	00000597          	auipc	a1,0x0
    800000bc:	25058593          	addi	a1,a1,592 # 80000308 <str1>
    800000c0:	00000517          	auipc	a0,0x0
    800000c4:	25050513          	addi	a0,a0,592 # 80000310 <str>
    800000c8:	084000ef          	jal	ra,8000014c <strcpy>
    800000cc:	01843583          	ld	a1,24(s0)
    800000d0:	0a4000ef          	jal	ra,80000174 <strcat>
    800000d4:	02043583          	ld	a1,32(s0)
    800000d8:	0e0000ef          	jal	ra,800001b8 <strcmp>
    800000dc:	00153513          	seqz	a0,a0
    800000e0:	f31ff0ef          	jal	ra,80000010 <check>
    800000e4:	00500613          	li	a2,5
    800000e8:	02300593          	li	a1,35
    800000ec:	00000517          	auipc	a0,0x0
    800000f0:	22450513          	addi	a0,a0,548 # 80000310 <str>
    800000f4:	104000ef          	jal	ra,800001f8 <memset>
    800000f8:	02843583          	ld	a1,40(s0)
    800000fc:	00500613          	li	a2,5
    80000100:	118000ef          	jal	ra,80000218 <memcmp>
    80000104:	00153513          	seqz	a0,a0
    80000108:	f09ff0ef          	jal	ra,80000010 <check>
    8000010c:	00813083          	ld	ra,8(sp)
    80000110:	00013403          	ld	s0,0(sp)
    80000114:	00000513          	li	a0,0
    80000118:	01010113          	addi	sp,sp,16
    8000011c:	00008067          	ret

0000000080000120 <halt>:
    80000120:	00050513          	mv	a0,a0
    80000124:	00100073          	ebreak
    80000128:	0000006f          	j	80000128 <halt+0x8>

000000008000012c <_trm_init>:
    8000012c:	ff010113          	addi	sp,sp,-16
    80000130:	00000517          	auipc	a0,0x0
    80000134:	1a050513          	addi	a0,a0,416 # 800002d0 <mainargs>
    80000138:	00113423          	sd	ra,8(sp)
    8000013c:	eedff0ef          	jal	ra,80000028 <main>
    80000140:	00050513          	mv	a0,a0
    80000144:	00100073          	ebreak
    80000148:	0000006f          	j	80000148 <_trm_init+0x1c>

000000008000014c <strcpy>:
    8000014c:	0005c783          	lbu	a5,0(a1)
    80000150:	00050713          	mv	a4,a0
    80000154:	00078c63          	beqz	a5,8000016c <strcpy+0x20>
    80000158:	00f70023          	sb	a5,0(a4)
    8000015c:	0015c783          	lbu	a5,1(a1)
    80000160:	00170713          	addi	a4,a4,1
    80000164:	00158593          	addi	a1,a1,1
    80000168:	fe0798e3          	bnez	a5,80000158 <strcpy+0xc>
    8000016c:	00070023          	sb	zero,0(a4)
    80000170:	00008067          	ret

0000000080000174 <strcat>:
    80000174:	00054783          	lbu	a5,0(a0)
    80000178:	02078c63          	beqz	a5,800001b0 <strcat+0x3c>
    8000017c:	00050793          	mv	a5,a0
    80000180:	0017c703          	lbu	a4,1(a5)
    80000184:	00178793          	addi	a5,a5,1
    80000188:	fe071ce3          	bnez	a4,80000180 <strcat+0xc>
    8000018c:	0005c703          	lbu	a4,0(a1)
    80000190:	00070c63          	beqz	a4,800001a8 <strcat+0x34>
    80000194:	00e78023          	sb	a4,0(a5)
    80000198:	0015c703          	lbu	a4,1(a1)
    8000019c:	00178793          	addi	a5,a5,1
    800001a0:	00158593          	addi	a1,a1,1
    800001a4:	fe0718e3          	bnez	a4,80000194 <strcat+0x20>
    800001a8:	00078023          	sb	zero,0(a5)
    800001ac:	00008067          	ret
    800001b0:	00050793          	mv	a5,a0
    800001b4:	fd9ff06f          	j	8000018c <strcat+0x18>

00000000800001b8 <strcmp>:
    800001b8:	00050793          	mv	a5,a0
    800001bc:	00054503          	lbu	a0,0(a0)
    800001c0:	0005c703          	lbu	a4,0(a1)
    800001c4:	00051c63          	bnez	a0,800001dc <strcmp+0x24>
    800001c8:	0280006f          	j	800001f0 <strcmp+0x38>
    800001cc:	02051063          	bnez	a0,800001ec <strcmp+0x34>
    800001d0:	0007c503          	lbu	a0,0(a5)
    800001d4:	0005c703          	lbu	a4,0(a1)
    800001d8:	00050c63          	beqz	a0,800001f0 <strcmp+0x38>
    800001dc:	00178793          	addi	a5,a5,1
    800001e0:	00158593          	addi	a1,a1,1
    800001e4:	40e5053b          	subw	a0,a0,a4
    800001e8:	fe0712e3          	bnez	a4,800001cc <strcmp+0x14>
    800001ec:	00008067          	ret
    800001f0:	40e0053b          	negw	a0,a4
    800001f4:	00008067          	ret

00000000800001f8 <memset>:
    800001f8:	0ff5f593          	andi	a1,a1,255
    800001fc:	00050793          	mv	a5,a0
    80000200:	00c50733          	add	a4,a0,a2
    80000204:	00060863          	beqz	a2,80000214 <memset+0x1c>
    80000208:	00b78023          	sb	a1,0(a5)
    8000020c:	00178793          	addi	a5,a5,1
    80000210:	fee79ce3          	bne	a5,a4,80000208 <memset+0x10>
    80000214:	00008067          	ret

0000000080000218 <memcmp>:
    80000218:	02060a63          	beqz	a2,8000024c <memcmp+0x34>
    8000021c:	00050793          	mv	a5,a0
    80000220:	00c50633          	add	a2,a0,a2
    80000224:	0080006f          	j	8000022c <memcmp+0x14>
    80000228:	02c78063          	beq	a5,a2,80000248 <memcmp+0x30>
    8000022c:	0007c503          	lbu	a0,0(a5)
    80000230:	0005c703          	lbu	a4,0(a1)
    80000234:	00178793          	addi	a5,a5,1
    80000238:	00158593          	addi	a1,a1,1
    8000023c:	40e5053b          	subw	a0,a0,a4
    80000240:	fe0504e3          	beqz	a0,80000228 <memcmp+0x10>
    80000244:	00008067          	ret
    80000248:	00008067          	ret
    8000024c:	00000513          	li	a0,0
    80000250:	00008067          	ret
