[1;34m[src/utils/log.c:13 init_log] Log is written to /home/lin/SpinalProjects/DandRiscvSoC/ysyx-workbench/am-kernels/tests/alu-tests/build/nemu-log.txt[0m
[1;34m[src/memory/paddr.c:41 init_mem] physical memory area [0x80000000, 0xafffffff][0m
[1;34m[src/monitor/monitor.c:46 load_img] The image is /home/lin/SpinalProjects/DandRiscvSoC/ysyx-workbench/am-kernels/tests/alu-tests/build/alutest-riscv64-nemu.bin, size = 1054928[0m
[1;34m[src/monitor/monitor.c:13 welcome] Trace: [1;32mON[0m[0m
[1;34m[src/monitor/monitor.c:14 welcome] If trace is enabled, a log file will be generated to record the trace. This may lead to a large log file. If it is not necessary, you can disable it in menuconfig[0m
[1;34m[src/monitor/monitor.c:17 welcome] Build time: 20:24:59, Dec 19 2023[0m
0x0000000080000000: 00 00 04 13 mv	s0, zero
0x0000000080000004: 00 10 a1 17 auipc	sp, 266
0x0000000080000008: ff c1 01 13 addi	sp, sp, -4
0x000000008000000c: 43 df f0 ef jal	1047612
0x00000000800ffc48: ff 01 01 13 addi	sp, sp, -16
0x00000000800ffc4c: 00 00 25 17 auipc	a0, 2
0x00000000800ffc50: be 45 05 13 addi	a0, a0, -1052
0x00000000800ffc54: 00 11 34 23 sd	ra, 8(sp)
0x00000000800ffc58: bb 80 00 ef jal	-1047624
0x0000000080000010: e5 01 01 13 addi	sp, sp, -432
0x0000000080000014: ff ff b2 b7 lui	t0, 1048571
0x0000000080000018: 1a 11 34 23 sd	ra, 424(sp)
0x000000008000001c: 00 00 57 37 lui	a4, 5
0x0000000080000020: 00 51 01 33 add	sp, sp, t0
0x0000000080000024: 01 01 06 93 addi	a3, sp, 16
0x0000000080000028: 19 07 07 13 addi	a4, a4, 400
0x000000008000002c: 00 d7 07 33 add	a4, a4, a3
0x0000000080000030: ff ff d7 b7 lui	a5, 1048573
0x0000000080000034: 00 f7 07 b3 add	a5, a4, a5
0x0000000080000038: 80 00 07 37 lui	a4, 524288
0x000000008000003c: 18 e7 a0 23 sw	a4, 384(a5)
0x0000000080000040: 18 e7 a2 23 sw	a4, 388(a5)
0x0000000080000044: 18 07 a7 03 lw	a4, 384(a5)
0x0000000080000048: 18 47 a6 83 lw	a3, 388(a5)
0x000000008000004c: 00 e6 85 3b addw	a0, a3, a4
0x0000000080000050: 08 05 02 63 beqz	a0, 132
0x00000000800000d4: 00 00 57 37 lui	a4, 5
0x00000000800000d8: 01 01 06 93 addi	a3, sp, 16
0x00000000800000dc: 19 07 07 13 addi	a4, a4, 400
0x00000000800000e0: 00 d7 07 33 add	a4, a4, a3
0x00000000800000e4: ff ff d7 b7 lui	a5, 1048573
0x00000000800000e8: 00 f7 07 b3 add	a5, a4, a5
0x00000000800000ec: 80 00 07 37 lui	a4, 524288
0x00000000800000f0: 18 e7 a4 23 sw	a4, 392(a5)
0x00000000800000f4: 00 17 07 1b addiw	a4, a4, 1
0x00000000800000f8: 18 e7 a6 23 sw	a4, 396(a5)
0x00000000800000fc: 18 87 a6 83 lw	a3, 392(a5)
0x0000000080000100: 18 c7 a6 03 lw	a2, 396(a5)
0x0000000080000104: 00 10 07 13 addi	a4, zero, 1
0x0000000080000108: 00 d6 06 bb addw	a3, a2, a3
0x000000008000010c: 08 e6 84 63 beq	a3, a4, 136
0x0000000080000194: 00 00 57 37 lui	a4, 5
0x0000000080000198: 01 01 06 93 addi	a3, sp, 16
0x000000008000019c: 19 07 07 13 addi	a4, a4, 400
0x00000000800001a0: 00 d7 07 33 add	a4, a4, a3
0x00000000800001a4: ff ff d7 b7 lui	a5, 1048573
0x00000000800001a8: 00 f7 07 b3 add	a5, a4, a5
0x00000000800001ac: 80 00 07 37 lui	a4, 524288
0x00000000800001b0: 18 e7 a8 23 sw	a4, 400(a5)
0x00000000800001b4: ff e0 07 13 addi	a4, zero, -2
0x00000000800001b8: 18 e7 aa 23 sw	a4, 404(a5)
0x00000000800001bc: 19 07 a6 83 lw	a3, 400(a5)
0x00000000800001c0: 19 47 a6 03 lw	a2, 404(a5)
0x00000000800001c4: 80 00 07 37 lui	a4, 524288
0x00000000800001c8: ff e7 47 13 xori	a4, a4, -2
0x00000000800001cc: 00 d6 06 bb addw	a3, a2, a3
0x00000000800001d0: 08 e6 84 63 beq	a3, a4, 136
0x0000000080000258: 00 00 57 37 lui	a4, 5
0x000000008000025c: 01 01 06 93 addi	a3, sp, 16
0x0000000080000260: 19 07 07 13 addi	a4, a4, 400
0x0000000080000264: 00 d7 07 33 add	a4, a4, a3
0x0000000080000268: ff ff d7 b7 lui	a5, 1048573
0x000000008000026c: 00 f7 07 b3 add	a5, a4, a5
0x0000000080000270: 80 00 07 37 lui	a4, 524288
0x0000000080000274: 18 e7 ac 23 sw	a4, 408(a5)
0x0000000080000278: ff f0 07 13 addi	a4, zero, -1
0x000000008000027c: 18 e7 ae 23 sw	a4, 412(a5)
0x0000000080000280: 19 87 a6 83 lw	a3, 408(a5)
0x0000000080000284: 19 c7 a6 03 lw	a2, 412(a5)
0x0000000080000288: 80 00 07 37 lui	a4, 524288
0x000000008000028c: ff f7 47 13 not	a4, a4
0x0000000080000290: 00 d6 06 bb addw	a3, a2, a3
0x0000000080000294: 08 e6 84 63 beq	a3, a4, 136
0x000000008000031c: 00 00 57 37 lui	a4, 5
0x0000000080000320: 01 01 06 93 addi	a3, sp, 16
0x0000000080000324: 19 07 07 13 addi	a4, a4, 400
0x0000000080000328: 00 d7 07 33 add	a4, a4, a3
0x000000008000032c: ff ff d7 b7 lui	a5, 1048573
0x0000000080000330: 00 f7 07 b3 add	a5, a4, a5
0x0000000080000334: 80 00 07 37 lui	a4, 524288
0x0000000080000338: 1a e7 a0 23 sw	a4, 416(a5)
0x000000008000033c: 1a 07 a2 23 sw	zero, 420(a5)
0x0000000080000340: 1a 07 a6 83 lw	a3, 416(a5)
0x0000000080000344: 1a 47 a6 03 lw	a2, 420(a5)
0x0000000080000348: 80 00 07 37 lui	a4, 524288
0x000000008000034c: 00 d6 06 bb addw	a3, a2, a3
0x0000000080000350: 08 e6 82 63 beq	a3, a4, 132
0x00000000800003d4: 00 00 57 37 lui	a4, 5
0x00000000800003d8: 01 01 06 93 addi	a3, sp, 16
0x00000000800003dc: 19 07 07 13 addi	a4, a4, 400
0x00000000800003e0: 00 d7 07 33 add	a4, a4, a3
0x00000000800003e4: ff ff d7 b7 lui	a5, 1048573
0x00000000800003e8: 00 f7 07 b3 add	a5, a4, a5
0x00000000800003ec: 80 00 07 37 lui	a4, 524288
0x00000000800003f0: 1a e7 a4 23 sw	a4, 424(a5)
0x00000000800003f4: 00 10 07 13 addi	a4, zero, 1
0x00000000800003f8: 1a e7 a6 23 sw	a4, 428(a5)
0x00000000800003fc: 1a 87 a6 83 lw	a3, 424(a5)
0x0000000080000400: 1a c7 a6 03 lw	a2, 428(a5)
0x0000000080000404: 80 00 07 37 lui	a4, 524288
0x0000000080000408: 00 17 07 13 addi	a4, a4, 1
0x000000008000040c: 00 d6 06 bb addw	a3, a2, a3
0x0000000080000410: 08 e6 84 63 beq	a3, a4, 136
0x0000000080000498: 00 00 57 37 lui	a4, 5
0x000000008000049c: 01 01 06 93 addi	a3, sp, 16
0x00000000800004a0: 19 07 07 13 addi	a4, a4, 400
0x00000000800004a4: 00 d7 07 33 add	a4, a4, a3
0x00000000800004a8: ff ff d7 b7 lui	a5, 1048573
0x00000000800004ac: 00 f7 07 b3 add	a5, a4, a5
0x00000000800004b0: 80 00 07 37 lui	a4, 524288
0x00000000800004b4: 1a e7 a8 23 sw	a4, 432(a5)
0x00000000800004b8: 00 20 07 13 addi	a4, zero, 2
0x00000000800004bc: 1a e7 aa 23 sw	a4, 436(a5)
0x00000000800004c0: 1b 07 a6 83 lw	a3, 432(a5)
0x00000000800004c4: 1b 47 a6 03 lw	a2, 436(a5)
0x00000000800004c8: 80 00 07 37 lui	a4, 524288
0x00000000800004cc: 00 27 07 13 addi	a4, a4, 2
0x00000000800004d0: 00 d6 06 bb addw	a3, a2, a3
0x00000000800004d4: 08 e6 84 63 beq	a3, a4, 136
0x000000008000055c: 00 00 57 37 lui	a4, 5
0x0000000080000560: 01 01 06 93 addi	a3, sp, 16
0x0000000080000564: 19 07 07 13 addi	a4, a4, 400
0x0000000080000568: 00 d7 07 33 add	a4, a4, a3
0x000000008000056c: ff ff d7 b7 lui	a5, 1048573
0x0000000080000570: 00 f7 07 b3 add	a5, a4, a5
0x0000000080000574: 80 00 07 37 lui	a4, 524288
0x0000000080000578: 1a e7 ac 23 sw	a4, 440(a5)
0x000000008000057c: ff e7 47 13 xori	a4, a4, -2
0x0000000080000580: 1a e7 ae 23 sw	a4, 444(a5)
0x0000000080000584: 1b 87 a6 83 lw	a3, 440(a5)
0x0000000080000588: 1b c7 a6 03 lw	a2, 444(a5)
0x000000008000058c: ff e0 07 13 addi	a4, zero, -2
0x0000000080000590: 00 d6 06 bb addw	a3, a2, a3
0x0000000080000594: 08 e6 84 63 beq	a3, a4, 136
0x000000008000061c: 00 00 57 37 lui	a4, 5
0x0000000080000620: 01 01 06 93 addi	a3, sp, 16
0x0000000080000624: 19 07 07 13 addi	a4, a4, 400
0x0000000080000628: 00 d7 07 33 add	a4, a4, a3
0x000000008000062c: ff ff d7 b7 lui	a5, 1048573
0x0000000080000630: 00 f7 07 b3 add	a5, a4, a5
0x0000000080000634: 80 00 07 37 lui	a4, 524288
0x0000000080000638: 1c e7 a0 23 sw	a4, 448(a5)
0x000000008000063c: ff f7 47 13 not	a4, a4
0x0000000080000640: 1c e7 a2 23 sw	a4, 452(a5)
0x0000000080000644: 1c 07 a6 83 lw	a3, 448(a5)
0x0000000080000648: 1c 47 a6 03 lw	a2, 452(a5)
0x000000008000064c: ff f0 07 13 addi	a4, zero, -1
0x0000000080000650: 00 d6 06 bb addw	a3, a2, a3
0x0000000080000654: 08 e6 84 63 beq	a3, a4, 136
0x00000000800006dc: 00 00 57 37 lui	a4, 5
0x00000000800006e0: 01 01 06 93 addi	a3, sp, 16
0x00000000800006e4: 19 07 07 13 addi	a4, a4, 400
0x00000000800006e8: 00 d7 07 33 add	a4, a4, a3
0x00000000800006ec: ff ff d7 b7 lui	a5, 1048573
0x00000000800006f0: 00 f7 07 b3 add	a5, a4, a5
0x00000000800006f4: 80 00 07 37 lui	a4, 524288
0x00000000800006f8: 00 17 07 1b addiw	a4, a4, 1
0x00000000800006fc: 1c e7 a4 23 sw	a4, 456(a5)
0x0000000080000700: 1c e7 a6 23 sw	a4, 460(a5)
0x0000000080000704: 1c 87 a6 83 lw	a3, 456(a5)
0x0000000080000708: 1c c7 a6 03 lw	a2, 460(a5)
0x000000008000070c: 00 20 07 13 addi	a4, zero, 2
0x0000000080000710: 00 d6 06 bb addw	a3, a2, a3
0x0000000080000714: 08 e6 82 63 beq	a3, a4, 132
0x0000000080000798: 00 00 57 37 lui	a4, 5
0x000000008000079c: 01 01 06 93 addi	a3, sp, 16
0x00000000800007a0: 19 07 07 13 addi	a4, a4, 400
0x00000000800007a4: 00 d7 07 33 add	a4, a4, a3
0x00000000800007a8: ff ff d7 b7 lui	a5, 1048573
0x00000000800007ac: 00 f7 07 b3 add	a5, a4, a5
0x00000000800007b0: 80 00 07 37 lui	a4, 524288
0x00000000800007b4: 00 17 07 1b addiw	a4, a4, 1
0x00000000800007b8: 1c e7 a8 23 sw	a4, 464(a5)
0x00000000800007bc: ff e0 07 13 addi	a4, zero, -2
0x00000000800007c0: 1c e7 aa 23 sw	a4, 468(a5)
0x00000000800007c4: 1d 07 a6 83 lw	a3, 464(a5)
0x00000000800007c8: 1d 47 a6 03 lw	a2, 468(a5)
0x00000000800007cc: 80 00 07 37 lui	a4, 524288
0x00000000800007d0: ff f7 47 13 not	a4, a4
0x00000000800007d4: 00 d6 06 bb addw	a3, a2, a3
0x00000000800007d8: 08 e6 84 63 beq	a3, a4, 136
0x0000000080000860: 00 00 57 37 lui	a4, 5
0x0000000080000864: 01 01 06 93 addi	a3, sp, 16
0x0000000080000868: 19 07 07 13 addi	a4, a4, 400
0x000000008000086c: 00 d7 07 33 add	a4, a4, a3
0x0000000080000870: ff ff d7 b7 lui	a5, 1048573
0x0000000080000874: 00 f7 07 b3 add	a5, a4, a5
0x0000000080000878: 80 00 07 37 lui	a4, 524288
0x000000008000087c: 00 17 07 1b addiw	a4, a4, 1
0x0000000080000880: 1c e7 ac 23 sw	a4, 472(a5)
0x0000000080000884: ff f0 07 13 addi	a4, zero, -1
0x0000000080000888: 1c e7 ae 23 sw	a4, 476(a5)
0x000000008000088c: 1d 87 a6 83 lw	a3, 472(a5)
0x0000000080000890: 1d c7 a6 03 lw	a2, 476(a5)
0x0000000080000894: 80 00 07 37 lui	a4, 524288
0x0000000080000898: 00 d6 06 bb addw	a3, a2, a3
0x000000008000089c: 08 e6 84 63 beq	a3, a4, 136
0x0000000080000924: 00 00 57 37 lui	a4, 5
0x0000000080000928: 01 01 06 93 addi	a3, sp, 16
0x000000008000092c: 19 07 07 13 addi	a4, a4, 400
0x0000000080000930: 00 d7 07 33 add	a4, a4, a3
0x0000000080000934: ff ff d7 b7 lui	a5, 1048573
0x0000000080000938: 00 f7 07 b3 add	a5, a4, a5
0x000000008000093c: 80 00 07 37 lui	a4, 524288
0x0000000080000940: 00 17 07 1b addiw	a4, a4, 1
0x0000000080000944: 1e e7 a0 23 sw	a4, 480(a5)
0x0000000080000948: 1e 07 a2 23 sw	zero, 484(a5)
0x000000008000094c: 1e 07 a6 83 lw	a3, 480(a5)
0x0000000080000950: 1e 47 a6 03 lw	a2, 484(a5)
0x0000000080000954: 80 00 07 37 lui	a4, 524288
0x0000000080000958: 00 17 07 13 addi	a4, a4, 1
0x000000008000095c: 00 d6 06 bb addw	a3, a2, a3
0x0000000080000960: 08 e6 84 63 beq	a3, a4, 136
0x00000000800009e8: 00 00 57 37 lui	a4, 5
0x00000000800009ec: 01 01 06 93 addi	a3, sp, 16
0x00000000800009f0: 19 07 07 13 addi	a4, a4, 400
0x00000000800009f4: 00 d7 07 33 add	a4, a4, a3
0x00000000800009f8: ff ff d7 b7 lui	a5, 1048573
0x00000000800009fc: 00 f7 07 b3 add	a5, a4, a5
0x0000000080000a00: 80 00 07 37 lui	a4, 524288
0x0000000080000a04: 00 17 07 1b addiw	a4, a4, 1
0x0000000080000a08: 1e e7 a4 23 sw	a4, 488(a5)
0x0000000080000a0c: 00 10 07 13 addi	a4, zero, 1
0x0000000080000a10: 1e e7 a6 23 sw	a4, 492(a5)
0x0000000080000a14: 1e 87 a6 83 lw	a3, 488(a5)
0x0000000080000a18: 1e c7 a6 03 lw	a2, 492(a5)
0x0000000080000a1c: 80 00 07 37 lui	a4, 524288
0x0000000080000a20: 00 27 07 13 addi	a4, a4, 2
0x0000000080000a24: 00 d6 06 bb addw	a3, a2, a3
0x0000000080000a28: 08 e6 84 63 beq	a3, a4, 136
0x0000000080000ab0: 00 00 57 37 lui	a4, 5
0x0000000080000ab4: 01 01 06 93 addi	a3, sp, 16
0x0000000080000ab8: 19 07 07 13 addi	a4, a4, 400
0x0000000080000abc: 00 d7 07 33 add	a4, a4, a3
0x0000000080000ac0: ff ff d7 b7 lui	a5, 1048573
0x0000000080000ac4: 00 f7 07 b3 add	a5, a4, a5
0x0000000080000ac8: 80 00 07 37 lui	a4, 524288
0x0000000080000acc: 00 17 07 1b addiw	a4, a4, 1
0x0000000080000ad0: 1e e7 a8 23 sw	a4, 496(a5)
0x0000000080000ad4: 00 20 07 13 addi	a4, zero, 2
0x0000000080000ad8: 1e e7 aa 23 sw	a4, 500(a5)
0x0000000080000adc: 1f 07 a6 83 lw	a3, 496(a5)
0x0000000080000ae0: 1f 47 a6 03 lw	a2, 500(a5)
0x0000000080000ae4: 80 00 07 37 lui	a4, 524288
0x0000000080000ae8: 00 37 07 13 addi	a4, a4, 3
0x0000000080000aec: 00 d6 06 bb addw	a3, a2, a3
0x0000000080000af0: 08 e6 84 63 beq	a3, a4, 136
0x0000000080000b78: 00 00 56 b7 lui	a3, 5
0x0000000080000b7c: 01 01 06 13 addi	a2, sp, 16
0x0000000080000b80: 19 06 86 93 addi	a3, a3, 400
0x0000000080000b84: 00 c6 86 b3 add	a3, a3, a2
0x0000000080000b88: 80 00 07 37 lui	a4, 524288
0x0000000080000b8c: ff ff d7 b7 lui	a5, 1048573
0x0000000080000b90: 00 f6 87 b3 add	a5, a3, a5
0x0000000080000b94: 00 17 06 9b addiw	a3, a4, 1
0x0000000080000b98: 1e d7 ac 23 sw	a3, 504(a5)
0x0000000080000b9c: ff e7 47 13 xori	a4, a4, -2
0x0000000080000ba0: 1e e7 ae 23 sw	a4, 508(a5)
0x0000000080000ba4: 1f 87 a6 83 lw	a3, 504(a5)
0x0000000080000ba8: 1f c7 a6 03 lw	a2, 508(a5)
0x0000000080000bac: ff f0 07 13 addi	a4, zero, -1
0x0000000080000bb0: 00 d6 06 bb addw	a3, a2, a3
0x0000000080000bb4: 08 e6 84 63 beq	a3, a4, 136
0x0000000080000c3c: 00 00 56 b7 lui	a3, 5
0x0000000080000c40: 19 06 86 93 addi	a3, a3, 400
0x0000000080000c44: 01 01 06 13 addi	a2, sp, 16
0x0000000080000c48: 80 00 07 37 lui	a4, 524288
0x0000000080000c4c: 00 c6 86 b3 add	a3, a3, a2
0x0000000080000c50: ff ff d7 b7 lui	a5, 1048573
0x0000000080000c54: 00 f6 87 b3 add	a5, a3, a5
0x0000000080000c58: 00 17 06 9b addiw	a3, a4, 1
0x0000000080000c5c: 20 d7 a0 23 sw	a3, 512(a5)
0x0000000080000c60: ff f7 47 13 not	a4, a4
0x0000000080000c64: 20 e7 a2 23 sw	a4, 516(a5)
0x0000000080000c68: 20 07 a7 03 lw	a4, 512(a5)
0x0000000080000c6c: 20 47 a6 83 lw	a3, 516(a5)
0x0000000080000c70: 00 e6 87 3b addw	a4, a3, a4
0x0000000080000c74: 08 07 04 63 beqz	a4, 136
0x0000000080000cfc: 00 00 57 37 lui	a4, 5
0x0000000080000d00: 01 01 06 93 addi	a3, sp, 16
0x0000000080000d04: 19 07 07 13 addi	a4, a4, 400
0x0000000080000d08: 00 d7 07 33 add	a4, a4, a3
0x0000000080000d0c: ff ff d7 b7 lui	a5, 1048573
0x0000000080000d10: 00 f7 07 b3 add	a5, a4, a5
0x0000000080000d14: ff e0 07 13 addi	a4, zero, -2
0x0000000080000d18: 20 e7 a4 23 sw	a4, 520(a5)
0x0000000080000d1c: 20 e7 a6 23 sw	a4, 524(a5)
0x0000000080000d20: 20 87 a6 83 lw	a3, 520(a5)
0x0000000080000d24: 20 c7 a6 03 lw	a2, 524(a5)
0x0000000080000d28: ff c0 07 13 addi	a4, zero, -4
0x0000000080000d2c: 00 d6 06 bb addw	a3, a2, a3
0x0000000080000d30: 08 e6 82 63 beq	a3, a4, 132
0x0000000080000db4: 00 00 57 37 lui	a4, 5
0x0000000080000db8: 01 01 06 93 addi	a3, sp, 16
0x0000000080000dbc: 19 07 07 13 addi	a4, a4, 400
0x0000000080000dc0: 00 d7 07 33 add	a4, a4, a3
0x0000000080000dc4: ff ff d7 b7 lui	a5, 1048573
0x0000000080000dc8: 00 f7 07 b3 add	a5, a4, a5
0x0000000080000dcc: ff e0 07 13 addi	a4, zero, -2
0x0000000080000dd0: 20 e7 a8 23 sw	a4, 528(a5)
0x0000000080000dd4: ff f0 07 13 addi	a4, zero, -1
0x0000000080000dd8: 20 e7 aa 23 sw	a4, 532(a5)
0x0000000080000ddc: 21 07 a6 83 lw	a3, 528(a5)
0x0000000080000de0: 21 47 a6 03 lw	a2, 532(a5)
0x0000000080000de4: ff d0 07 13 addi	a4, zero, -3
0x0000000080000de8: 00 d6 06 bb addw	a3, a2, a3
0x0000000080000dec: 08 e6 82 63 beq	a3, a4, 132
0x0000000080000e70: 00 00 57 37 lui	a4, 5
0x0000000080000e74: 01 01 06 93 addi	a3, sp, 16
0x0000000080000e78: 19 07 07 13 addi	a4, a4, 400
0x0000000080000e7c: 00 d7 07 33 add	a4, a4, a3
0x0000000080000e80: ff ff d7 b7 lui	a5, 1048573
0x0000000080000e84: 00 f7 07 b3 add	a5, a4, a5
0x0000000080000e88: ff e0 07 13 addi	a4, zero, -2
0x0000000080000e8c: 20 e7 ac 23 sw	a4, 536(a5)
0x0000000080000e90: 20 07 ae 23 sw	zero, 540(a5)
0x0000000080000e94: 21 87 a6 83 lw	a3, 536(a5)
0x0000000080000e98: 21 c7 a6 03 lw	a2, 540(a5)
0x0000000080000e9c: ff e0 07 13 addi	a4, zero, -2
0x0000000080000ea0: 00 d6 06 bb addw	a3, a2, a3
0x0000000080000ea4: 08 e6 82 63 beq	a3, a4, 132
0x0000000080000f28: 00 00 57 37 lui	a4, 5
0x0000000080000f2c: 01 01 06 93 addi	a3, sp, 16
0x0000000080000f30: 19 07 07 13 addi	a4, a4, 400
0x0000000080000f34: 00 d7 07 33 add	a4, a4, a3
0x0000000080000f38: ff ff d7 b7 lui	a5, 1048573
0x0000000080000f3c: 00 f7 07 b3 add	a5, a4, a5
0x0000000080000f40: ff e0 07 13 addi	a4, zero, -2
0x0000000080000f44: 22 e7 a0 23 sw	a4, 544(a5)
0x0000000080000f48: 00 10 07 13 addi	a4, zero, 1
0x0000000080000f4c: 22 e7 a2 23 sw	a4, 548(a5)
0x0000000080000f50: 22 07 a6 83 lw	a3, 544(a5)
0x0000000080000f54: 22 47 a6 03 lw	a2, 548(a5)
0x0000000080000f58: ff f0 07 13 addi	a4, zero, -1
0x0000000080000f5c: 00 d6 06 bb addw	a3, a2, a3
0x0000000080000f60: 08 e6 82 63 beq	a3, a4, 132
0x0000000080000fe4: 00 00 57 37 lui	a4, 5
0x0000000080000fe8: 01 01 06 93 addi	a3, sp, 16
0x0000000080000fec: 19 07 07 13 addi	a4, a4, 400
0x0000000080000ff0: 00 d7 07 33 add	a4, a4, a3
0x0000000080000ff4: ff ff d7 b7 lui	a5, 1048573
0x0000000080000ff8: 00 f7 07 b3 add	a5, a4, a5
0x0000000080000ffc: ff e0 07 13 addi	a4, zero, -2
0x0000000080001000: 22 e7 a4 23 sw	a4, 552(a5)
0x0000000080001004: 00 20 07 13 addi	a4, zero, 2
0x0000000080001008: 22 e7 a6 23 sw	a4, 556(a5)
0x000000008000100c: 22 87 a7 03 lw	a4, 552(a5)
0x0000000080001010: 22 c7 a6 83 lw	a3, 556(a5)
0x0000000080001014: 00 e6 87 3b addw	a4, a3, a4
0x0000000080001018: 08 07 02 63 beqz	a4, 132
0x000000008000109c: 00 00 57 37 lui	a4, 5
0x00000000800010a0: 01 01 06 93 addi	a3, sp, 16
0x00000000800010a4: 19 07 07 13 addi	a4, a4, 400
0x00000000800010a8: 00 d7 07 33 add	a4, a4, a3
0x00000000800010ac: ff ff d7 b7 lui	a5, 1048573
0x00000000800010b0: 00 f7 07 b3 add	a5, a4, a5
0x00000000800010b4: ff e0 07 13 addi	a4, zero, -2
0x00000000800010b8: 22 e7 a8 23 sw	a4, 560(a5)
0x00000000800010bc: 80 00 07 37 lui	a4, 524288
0x00000000800010c0: ff e7 47 13 xori	a4, a4, -2
0x00000000800010c4: 22 e7 aa 23 sw	a4, 564(a5)
0x00000000800010c8: 23 07 a6 83 lw	a3, 560(a5)
0x00000000800010cc: 23 47 a6 03 lw	a2, 564(a5)
0x00000000800010d0: 80 00 07 37 lui	a4, 524288
0x00000000800010d4: ff c7 47 13 xori	a4, a4, -4
0x00000000800010d8: 00 d6 06 bb addw	a3, a2, a3
0x00000000800010dc: 08 e6 82 63 beq	a3, a4, 132
0x0000000080001160: 00 00 57 37 lui	a4, 5
0x0000000080001164: 01 01 06 93 addi	a3, sp, 16
0x0000000080001168: 19 07 07 13 addi	a4, a4, 400
0x000000008000116c: 00 d7 07 33 add	a4, a4, a3
0x0000000080001170: ff ff d7 b7 lui	a5, 1048573
0x0000000080001174: 00 f7 07 b3 add	a5, a4, a5
0x0000000080001178: ff e0 07 13 addi	a4, zero, -2
0x000000008000117c: 22 e7 ac 23 sw	a4, 568(a5)
0x0000000080001180: 80 00 07 37 lui	a4, 524288
0x0000000080001184: ff f7 47 13 not	a4, a4
0x0000000080001188: 22 e7 ae 23 sw	a4, 572(a5)
0x000000008000118c: 23 87 a6 83 lw	a3, 568(a5)
0x0000000080001190: 23 c7 a6 03 lw	a2, 572(a5)
0x0000000080001194: 80 00 07 37 lui	a4, 524288
0x0000000080001198: ff d7 47 13 xori	a4, a4, -3
0x000000008000119c: 00 d6 06 bb addw	a3, a2, a3
0x00000000800011a0: 08 e6 82 63 beq	a3, a4, 132
0x0000000080001224: 00 00 57 37 lui	a4, 5
0x0000000080001228: 01 01 06 93 addi	a3, sp, 16
0x000000008000122c: 19 07 07 13 addi	a4, a4, 400
0x0000000080001230: 00 d7 07 33 add	a4, a4, a3
0x0000000080001234: ff ff d7 b7 lui	a5, 1048573
0x0000000080001238: 00 f7 07 b3 add	a5, a4, a5
0x000000008000123c: ff f0 07 13 addi	a4, zero, -1
0x0000000080001240: 24 e7 a0 23 sw	a4, 576(a5)
0x0000000080001244: 24 e7 a2 23 sw	a4, 580(a5)
0x0000000080001248: 24 07 a6 83 lw	a3, 576(a5)
0x000000008000124c: 24 47 a6 03 lw	a2, 580(a5)
0x0000000080001250: ff e0 07 13 addi	a4, zero, -2
0x0000000080001254: 00 d6 06 bb addw	a3, a2, a3
0x0000000080001258: 08 e6 82 63 beq	a3, a4, 132
0x00000000800012dc: 00 00 57 37 lui	a4, 5
0x00000000800012e0: 01 01 06 93 addi	a3, sp, 16
0x00000000800012e4: 19 07 07 13 addi	a4, a4, 400
0x00000000800012e8: 00 d7 07 33 add	a4, a4, a3
0x00000000800012ec: ff ff d7 b7 lui	a5, 1048573
0x00000000800012f0: 00 f7 07 b3 add	a5, a4, a5
0x00000000800012f4: ff f0 07 13 addi	a4, zero, -1
0x00000000800012f8: 24 e7 a4 23 sw	a4, 584(a5)
0x00000000800012fc: 24 07 a6 23 sw	zero, 588(a5)
0x0000000080001300: 24 87 a6 83 lw	a3, 584(a5)
0x0000000080001304: 24 c7 a6 03 lw	a2, 588(a5)
0x0000000080001308: ff f0 07 13 addi	a4, zero, -1
0x000000008000130c: 00 d6 06 bb addw	a3, a2, a3
0x0000000080001310: 08 e6 82 63 beq	a3, a4, 132
0x0000000080001394: 00 00 57 37 lui	a4, 5
0x0000000080001398: 01 01 06 93 addi	a3, sp, 16
0x000000008000139c: 19 07 07 13 addi	a4, a4, 400
0x00000000800013a0: 00 d7 07 33 add	a4, a4, a3
0x00000000800013a4: ff ff d7 b7 lui	a5, 1048573
0x00000000800013a8: 00 f7 07 b3 add	a5, a4, a5
0x00000000800013ac: ff f0 07 13 addi	a4, zero, -1
0x00000000800013b0: 24 e7 a8 23 sw	a4, 592(a5)
0x00000000800013b4: 00 10 07 13 addi	a4, zero, 1
0x00000000800013b8: 24 e7 aa 23 sw	a4, 596(a5)
0x00000000800013bc: 25 07 a7 03 lw	a4, 592(a5)
0x00000000800013c0: 25 47 a6 83 lw	a3, 596(a5)
0x00000000800013c4: 00 e6 87 3b addw	a4, a3, a4
0x00000000800013c8: 08 07 02 63 beqz	a4, 132
0x000000008000144c: 00 00 57 37 lui	a4, 5
0x0000000080001450: 01 01 06 93 addi	a3, sp, 16
0x0000000080001454: 19 07 07 13 addi	a4, a4, 400
0x0000000080001458: 00 d7 07 33 add	a4, a4, a3
0x000000008000145c: ff ff d7 b7 lui	a5, 1048573
0x0000000080001460: 00 f7 07 b3 add	a5, a4, a5
0x0000000080001464: ff f0 07 13 addi	a4, zero, -1
0x0000000080001468: 24 e7 ac 23 sw	a4, 600(a5)
0x000000008000146c: 00 20 07 13 addi	a4, zero, 2
0x0000000080001470: 24 e7 ae 23 sw	a4, 604(a5)
0x0000000080001474: 25 87 a6 83 lw	a3, 600(a5)
0x0000000080001478: 25 c7 a6 03 lw	a2, 604(a5)
0x000000008000147c: 00 10 07 13 addi	a4, zero, 1
0x0000000080001480: 00 d6 06 bb addw	a3, a2, a3
0x0000000080001484: 08 e6 80 63 beq	a3, a4, 128
0x0000000080001504: 00 00 57 37 lui	a4, 5
0x0000000080001508: 01 01 06 93 addi	a3, sp, 16
0x000000008000150c: 19 07 07 13 addi	a4, a4, 400
0x0000000080001510: 00 d7 07 33 add	a4, a4, a3
0x0000000080001514: ff ff d7 b7 lui	a5, 1048573
0x0000000080001518: 00 f7 07 b3 add	a5, a4, a5
0x000000008000151c: ff f0 07 13 addi	a4, zero, -1
0x0000000080001520: 26 e7 a0 23 sw	a4, 608(a5)
0x0000000080001524: 80 00 07 37 lui	a4, 524288
0x0000000080001528: ff e7 47 13 xori	a4, a4, -2
0x000000008000152c: 26 e7 a2 23 sw	a4, 612(a5)
0x0000000080001530: 26 07 a6 83 lw	a3, 608(a5)
0x0000000080001534: 26 47 a6 03 lw	a2, 612(a5)
0x0000000080001538: 80 00 07 37 lui	a4, 524288
0x000000008000153c: ff d7 47 13 xori	a4, a4, -3
0x0000000080001540: 00 d6 06 bb addw	a3, a2, a3
0x0000000080001544: 08 e6 80 63 beq	a3, a4, 128
0x00000000800015c4: 00 00 57 37 lui	a4, 5
0x00000000800015c8: 01 01 06 93 addi	a3, sp, 16
0x00000000800015cc: 19 07 07 13 addi	a4, a4, 400
0x00000000800015d0: 00 d7 07 33 add	a4, a4, a3
0x00000000800015d4: ff ff d7 b7 lui	a5, 1048573
0x00000000800015d8: 00 f7 07 b3 add	a5, a4, a5
0x00000000800015dc: ff f0 07 13 addi	a4, zero, -1
0x00000000800015e0: 26 e7 a4 23 sw	a4, 616(a5)
0x00000000800015e4: 80 00 07 37 lui	a4, 524288
0x00000000800015e8: ff f7 47 13 not	a4, a4
0x00000000800015ec: 26 e7 a6 23 sw	a4, 620(a5)
0x00000000800015f0: 26 87 a6 83 lw	a3, 616(a5)
0x00000000800015f4: 26 c7 a6 03 lw	a2, 620(a5)
0x00000000800015f8: 80 00 07 37 lui	a4, 524288
0x00000000800015fc: ff e7 47 13 xori	a4, a4, -2
0x0000000080001600: 00 d6 06 bb addw	a3, a2, a3
0x0000000080001604: 08 e6 80 63 beq	a3, a4, 128
0x0000000080001684: 00 00 57 37 lui	a4, 5
0x0000000080001688: 01 01 06 93 addi	a3, sp, 16
0x000000008000168c: 19 07 07 13 addi	a4, a4, 400
0x0000000080001690: 00 d7 07 33 add	a4, a4, a3
0x0000000080001694: ff ff d7 b7 lui	a5, 1048573
0x0000000080001698: 00 f7 07 b3 add	a5, a4, a5
0x000000008000169c: 26 07 a8 23 sw	zero, 624(a5)
0x00000000800016a0: 26 07 aa 23 sw	zero, 628(a5)
0x00000000800016a4: 27 07 a7 03 lw	a4, 624(a5)
0x00000000800016a8: 27 47 a6 83 lw	a3, 628(a5)
0x00000000800016ac: 00 e6 87 3b addw	a4, a3, a4
0x00000000800016b0: 08 07 00 63 beqz	a4, 128
0x0000000080001730: 00 00 57 37 lui	a4, 5
0x0000000080001734: 01 01 06 93 addi	a3, sp, 16
0x0000000080001738: 19 07 07 13 addi	a4, a4, 400
0x000000008000173c: 00 d7 07 33 add	a4, a4, a3
0x0000000080001740: ff ff d7 b7 lui	a5, 1048573
0x0000000080001744: 00 f7 07 b3 add	a5, a4, a5
0x0000000080001748: 26 07 ac 23 sw	zero, 632(a5)
0x000000008000174c: 00 10 07 13 addi	a4, zero, 1
0x0000000080001750: 26 e7 ae 23 sw	a4, 636(a5)
0x0000000080001754: 27 87 a6 83 lw	a3, 632(a5)
0x0000000080001758: 27 c7 a6 03 lw	a2, 636(a5)
0x000000008000175c: 00 10 07 13 addi	a4, zero, 1
0x0000000080001760: 00 d6 06 bb addw	a3, a2, a3
0x0000000080001764: 08 e6 80 63 beq	a3, a4, 128
0x00000000800017e4: 00 00 57 37 lui	a4, 5
0x00000000800017e8: 01 01 06 93 addi	a3, sp, 16
0x00000000800017ec: 19 07 07 13 addi	a4, a4, 400
0x00000000800017f0: 00 d7 07 33 add	a4, a4, a3
0x00000000800017f4: ff ff d7 b7 lui	a5, 1048573
0x00000000800017f8: 00 f7 07 b3 add	a5, a4, a5
0x00000000800017fc: 28 07 a0 23 sw	zero, 640(a5)
0x0000000080001800: 00 20 07 13 addi	a4, zero, 2
0x0000000080001804: 28 e7 a2 23 sw	a4, 644(a5)
0x0000000080001808: 28 07 a6 83 lw	a3, 640(a5)
0x000000008000180c: 28 47 a6 03 lw	a2, 644(a5)
0x0000000080001810: 00 20 07 13 addi	a4, zero, 2
0x0000000080001814: 00 d6 06 bb addw	a3, a2, a3
0x0000000080001818: 08 e6 80 63 beq	a3, a4, 128
0x0000000080001898: 00 00 57 37 lui	a4, 5
0x000000008000189c: 01 01 06 93 addi	a3, sp, 16
0x00000000800018a0: 19 07 07 13 addi	a4, a4, 400
0x00000000800018a4: 00 d7 07 33 add	a4, a4, a3
0x00000000800018a8: ff ff d7 b7 lui	a5, 1048573
0x00000000800018ac: 00 f7 07 b3 add	a5, a4, a5
0x00000000800018b0: 80 00 07 37 lui	a4, 524288
0x00000000800018b4: 28 07 a4 23 sw	zero, 648(a5)
0x00000000800018b8: ff e7 47 13 xori	a4, a4, -2
0x00000000800018bc: 28 e7 a6 23 sw	a4, 652(a5)
0x00000000800018c0: 28 87 a6 83 lw	a3, 648(a5)
0x00000000800018c4: 28 c7 a6 03 lw	a2, 652(a5)
0x00000000800018c8: 80 00 07 37 lui	a4, 524288
0x00000000800018cc: ff e7 47 13 xori	a4, a4, -2
0x00000000800018d0: 00 d6 06 bb addw	a3, a2, a3
0x00000000800018d4: 08 e6 82 63 beq	a3, a4, 132
0x0000000080001958: 00 00 57 37 lui	a4, 5
0x000000008000195c: 01 01 06 93 addi	a3, sp, 16
0x0000000080001960: 19 07 07 13 addi	a4, a4, 400
0x0000000080001964: 00 d7 07 33 add	a4, a4, a3
0x0000000080001968: ff ff d7 b7 lui	a5, 1048573
0x000000008000196c: 00 f7 07 b3 add	a5, a4, a5
0x0000000080001970: 80 00 07 37 lui	a4, 524288
0x0000000080001974: 28 07 a8 23 sw	zero, 656(a5)
0x0000000080001978: ff f7 47 13 not	a4, a4
0x000000008000197c: 28 e7 aa 23 sw	a4, 660(a5)
0x0000000080001980: 29 07 a6 83 lw	a3, 656(a5)
0x0000000080001984: 29 47 a6 03 lw	a2, 660(a5)
0x0000000080001988: 80 00 07 37 lui	a4, 524288
0x000000008000198c: ff f7 47 13 not	a4, a4
0x0000000080001990: 00 d6 06 bb addw	a3, a2, a3
0x0000000080001994: 08 e6 82 63 beq	a3, a4, 132
0x0000000080001a18: 00 00 57 37 lui	a4, 5
0x0000000080001a1c: 01 01 06 93 addi	a3, sp, 16
0x0000000080001a20: 19 07 07 13 addi	a4, a4, 400
0x0000000080001a24: 00 d7 07 33 add	a4, a4, a3
0x0000000080001a28: ff ff d7 b7 lui	a5, 1048573
0x0000000080001a2c: 00 f7 07 b3 add	a5, a4, a5
0x0000000080001a30: 00 10 07 13 addi	a4, zero, 1
0x0000000080001a34: 28 e7 ac 23 sw	a4, 664(a5)
0x0000000080001a38: 28 e7 ae 23 sw	a4, 668(a5)
0x0000000080001a3c: 29 87 a6 83 lw	a3, 664(a5)
0x0000000080001a40: 29 c7 a6 03 lw	a2, 668(a5)
0x0000000080001a44: 00 20 07 13 addi	a4, zero, 2
0x0000000080001a48: 00 d6 06 bb addw	a3, a2, a3
0x0000000080001a4c: 08 e6 80 63 beq	a3, a4, 128
0x0000000080001acc: 00 00 57 37 lui	a4, 5
0x0000000080001ad0: 01 01 06 93 addi	a3, sp, 16
0x0000000080001ad4: 19 07 07 13 addi	a4, a4, 400
0x0000000080001ad8: 00 d7 07 33 add	a4, a4, a3
0x0000000080001adc: ff ff d7 b7 lui	a5, 1048573
0x0000000080001ae0: 00 f7 07 b3 add	a5, a4, a5
0x0000000080001ae4: 00 10 07 13 addi	a4, zero, 1
0x0000000080001ae8: 2a e7 a0 23 sw	a4, 672(a5)
0x0000000080001aec: 00 20 07 13 addi	a4, zero, 2
0x0000000080001af0: 2a e7 a2 23 sw	a4, 676(a5)
0x0000000080001af4: 2a 07 a6 83 lw	a3, 672(a5)
0x0000000080001af8: 2a 47 a6 03 lw	a2, 676(a5)
0x0000000080001afc: 00 30 07 13 addi	a4, zero, 3
0x0000000080001b00: 00 d6 06 bb addw	a3, a2, a3
0x0000000080001b04: 08 e6 80 63 beq	a3, a4, 128
0x0000000080001b84: 00 00 57 37 lui	a4, 5
0x0000000080001b88: 01 01 06 93 addi	a3, sp, 16
0x0000000080001b8c: 19 07 07 13 addi	a4, a4, 400
0x0000000080001b90: 00 d7 07 33 add	a4, a4, a3
0x0000000080001b94: ff ff d7 b7 lui	a5, 1048573
0x0000000080001b98: 00 f7 07 b3 add	a5, a4, a5
0x0000000080001b9c: 00 10 07 13 addi	a4, zero, 1
0x0000000080001ba0: 2a e7 a4 23 sw	a4, 680(a5)
0x0000000080001ba4: 80 00 07 37 lui	a4, 524288
0x0000000080001ba8: ff e7 47 13 xori	a4, a4, -2
0x0000000080001bac: 2a e7 a6 23 sw	a4, 684(a5)
0x0000000080001bb0: 2a 87 a6 83 lw	a3, 680(a5)
0x0000000080001bb4: 2a c7 a6 03 lw	a2, 684(a5)
0x0000000080001bb8: 80 00 07 37 lui	a4, 524288
0x0000000080001bbc: ff f7 47 13 not	a4, a4
0x0000000080001bc0: 00 d6 06 bb addw	a3, a2, a3
0x0000000080001bc4: 08 e6 80 63 beq	a3, a4, 128
0x0000000080001c44: 00 00 57 37 lui	a4, 5
0x0000000080001c48: 01 01 06 93 addi	a3, sp, 16
0x0000000080001c4c: 19 07 07 13 addi	a4, a4, 400
0x0000000080001c50: 00 d7 07 33 add	a4, a4, a3
0x0000000080001c54: ff ff d7 b7 lui	a5, 1048573
0x0000000080001c58: 00 f7 07 b3 add	a5, a4, a5
0x0000000080001c5c: 00 10 07 13 addi	a4, zero, 1
0x0000000080001c60: 2a e7 a8 23 sw	a4, 688(a5)
0x0000000080001c64: 80 00 07 37 lui	a4, 524288
0x0000000080001c68: ff f7 47 13 not	a4, a4
0x0000000080001c6c: 2a e7 aa 23 sw	a4, 692(a5)
0x0000000080001c70: 2b 07 a6 83 lw	a3, 688(a5)
0x0000000080001c74: 2b 47 a6 03 lw	a2, 692(a5)
0x0000000080001c78: 80 00 07 37 lui	a4, 524288
0x0000000080001c7c: 00 d6 06 bb addw	a3, a2, a3
0x0000000080001c80: 08 e6 82 63 beq	a3, a4, 132
0x0000000080001d04: 00 00 57 37 lui	a4, 5
0x0000000080001d08: 01 01 06 93 addi	a3, sp, 16
0x0000000080001d0c: 19 07 07 13 addi	a4, a4, 400
0x0000000080001d10: 00 d7 07 33 add	a4, a4, a3
0x0000000080001d14: ff ff d7 b7 lui	a5, 1048573
0x0000000080001d18: 00 f7 07 b3 add	a5, a4, a5
0x0000000080001d1c: 00 20 07 13 addi	a4, zero, 2
0x0000000080001d20: 2a e7 ac 23 sw	a4, 696(a5)
0x0000000080001d24: 2a e7 ae 23 sw	a4, 700(a5)
0x0000000080001d28: 2b 87 a6 83 lw	a3, 696(a5)
0x0000000080001d2c: 2b c7 a6 03 lw	a2, 700(a5)
0x0000000080001d30: 00 40 07 13 addi	a4, zero, 4
0x0000000080001d34: 00 d6 06 bb addw	a3, a2, a3
0x0000000080001d38: 08 e6 80 63 beq	a3, a4, 128
0x0000000080001db8: 00 00 57 37 lui	a4, 5
0x0000000080001dbc: 01 01 06 93 addi	a3, sp, 16
0x0000000080001dc0: 19 07 07 13 addi	a4, a4, 400
0x0000000080001dc4: 00 d7 07 33 add	a4, a4, a3
0x0000000080001dc8: ff ff d7 b7 lui	a5, 1048573
0x0000000080001dcc: 00 f7 07 b3 add	a5, a4, a5
0x0000000080001dd0: 00 20 07 13 addi	a4, zero, 2
0x0000000080001dd4: 2c e7 a0 23 sw	a4, 704(a5)
0x0000000080001dd8: 80 00 07 37 lui	a4, 524288
0x0000000080001ddc: ff e7 47 13 xori	a4, a4, -2
0x0000000080001de0: 2c e7 a2 23 sw	a4, 708(a5)
0x0000000080001de4: 2c 07 a6 83 lw	a3, 704(a5)
0x0000000080001de8: 2c 47 a6 03 lw	a2, 708(a5)
0x0000000080001dec: 80 00 07 37 lui	a4, 524288
0x0000000080001df0: 00 d6 06 bb addw	a3, a2, a3
0x0000000080001df4: 08 e6 82 63 beq	a3, a4, 132
0x0000000080001e78: 00 00 57 37 lui	a4, 5
0x0000000080001e7c: 01 01 06 93 addi	a3, sp, 16
0x0000000080001e80: 19 07 07 13 addi	a4, a4, 400
0x0000000080001e84: 00 d7 07 33 add	a4, a4, a3
0x0000000080001e88: ff ff d7 b7 lui	a5, 1048573
0x0000000080001e8c: 00 f7 07 b3 add	a5, a4, a5
0x0000000080001e90: 00 20 07 13 addi	a4, zero, 2
0x0000000080001e94: 2c e7 a4 23 sw	a4, 712(a5)
0x0000000080001e98: 80 00 07 37 lui	a4, 524288
0x0000000080001e9c: ff f7 47 13 not	a4, a4
0x0000000080001ea0: 2c e7 a6 23 sw	a4, 716(a5)
0x0000000080001ea4: 2c 87 a6 83 lw	a3, 712(a5)
0x0000000080001ea8: 2c c7 a6 03 lw	a2, 716(a5)
0x0000000080001eac: 80 00 07 37 lui	a4, 524288
0x0000000080001eb0: 00 17 07 13 addi	a4, a4, 1
0x0000000080001eb4: 00 d6 06 bb addw	a3, a2, a3
0x0000000080001eb8: 08 e6 80 63 beq	a3, a4, 128
0x0000000080001f38: 00 00 57 37 lui	a4, 5
0x0000000080001f3c: 01 01 06 93 addi	a3, sp, 16
0x0000000080001f40: 19 07 07 13 addi	a4, a4, 400
0x0000000080001f44: 00 d7 07 33 add	a4, a4, a3
0x0000000080001f48: ff ff d7 b7 lui	a5, 1048573
0x0000000080001f4c: 00 f7 07 b3 add	a5, a4, a5
0x0000000080001f50: 80 00 07 37 lui	a4, 524288
0x0000000080001f54: ff e7 47 13 xori	a4, a4, -2
0x0000000080001f58: 2c e7 a8 23 sw	a4, 720(a5)
0x0000000080001f5c: 2c e7 aa 23 sw	a4, 724(a5)
0x0000000080001f60: 2d 07 a6 83 lw	a3, 720(a5)
0x0000000080001f64: 2d 47 a6 03 lw	a2, 724(a5)
0x0000000080001f68: ff c0 07 13 addi	a4, zero, -4
0x0000000080001f6c: 00 d6 06 bb addw	a3, a2, a3
0x0000000080001f70: 08 e6 80 63 beq	a3, a4, 128
0x0000000080001ff0: 00 00 56 b7 lui	a3, 5
0x0000000080001ff4: 01 01 06 13 addi	a2, sp, 16
0x0000000080001ff8: 19 06 86 93 addi	a3, a3, 400
0x0000000080001ffc: 00 c6 86 b3 add	a3, a3, a2
0x0000000080002000: 80 00 07 37 lui	a4, 524288
0x0000000080002004: ff ff d7 b7 lui	a5, 1048573
0x0000000080002008: 00 f6 87 b3 add	a5, a3, a5
0x000000008000200c: ff e7 46 93 xori	a3, a4, -2
0x0000000080002010: 2c d7 ac 23 sw	a3, 728(a5)
0x0000000080002014: ff f7 47 13 not	a4, a4
0x0000000080002018: 2c e7 ae 23 sw	a4, 732(a5)
0x000000008000201c: 2d 87 a6 83 lw	a3, 728(a5)
0x0000000080002020: 2d c7 a6 03 lw	a2, 732(a5)
0x0000000080002024: ff d0 07 13 addi	a4, zero, -3
0x0000000080002028: 00 d6 06 bb addw	a3, a2, a3
0x000000008000202c: 08 e6 82 63 beq	a3, a4, 132
0x00000000800020b0: 00 00 57 37 lui	a4, 5
0x00000000800020b4: 01 01 06 93 addi	a3, sp, 16
0x00000000800020b8: 19 07 07 13 addi	a4, a4, 400
0x00000000800020bc: 00 d7 07 33 add	a4, a4, a3
0x00000000800020c0: ff ff d7 b7 lui	a5, 1048573
0x00000000800020c4: 00 f7 07 b3 add	a5, a4, a5
0x00000000800020c8: 80 00 07 37 lui	a4, 524288
0x00000000800020cc: ff f7 47 13 not	a4, a4
0x00000000800020d0: 2e e7 a0 23 sw	a4, 736(a5)
0x00000000800020d4: 2e e7 a2 23 sw	a4, 740(a5)
0x00000000800020d8: 2e 07 a6 83 lw	a3, 736(a5)
0x00000000800020dc: 2e 47 a6 03 lw	a2, 740(a5)
0x00000000800020e0: ff e0 07 13 addi	a4, zero, -2
0x00000000800020e4: 00 d6 06 bb addw	a3, a2, a3
0x00000000800020e8: 08 e6 80 63 beq	a3, a4, 128
0x0000000080002168: 00 00 57 37 lui	a4, 5
0x000000008000216c: 01 01 06 93 addi	a3, sp, 16
0x0000000080002170: 19 07 07 13 addi	a4, a4, 400
0x0000000080002174: 00 d7 07 33 add	a4, a4, a3
0x0000000080002178: ff ff d7 b7 lui	a5, 1048573
0x000000008000217c: 00 f7 07 b3 add	a5, a4, a5
0x0000000080002180: 80 00 07 37 lui	a4, 524288
0x0000000080002184: 2e e7 a4 23 sw	a4, 744(a5)
0x0000000080002188: 2e e7 a6 23 sw	a4, 748(a5)
0x000000008000218c: 2e 87 a6 83 lw	a3, 744(a5)
0x0000000080002190: 2e c7 a7 03 lw	a4, 748(a5)
0x0000000080002194: 00 06 86 9b sext.w	a3, a3
0x0000000080002198: 00 07 07 1b sext.w	a4, a4
0x000000008000219c: 08 e6 80 63 beq	a3, a4, 128
0x000000008000221c: 00 00 57 37 lui	a4, 5
0x0000000080002220: 01 01 06 93 addi	a3, sp, 16
0x0000000080002224: 19 07 07 13 addi	a4, a4, 400
0x0000000080002228: 00 d7 07 33 add	a4, a4, a3
0x000000008000222c: ff ff d7 b7 lui	a5, 1048573
0x0000000080002230: 00 f7 07 b3 add	a5, a4, a5
0x0000000080002234: 80 00 07 37 lui	a4, 524288
0x0000000080002238: 2e e7 a8 23 sw	a4, 752(a5)
0x000000008000223c: 00 17 07 1b addiw	a4, a4, 1
0x0000000080002240: 2e e7 aa 23 sw	a4, 756(a5)
0x0000000080002244: 2f 07 a6 03 lw	a2, 752(a5)
0x0000000080002248: 2f 47 a6 83 lw	a3, 756(a5)
0x000000008000224c: ff f0 07 13 addi	a4, zero, -1
0x0000000080002250: 40 d6 06 bb subw	a3, a2, a3
0x0000000080002254: 08 e6 80 63 beq	a3, a4, 128
0x00000000800022d4: 00 00 57 37 lui	a4, 5
0x00000000800022d8: 01 01 06 93 addi	a3, sp, 16
0x00000000800022dc: 19 07 07 13 addi	a4, a4, 400
0x00000000800022e0: 00 d7 07 33 add	a4, a4, a3
0x00000000800022e4: ff ff d7 b7 lui	a5, 1048573
0x00000000800022e8: 00 f7 07 b3 add	a5, a4, a5
0x00000000800022ec: 80 00 07 37 lui	a4, 524288
0x00000000800022f0: 2e e7 ac 23 sw	a4, 760(a5)
0x00000000800022f4: ff e0 07 13 addi	a4, zero, -2
0x00000000800022f8: 2e e7 ae 23 sw	a4, 764(a5)
0x00000000800022fc: 2f 87 a6 03 lw	a2, 760(a5)
0x0000000080002300: 2f c7 a6 83 lw	a3, 764(a5)
0x0000000080002304: 80 00 07 37 lui	a4, 524288
0x0000000080002308: 00 27 07 13 addi	a4, a4, 2
0x000000008000230c: 40 d6 06 bb subw	a3, a2, a3
0x0000000080002310: 08 e6 80 63 beq	a3, a4, 128
0x0000000080002390: 00 00 57 37 lui	a4, 5
0x0000000080002394: 01 01 06 93 addi	a3, sp, 16
0x0000000080002398: 19 07 07 13 addi	a4, a4, 400
0x000000008000239c: 00 d7 07 33 add	a4, a4, a3
0x00000000800023a0: ff ff d7 b7 lui	a5, 1048573
0x00000000800023a4: 00 f7 07 b3 add	a5, a4, a5
0x00000000800023a8: 80 00 07 37 lui	a4, 524288
0x00000000800023ac: 30 e7 a0 23 sw	a4, 768(a5)
0x00000000800023b0: ff f0 07 13 addi	a4, zero, -1
0x00000000800023b4: 30 e7 a2 23 sw	a4, 772(a5)
0x00000000800023b8: 30 07 a6 03 lw	a2, 768(a5)
0x00000000800023bc: 30 47 a6 83 lw	a3, 772(a5)
0x00000000800023c0: 80 00 07 37 lui	a4, 524288
0x00000000800023c4: 00 17 07 13 addi	a4, a4, 1
0x00000000800023c8: 40 d6 06 bb subw	a3, a2, a3
0x00000000800023cc: 08 e6 80 63 beq	a3, a4, 128
0x000000008000244c: 00 00 57 37 lui	a4, 5
0x0000000080002450: 01 01 06 93 addi	a3, sp, 16
0x0000000080002454: 19 07 07 13 addi	a4, a4, 400
0x0000000080002458: 00 d7 07 33 add	a4, a4, a3
0x000000008000245c: ff ff d7 b7 lui	a5, 1048573
0x0000000080002460: 00 f7 07 b3 add	a5, a4, a5
0x0000000080002464: 80 00 07 37 lui	a4, 524288
0x0000000080002468: 30 e7 a4 23 sw	a4, 776(a5)
0x000000008000246c: 30 07 a6 23 sw	zero, 780(a5)
0x0000000080002470: 30 87 a6 03 lw	a2, 776(a5)
0x0000000080002474: 30 c7 a6 83 lw	a3, 780(a5)
0x0000000080002478: 80 00 07 37 lui	a4, 524288
0x000000008000247c: 40 d6 06 bb subw	a3, a2, a3
0x0000000080002480: 06 e6 8e 63 beq	a3, a4, 124
0x00000000800024fc: 00 00 57 37 lui	a4, 5
0x0000000080002500: 01 01 06 93 addi	a3, sp, 16
0x0000000080002504: 19 07 07 13 addi	a4, a4, 400
0x0000000080002508: 00 d7 07 33 add	a4, a4, a3
0x000000008000250c: ff ff d7 b7 lui	a5, 1048573
0x0000000080002510: 00 f7 07 b3 add	a5, a4, a5
0x0000000080002514: 80 00 07 37 lui	a4, 524288
0x0000000080002518: 30 e7 a8 23 sw	a4, 784(a5)
0x000000008000251c: 00 10 07 13 addi	a4, zero, 1
0x0000000080002520: 30 e7 aa 23 sw	a4, 788(a5)
0x0000000080002524: 31 07 a6 03 lw	a2, 784(a5)
0x0000000080002528: 31 47 a6 83 lw	a3, 788(a5)
0x000000008000252c: 80 00 07 37 lui	a4, 524288
0x0000000080002530: ff f7 47 13 not	a4, a4
0x0000000080002534: 40 d6 06 bb subw	a3, a2, a3
0x0000000080002538: 08 e6 80 63 beq	a3, a4, 128
0x00000000800025b8: 00 00 57 37 lui	a4, 5
0x00000000800025bc: 01 01 06 93 addi	a3, sp, 16
0x00000000800025c0: 19 07 07 13 addi	a4, a4, 400
0x00000000800025c4: 00 d7 07 33 add	a4, a4, a3
0x00000000800025c8: ff ff d7 b7 lui	a5, 1048573
0x00000000800025cc: 00 f7 07 b3 add	a5, a4, a5
0x00000000800025d0: 80 00 07 37 lui	a4, 524288
0x00000000800025d4: 30 e7 ac 23 sw	a4, 792(a5)
0x00000000800025d8: 00 20 07 13 addi	a4, zero, 2
0x00000000800025dc: 30 e7 ae 23 sw	a4, 796(a5)
0x00000000800025e0: 31 87 a6 03 lw	a2, 792(a5)
0x00000000800025e4: 31 c7 a6 83 lw	a3, 796(a5)
0x00000000800025e8: 80 00 07 37 lui	a4, 524288
0x00000000800025ec: ff e7 47 13 xori	a4, a4, -2
0x00000000800025f0: 40 d6 06 bb subw	a3, a2, a3
0x00000000800025f4: 08 e6 80 63 beq	a3, a4, 128
0x0000000080002674: 00 00 57 37 lui	a4, 5
0x0000000080002678: 01 01 06 93 addi	a3, sp, 16
0x000000008000267c: 19 07 07 13 addi	a4, a4, 400
0x0000000080002680: 00 d7 07 33 add	a4, a4, a3
0x0000000080002684: ff ff d7 b7 lui	a5, 1048573
0x0000000080002688: 00 f7 07 b3 add	a5, a4, a5
0x000000008000268c: 80 00 07 37 lui	a4, 524288
0x0000000080002690: 32 e7 a0 23 sw	a4, 800(a5)
0x0000000080002694: ff e7 47 13 xori	a4, a4, -2
0x0000000080002698: 32 e7 a2 23 sw	a4, 804(a5)
0x000000008000269c: 32 07 a6 03 lw	a2, 800(a5)
0x00000000800026a0: 32 47 a6 83 lw	a3, 804(a5)
0x00000000800026a4: 00 20 07 13 addi	a4, zero, 2
0x00000000800026a8: 40 d6 06 bb subw	a3, a2, a3
0x00000000800026ac: 08 e6 80 63 beq	a3, a4, 128
0x000000008000272c: 00 00 57 37 lui	a4, 5
0x0000000080002730: 01 01 06 93 addi	a3, sp, 16
0x0000000080002734: 19 07 07 13 addi	a4, a4, 400
0x0000000080002738: 00 d7 07 33 add	a4, a4, a3
0x000000008000273c: ff ff d7 b7 lui	a5, 1048573
0x0000000080002740: 00 f7 07 b3 add	a5, a4, a5
0x0000000080002744: 80 00 07 37 lui	a4, 524288
0x0000000080002748: 32 e7 a4 23 sw	a4, 808(a5)
0x000000008000274c: ff f7 47 13 not	a4, a4
0x0000000080002750: 32 e7 a6 23 sw	a4, 812(a5)
0x0000000080002754: 32 87 a6 03 lw	a2, 808(a5)
0x0000000080002758: 32 c7 a6 83 lw	a3, 812(a5)
0x000000008000275c: 00 10 07 13 addi	a4, zero, 1
0x0000000080002760: 40 d6 06 bb subw	a3, a2, a3
0x0000000080002764: 08 e6 80 63 beq	a3, a4, 128
0x00000000800027e4: 00 00 57 37 lui	a4, 5
0x00000000800027e8: 01 01 06 93 addi	a3, sp, 16
0x00000000800027ec: 19 07 07 13 addi	a4, a4, 400
0x00000000800027f0: 00 d7 07 33 add	a4, a4, a3
0x00000000800027f4: ff ff d7 b7 lui	a5, 1048573
0x00000000800027f8: 00 f7 07 b3 add	a5, a4, a5
0x00000000800027fc: 80 00 07 37 lui	a4, 524288
0x0000000080002800: 00 17 07 1b addiw	a4, a4, 1
0x0000000080002804: 32 e7 a8 23 sw	a4, 816(a5)
0x0000000080002808: 32 e7 aa 23 sw	a4, 820(a5)
0x000000008000280c: 33 07 a6 83 lw	a3, 816(a5)
0x0000000080002810: 33 47 a7 03 lw	a4, 820(a5)
0x0000000080002814: 00 06 86 9b sext.w	a3, a3
0x0000000080002818: 00 07 07 1b sext.w	a4, a4
0x000000008000281c: 08 e6 82 63 beq	a3, a4, 132
0x00000000800028a0: 00 00 57 37 lui	a4, 5
0x00000000800028a4: 01 01 06 93 addi	a3, sp, 16
0x00000000800028a8: 19 07 07 13 addi	a4, a4, 400
0x00000000800028ac: 00 d7 07 33 add	a4, a4, a3
0x00000000800028b0: ff ff d7 b7 lui	a5, 1048573
0x00000000800028b4: 00 f7 07 b3 add	a5, a4, a5
0x00000000800028b8: 80 00 07 37 lui	a4, 524288
0x00000000800028bc: 00 17 07 1b addiw	a4, a4, 1
0x00000000800028c0: 32 e7 ac 23 sw	a4, 824(a5)
0x00000000800028c4: ff e0 07 13 addi	a4, zero, -2
0x00000000800028c8: 32 e7 ae 23 sw	a4, 828(a5)
0x00000000800028cc: 33 87 a6 03 lw	a2, 824(a5)
0x00000000800028d0: 33 c7 a6 83 lw	a3, 828(a5)
0x00000000800028d4: 80 00 07 37 lui	a4, 524288
0x00000000800028d8: 00 37 07 13 addi	a4, a4, 3
0x00000000800028dc: 40 d6 06 bb subw	a3, a2, a3
0x00000000800028e0: 08 e6 80 63 beq	a3, a4, 128
0x0000000080002960: 00 00 57 37 lui	a4, 5
0x0000000080002964: 01 01 06 93 addi	a3, sp, 16
0x0000000080002968: 19 07 07 13 addi	a4, a4, 400
0x000000008000296c: 00 d7 07 33 add	a4, a4, a3
0x0000000080002970: ff ff d7 b7 lui	a5, 1048573
0x0000000080002974: 00 f7 07 b3 add	a5, a4, a5
0x0000000080002978: 80 00 07 37 lui	a4, 524288
0x000000008000297c: 00 17 07 1b addiw	a4, a4, 1
0x0000000080002980: 34 e7 a0 23 sw	a4, 832(a5)
0x0000000080002984: ff f0 07 13 addi	a4, zero, -1
0x0000000080002988: 34 e7 a2 23 sw	a4, 836(a5)
0x000000008000298c: 34 07 a6 03 lw	a2, 832(a5)
0x0000000080002990: 34 47 a6 83 lw	a3, 836(a5)
0x0000000080002994: 80 00 07 37 lui	a4, 524288
0x0000000080002998: 00 27 07 13 addi	a4, a4, 2
0x000000008000299c: 40 d6 06 bb subw	a3, a2, a3
0x00000000800029a0: 08 e6 80 63 beq	a3, a4, 128
0x0000000080002a20: 00 00 57 37 lui	a4, 5
0x0000000080002a24: 01 01 06 93 addi	a3, sp, 16
0x0000000080002a28: 19 07 07 13 addi	a4, a4, 400
0x0000000080002a2c: 00 d7 07 33 add	a4, a4, a3
0x0000000080002a30: ff ff d7 b7 lui	a5, 1048573
0x0000000080002a34: 00 f7 07 b3 add	a5, a4, a5
0x0000000080002a38: 80 00 07 37 lui	a4, 524288
0x0000000080002a3c: 00 17 07 1b addiw	a4, a4, 1
0x0000000080002a40: 34 e7 a4 23 sw	a4, 840(a5)
0x0000000080002a44: 34 07 a6 23 sw	zero, 844(a5)
0x0000000080002a48: 34 87 a6 03 lw	a2, 840(a5)
0x0000000080002a4c: 34 c7 a6 83 lw	a3, 844(a5)
0x0000000080002a50: 80 00 07 37 lui	a4, 524288
0x0000000080002a54: 00 17 07 13 addi	a4, a4, 1
0x0000000080002a58: 40 d6 06 bb subw	a3, a2, a3
0x0000000080002a5c: 08 e6 80 63 beq	a3, a4, 128
0x0000000080002adc: 00 00 57 37 lui	a4, 5
0x0000000080002ae0: 01 01 06 93 addi	a3, sp, 16
0x0000000080002ae4: 19 07 07 13 addi	a4, a4, 400
0x0000000080002ae8: 00 d7 07 33 add	a4, a4, a3
0x0000000080002aec: ff ff d7 b7 lui	a5, 1048573
0x0000000080002af0: 00 f7 07 b3 add	a5, a4, a5
0x0000000080002af4: 80 00 07 37 lui	a4, 524288
0x0000000080002af8: 00 17 07 1b addiw	a4, a4, 1
0x0000000080002afc: 34 e7 a8 23 sw	a4, 848(a5)
0x0000000080002b00: 00 10 07 13 addi	a4, zero, 1
0x0000000080002b04: 34 e7 aa 23 sw	a4, 852(a5)
0x0000000080002b08: 35 07 a6 03 lw	a2, 848(a5)
0x0000000080002b0c: 35 47 a6 83 lw	a3, 852(a5)
0x0000000080002b10: 80 00 07 37 lui	a4, 524288
0x0000000080002b14: 40 d6 06 bb subw	a3, a2, a3
0x0000000080002b18: 08 e6 80 63 beq	a3, a4, 128
0x0000000080002b98: 00 00 57 37 lui	a4, 5
0x0000000080002b9c: 01 01 06 93 addi	a3, sp, 16
0x0000000080002ba0: 19 07 07 13 addi	a4, a4, 400
0x0000000080002ba4: 00 d7 07 33 add	a4, a4, a3
0x0000000080002ba8: ff ff d7 b7 lui	a5, 1048573
0x0000000080002bac: 00 f7 07 b3 add	a5, a4, a5
0x0000000080002bb0: 80 00 07 37 lui	a4, 524288
0x0000000080002bb4: 00 17 07 1b addiw	a4, a4, 1
0x0000000080002bb8: 34 e7 ac 23 sw	a4, 856(a5)
0x0000000080002bbc: 00 20 07 13 addi	a4, zero, 2
0x0000000080002bc0: 34 e7 ae 23 sw	a4, 860(a5)
0x0000000080002bc4: 35 87 a6 03 lw	a2, 856(a5)
0x0000000080002bc8: 35 c7 a6 83 lw	a3, 860(a5)
0x0000000080002bcc: 80 00 07 37 lui	a4, 524288
0x0000000080002bd0: ff f7 47 13 not	a4, a4
0x0000000080002bd4: 40 d6 06 bb subw	a3, a2, a3
0x0000000080002bd8: 08 e6 80 63 beq	a3, a4, 128
0x0000000080002c58: 00 00 56 b7 lui	a3, 5
0x0000000080002c5c: 01 01 06 13 addi	a2, sp, 16
0x0000000080002c60: 19 06 86 93 addi	a3, a3, 400
0x0000000080002c64: 00 c6 86 b3 add	a3, a3, a2
0x0000000080002c68: 80 00 07 37 lui	a4, 524288
0x0000000080002c6c: ff ff d7 b7 lui	a5, 1048573
0x0000000080002c70: 00 f6 87 b3 add	a5, a3, a5
0x0000000080002c74: 00 17 06 9b addiw	a3, a4, 1
0x0000000080002c78: 36 d7 a0 23 sw	a3, 864(a5)
0x0000000080002c7c: ff e7 47 13 xori	a4, a4, -2
0x0000000080002c80: 36 e7 a2 23 sw	a4, 868(a5)
0x0000000080002c84: 36 07 a6 03 lw	a2, 864(a5)
0x0000000080002c88: 36 47 a6 83 lw	a3, 868(a5)
0x0000000080002c8c: 00 30 07 13 addi	a4, zero, 3
0x0000000080002c90: 40 d6 06 bb subw	a3, a2, a3
0x0000000080002c94: 08 e6 80 63 beq	a3, a4, 128
0x0000000080002d14: 00 00 56 b7 lui	a3, 5
0x0000000080002d18: 01 01 06 13 addi	a2, sp, 16
0x0000000080002d1c: 19 06 86 93 addi	a3, a3, 400
0x0000000080002d20: 00 c6 86 b3 add	a3, a3, a2
0x0000000080002d24: 80 00 07 37 lui	a4, 524288
0x0000000080002d28: ff ff d7 b7 lui	a5, 1048573
0x0000000080002d2c: 00 f6 87 b3 add	a5, a3, a5
0x0000000080002d30: 00 17 06 9b addiw	a3, a4, 1
0x0000000080002d34: 36 d7 a4 23 sw	a3, 872(a5)
0x0000000080002d38: ff f7 47 13 not	a4, a4
0x0000000080002d3c: 36 e7 a6 23 sw	a4, 876(a5)
0x0000000080002d40: 36 87 a6 03 lw	a2, 872(a5)
0x0000000080002d44: 36 c7 a6 83 lw	a3, 876(a5)
0x0000000080002d48: 00 20 07 13 addi	a4, zero, 2
0x0000000080002d4c: 40 d6 06 bb subw	a3, a2, a3
0x0000000080002d50: 08 e6 80 63 beq	a3, a4, 128
0x0000000080002dd0: 00 00 57 37 lui	a4, 5
0x0000000080002dd4: 01 01 06 93 addi	a3, sp, 16
0x0000000080002dd8: 19 07 07 13 addi	a4, a4, 400
0x0000000080002ddc: 00 d7 07 33 add	a4, a4, a3
0x0000000080002de0: ff ff d7 b7 lui	a5, 1048573
0x0000000080002de4: 00 f7 07 b3 add	a5, a4, a5
0x0000000080002de8: ff e0 07 13 addi	a4, zero, -2
0x0000000080002dec: 36 e7 a8 23 sw	a4, 880(a5)
0x0000000080002df0: 36 e7 aa 23 sw	a4, 884(a5)
0x0000000080002df4: 37 07 a6 83 lw	a3, 880(a5)
0x0000000080002df8: 37 47 a7 03 lw	a4, 884(a5)
0x0000000080002dfc: 00 06 86 9b sext.w	a3, a3
0x0000000080002e00: 00 07 07 1b sext.w	a4, a4
0x0000000080002e04: 08 e6 80 63 beq	a3, a4, 128
0x0000000080002e84: 00 00 57 37 lui	a4, 5
0x0000000080002e88: 01 01 06 93 addi	a3, sp, 16
0x0000000080002e8c: 19 07 07 13 addi	a4, a4, 400
0x0000000080002e90: 00 d7 07 33 add	a4, a4, a3
0x0000000080002e94: ff ff d7 b7 lui	a5, 1048573
0x0000000080002e98: 00 f7 07 b3 add	a5, a4, a5
0x0000000080002e9c: ff e0 07 13 addi	a4, zero, -2
0x0000000080002ea0: 36 e7 ac 23 sw	a4, 888(a5)
0x0000000080002ea4: ff f0 07 13 addi	a4, zero, -1
0x0000000080002ea8: 36 e7 ae 23 sw	a4, 892(a5)
0x0000000080002eac: 37 87 a6 03 lw	a2, 888(a5)
0x0000000080002eb0: 37 c7 a6 83 lw	a3, 892(a5)
0x0000000080002eb4: ff f0 07 13 addi	a4, zero, -1
0x0000000080002eb8: 40 d6 06 bb subw	a3, a2, a3
0x0000000080002ebc: 06 e6 8e 63 beq	a3, a4, 124
0x0000000080002f38: 00 00 57 37 lui	a4, 5
0x0000000080002f3c: 01 01 06 93 addi	a3, sp, 16
0x0000000080002f40: 19 07 07 13 addi	a4, a4, 400
0x0000000080002f44: 00 d7 07 33 add	a4, a4, a3
0x0000000080002f48: ff ff d7 b7 lui	a5, 1048573
0x0000000080002f4c: 00 f7 07 b3 add	a5, a4, a5
0x0000000080002f50: ff e0 07 13 addi	a4, zero, -2
0x0000000080002f54: 38 e7 a0 23 sw	a4, 896(a5)
0x0000000080002f58: 38 07 a2 23 sw	zero, 900(a5)
0x0000000080002f5c: 38 07 a6 03 lw	a2, 896(a5)
0x0000000080002f60: 38 47 a6 83 lw	a3, 900(a5)
0x0000000080002f64: ff e0 07 13 addi	a4, zero, -2
0x0000000080002f68: 40 d6 06 bb subw	a3, a2, a3
0x0000000080002f6c: 06 e6 8e 63 beq	a3, a4, 124
0x0000000080002fe8: 00 00 57 37 lui	a4, 5
0x0000000080002fec: 01 01 06 93 addi	a3, sp, 16
0x0000000080002ff0: 19 07 07 13 addi	a4, a4, 400
0x0000000080002ff4: 00 d7 07 33 add	a4, a4, a3
0x0000000080002ff8: ff ff d7 b7 lui	a5, 1048573
0x0000000080002ffc: 00 f7 07 b3 add	a5, a4, a5
0x0000000080003000: ff e0 07 13 addi	a4, zero, -2
0x0000000080003004: 38 e7 a4 23 sw	a4, 904(a5)
0x0000000080003008: 00 10 07 13 addi	a4, zero, 1
0x000000008000300c: 38 e7 a6 23 sw	a4, 908(a5)
0x0000000080003010: 38 87 a6 03 lw	a2, 904(a5)
0x0000000080003014: 38 c7 a6 83 lw	a3, 908(a5)
0x0000000080003018: ff d0 07 13 addi	a4, zero, -3
0x000000008000301c: 40 d6 06 bb subw	a3, a2, a3
0x0000000080003020: 06 e6 8e 63 beq	a3, a4, 124
0x000000008000309c: 00 00 57 37 lui	a4, 5
0x00000000800030a0: 01 01 06 93 addi	a3, sp, 16
0x00000000800030a4: 19 07 07 13 addi	a4, a4, 400
0x00000000800030a8: 00 d7 07 33 add	a4, a4, a3
0x00000000800030ac: ff ff d7 b7 lui	a5, 1048573
0x00000000800030b0: 00 f7 07 b3 add	a5, a4, a5
0x00000000800030b4: ff e0 07 13 addi	a4, zero, -2
0x00000000800030b8: 38 e7 a8 23 sw	a4, 912(a5)
0x00000000800030bc: 00 20 07 13 addi	a4, zero, 2
0x00000000800030c0: 38 e7 aa 23 sw	a4, 916(a5)
0x00000000800030c4: 39 07 a6 03 lw	a2, 912(a5)
0x00000000800030c8: 39 47 a6 83 lw	a3, 916(a5)
0x00000000800030cc: ff c0 07 13 addi	a4, zero, -4
0x00000000800030d0: 40 d6 06 bb subw	a3, a2, a3
0x00000000800030d4: 06 e6 8e 63 beq	a3, a4, 124
0x0000000080003150: 00 00 57 37 lui	a4, 5
0x0000000080003154: 01 01 06 93 addi	a3, sp, 16
0x0000000080003158: 19 07 07 13 addi	a4, a4, 400
0x000000008000315c: 00 d7 07 33 add	a4, a4, a3
0x0000000080003160: ff ff d7 b7 lui	a5, 1048573
0x0000000080003164: 00 f7 07 b3 add	a5, a4, a5
0x0000000080003168: ff e0 07 13 addi	a4, zero, -2
0x000000008000316c: 38 e7 ac 23 sw	a4, 920(a5)
0x0000000080003170: 80 00 07 37 lui	a4, 524288
0x0000000080003174: ff e7 47 13 xori	a4, a4, -2
0x0000000080003178: 38 e7 ae 23 sw	a4, 924(a5)
0x000000008000317c: 39 87 a6 03 lw	a2, 920(a5)
0x0000000080003180: 39 c7 a6 83 lw	a3, 924(a5)
0x0000000080003184: 80 00 07 37 lui	a4, 524288
0x0000000080003188: 40 d6 06 bb subw	a3, a2, a3
0x000000008000318c: 08 e6 80 63 beq	a3, a4, 128
0x000000008000320c: 00 00 57 37 lui	a4, 5
0x0000000080003210: 01 01 06 93 addi	a3, sp, 16
0x0000000080003214: 19 07 07 13 addi	a4, a4, 400
0x0000000080003218: 00 d7 07 33 add	a4, a4, a3
0x000000008000321c: ff ff d7 b7 lui	a5, 1048573
0x0000000080003220: 00 f7 07 b3 add	a5, a4, a5
0x0000000080003224: ff e0 07 13 addi	a4, zero, -2
0x0000000080003228: 3a e7 a0 23 sw	a4, 928(a5)
0x000000008000322c: 80 00 07 37 lui	a4, 524288
0x0000000080003230: ff f7 47 13 not	a4, a4
0x0000000080003234: 3a e7 a2 23 sw	a4, 932(a5)
0x0000000080003238: 3a 07 a6 03 lw	a2, 928(a5)
0x000000008000323c: 3a 47 a6 83 lw	a3, 932(a5)
0x0000000080003240: 80 00 07 37 lui	a4, 524288
0x0000000080003244: ff f7 47 13 not	a4, a4
0x0000000080003248: 40 d6 06 bb subw	a3, a2, a3
0x000000008000324c: 08 e6 80 63 beq	a3, a4, 128
0x00000000800032cc: 00 00 57 37 lui	a4, 5
0x00000000800032d0: 01 01 06 93 addi	a3, sp, 16
0x00000000800032d4: 19 07 07 13 addi	a4, a4, 400
0x00000000800032d8: 00 d7 07 33 add	a4, a4, a3
0x00000000800032dc: ff ff d7 b7 lui	a5, 1048573
0x00000000800032e0: 00 f7 07 b3 add	a5, a4, a5
0x00000000800032e4: ff f0 07 13 addi	a4, zero, -1
0x00000000800032e8: 3a e7 a4 23 sw	a4, 936(a5)
0x00000000800032ec: 3a e7 a6 23 sw	a4, 940(a5)
0x00000000800032f0: 3a 87 a6 83 lw	a3, 936(a5)
0x00000000800032f4: 3a c7 a7 03 lw	a4, 940(a5)
0x00000000800032f8: 00 06 86 9b sext.w	a3, a3
0x00000000800032fc: 00 07 07 1b sext.w	a4, a4
0x0000000080003300: 08 e6 80 63 beq	a3, a4, 128
0x0000000080003380: 00 00 57 37 lui	a4, 5
0x0000000080003384: 01 01 06 93 addi	a3, sp, 16
0x0000000080003388: 19 07 07 13 addi	a4, a4, 400
0x000000008000338c: 00 d7 07 33 add	a4, a4, a3
0x0000000080003390: ff ff d7 b7 lui	a5, 1048573
0x0000000080003394: 00 f7 07 b3 add	a5, a4, a5
0x0000000080003398: ff f0 07 13 addi	a4, zero, -1
0x000000008000339c: 3a e7 a8 23 sw	a4, 944(a5)
0x00000000800033a0: 3a 07 aa 23 sw	zero, 948(a5)
0x00000000800033a4: 3b 07 a6 03 lw	a2, 944(a5)
0x00000000800033a8: 3b 47 a6 83 lw	a3, 948(a5)
0x00000000800033ac: ff f0 07 13 addi	a4, zero, -1
0x00000000800033b0: 40 d6 06 bb subw	a3, a2, a3
0x00000000800033b4: 06 e6 8e 63 beq	a3, a4, 124
0x0000000080003430: 00 00 57 37 lui	a4, 5
0x0000000080003434: 01 01 06 93 addi	a3, sp, 16
0x0000000080003438: 19 07 07 13 addi	a4, a4, 400
0x000000008000343c: 00 d7 07 33 add	a4, a4, a3
0x0000000080003440: ff ff d7 b7 lui	a5, 1048573
0x0000000080003444: 00 f7 07 b3 add	a5, a4, a5
0x0000000080003448: ff f0 07 13 addi	a4, zero, -1
0x000000008000344c: 3a e7 ac 23 sw	a4, 952(a5)
0x0000000080003450: 00 10 07 13 addi	a4, zero, 1
0x0000000080003454: 3a e7 ae 23 sw	a4, 956(a5)
0x0000000080003458: 3b 87 a6 03 lw	a2, 952(a5)
0x000000008000345c: 3b c7 a6 83 lw	a3, 956(a5)
0x0000000080003460: ff e0 07 13 addi	a4, zero, -2
0x0000000080003464: 40 d6 06 bb subw	a3, a2, a3
0x0000000080003468: 06 e6 8e 63 beq	a3, a4, 124
0x00000000800034e4: 00 00 57 37 lui	a4, 5
0x00000000800034e8: 01 01 06 93 addi	a3, sp, 16
0x00000000800034ec: 19 07 07 13 addi	a4, a4, 400
0x00000000800034f0: 00 d7 07 33 add	a4, a4, a3
0x00000000800034f4: ff ff d7 b7 lui	a5, 1048573
0x00000000800034f8: 00 f7 07 b3 add	a5, a4, a5
0x00000000800034fc: ff f0 07 13 addi	a4, zero, -1
0x0000000080003500: 3c e7 a0 23 sw	a4, 960(a5)
0x0000000080003504: 00 20 07 13 addi	a4, zero, 2
0x0000000080003508: 3c e7 a2 23 sw	a4, 964(a5)
0x000000008000350c: 3c 07 a6 03 lw	a2, 960(a5)
0x0000000080003510: 3c 47 a6 83 lw	a3, 964(a5)
0x0000000080003514: ff d0 07 13 addi	a4, zero, -3
0x0000000080003518: 40 d6 06 bb subw	a3, a2, a3
0x000000008000351c: 06 e6 8e 63 beq	a3, a4, 124
0x0000000080003598: 00 00 57 37 lui	a4, 5
0x000000008000359c: 01 01 06 93 addi	a3, sp, 16
0x00000000800035a0: 19 07 07 13 addi	a4, a4, 400
0x00000000800035a4: 00 d7 07 33 add	a4, a4, a3
0x00000000800035a8: ff ff d7 b7 lui	a5, 1048573
0x00000000800035ac: 00 f7 07 b3 add	a5, a4, a5
0x00000000800035b0: ff f0 07 13 addi	a4, zero, -1
0x00000000800035b4: 3c e7 a4 23 sw	a4, 968(a5)
0x00000000800035b8: 80 00 07 37 lui	a4, 524288
0x00000000800035bc: ff e7 47 13 xori	a4, a4, -2
0x00000000800035c0: 3c e7 a6 23 sw	a4, 972(a5)
0x00000000800035c4: 3c 87 a6 03 lw	a2, 968(a5)
0x00000000800035c8: 3c c7 a6 83 lw	a3, 972(a5)
0x00000000800035cc: 80 00 07 37 lui	a4, 524288
0x00000000800035d0: 00 17 07 13 addi	a4, a4, 1
0x00000000800035d4: 40 d6 06 bb subw	a3, a2, a3
0x00000000800035d8: 08 e6 80 63 beq	a3, a4, 128
0x0000000080003658: 00 00 57 37 lui	a4, 5
0x000000008000365c: 01 01 06 93 addi	a3, sp, 16
0x0000000080003660: 19 07 07 13 addi	a4, a4, 400
0x0000000080003664: 00 d7 07 33 add	a4, a4, a3
0x0000000080003668: ff ff d7 b7 lui	a5, 1048573
0x000000008000366c: 00 f7 07 b3 add	a5, a4, a5
0x0000000080003670: ff f0 07 13 addi	a4, zero, -1
0x0000000080003674: 3c e7 a8 23 sw	a4, 976(a5)
0x0000000080003678: 80 00 07 37 lui	a4, 524288
0x000000008000367c: ff f7 47 13 not	a4, a4
0x0000000080003680: 3c e7 aa 23 sw	a4, 980(a5)
0x0000000080003684: 3d 07 a6 03 lw	a2, 976(a5)
0x0000000080003688: 3d 47 a6 83 lw	a3, 980(a5)
0x000000008000368c: 80 00 07 37 lui	a4, 524288
0x0000000080003690: 40 d6 06 bb subw	a3, a2, a3
0x0000000080003694: 08 e6 80 63 beq	a3, a4, 128
0x0000000080003714: 00 00 57 37 lui	a4, 5
0x0000000080003718: 01 01 06 93 addi	a3, sp, 16
0x000000008000371c: 19 07 07 13 addi	a4, a4, 400
0x0000000080003720: 00 d7 07 33 add	a4, a4, a3
0x0000000080003724: ff ff d7 b7 lui	a5, 1048573
0x0000000080003728: 00 f7 07 b3 add	a5, a4, a5
0x000000008000372c: 3c 07 ac 23 sw	zero, 984(a5)
0x0000000080003730: 3c 07 ae 23 sw	zero, 988(a5)
0x0000000080003734: 3d 87 a6 83 lw	a3, 984(a5)
0x0000000080003738: 3d c7 a7 03 lw	a4, 988(a5)
0x000000008000373c: 00 06 86 9b sext.w	a3, a3
0x0000000080003740: 00 07 07 1b sext.w	a4, a4
0x0000000080003744: 08 e6 80 63 beq	a3, a4, 128
0x00000000800037c4: 00 00 57 37 lui	a4, 5
0x00000000800037c8: 01 01 06 93 addi	a3, sp, 16
0x00000000800037cc: 19 07 07 13 addi	a4, a4, 400
0x00000000800037d0: 00 d7 07 33 add	a4, a4, a3
0x00000000800037d4: ff ff d7 b7 lui	a5, 1048573
0x00000000800037d8: 00 f7 07 b3 add	a5, a4, a5
0x00000000800037dc: 3e 07 a0 23 sw	zero, 992(a5)
0x00000000800037e0: 00 10 07 13 addi	a4, zero, 1
0x00000000800037e4: 3e e7 a2 23 sw	a4, 996(a5)
0x00000000800037e8: 3e 07 a6 03 lw	a2, 992(a5)
0x00000000800037ec: 3e 47 a6 83 lw	a3, 996(a5)
0x00000000800037f0: ff f0 07 13 addi	a4, zero, -1
0x00000000800037f4: 40 d6 06 bb subw	a3, a2, a3
0x00000000800037f8: 06 e6 8e 63 beq	a3, a4, 124
0x0000000080003874: 00 00 57 37 lui	a4, 5
0x0000000080003878: 01 01 06 93 addi	a3, sp, 16
0x000000008000387c: 19 07 07 13 addi	a4, a4, 400
0x0000000080003880: 00 d7 07 33 add	a4, a4, a3
0x0000000080003884: ff ff d7 b7 lui	a5, 1048573
0x0000000080003888: 00 f7 07 b3 add	a5, a4, a5
0x000000008000388c: 3e 07 a4 23 sw	zero, 1000(a5)
0x0000000080003890: 00 20 07 13 addi	a4, zero, 2
0x0000000080003894: 3e e7 a6 23 sw	a4, 1004(a5)
0x0000000080003898: 3e 87 a6 03 lw	a2, 1000(a5)
0x000000008000389c: 3e c7 a6 83 lw	a3, 1004(a5)
0x00000000800038a0: ff e0 07 13 addi	a4, zero, -2
0x00000000800038a4: 40 d6 06 bb subw	a3, a2, a3
0x00000000800038a8: 06 e6 8e 63 beq	a3, a4, 124
0x0000000080003924: 00 00 57 37 lui	a4, 5
0x0000000080003928: 01 01 06 93 addi	a3, sp, 16
0x000000008000392c: 19 07 07 13 addi	a4, a4, 400
0x0000000080003930: 00 d7 07 33 add	a4, a4, a3
0x0000000080003934: ff ff d7 b7 lui	a5, 1048573
0x0000000080003938: 00 f7 07 b3 add	a5, a4, a5
0x000000008000393c: 80 00 07 37 lui	a4, 524288
0x0000000080003940: 3e 07 a8 23 sw	zero, 1008(a5)
0x0000000080003944: ff e7 47 13 xori	a4, a4, -2
0x0000000080003948: 3e e7 aa 23 sw	a4, 1012(a5)
0x000000008000394c: 3f 07 a6 03 lw	a2, 1008(a5)
0x0000000080003950: 3f 47 a6 83 lw	a3, 1012(a5)
0x0000000080003954: 80 00 07 37 lui	a4, 524288
0x0000000080003958: 00 27 07 13 addi	a4, a4, 2
0x000000008000395c: 40 d6 06 bb subw	a3, a2, a3
0x0000000080003960: 08 e6 80 63 beq	a3, a4, 128
0x00000000800039e0: 00 00 57 37 lui	a4, 5
0x00000000800039e4: 01 01 06 93 addi	a3, sp, 16
0x00000000800039e8: 19 07 07 13 addi	a4, a4, 400
0x00000000800039ec: 00 d7 07 33 add	a4, a4, a3
0x00000000800039f0: ff ff d7 b7 lui	a5, 1048573
0x00000000800039f4: 00 f7 07 b3 add	a5, a4, a5
0x00000000800039f8: 80 00 07 37 lui	a4, 524288
0x00000000800039fc: 3e 07 ac 23 sw	zero, 1016(a5)
0x0000000080003a00: ff f7 47 13 not	a4, a4
0x0000000080003a04: 3e e7 ae 23 sw	a4, 1020(a5)
0x0000000080003a08: 3f 87 a6 03 lw	a2, 1016(a5)
0x0000000080003a0c: 3f c7 a6 83 lw	a3, 1020(a5)
0x0000000080003a10: 80 00 07 37 lui	a4, 524288
0x0000000080003a14: 00 17 07 13 addi	a4, a4, 1
0x0000000080003a18: 40 d6 06 bb subw	a3, a2, a3
0x0000000080003a1c: 08 e6 80 63 beq	a3, a4, 128
0x0000000080003a9c: 00 00 57 37 lui	a4, 5
0x0000000080003aa0: 01 01 06 93 addi	a3, sp, 16
0x0000000080003aa4: 19 07 07 13 addi	a4, a4, 400
0x0000000080003aa8: 00 d7 07 33 add	a4, a4, a3
0x0000000080003aac: ff ff d7 b7 lui	a5, 1048573
0x0000000080003ab0: 00 f7 07 b3 add	a5, a4, a5
0x0000000080003ab4: 00 10 07 13 addi	a4, zero, 1
0x0000000080003ab8: 40 e7 a0 23 sw	a4, 1024(a5)
0x0000000080003abc: 40 e7 a2 23 sw	a4, 1028(a5)
0x0000000080003ac0: 40 07 a6 83 lw	a3, 1024(a5)
0x0000000080003ac4: 40 47 a7 03 lw	a4, 1028(a5)
0x0000000080003ac8: 00 06 86 9b sext.w	a3, a3
0x0000000080003acc: 00 07 07 1b sext.w	a4, a4
0x0000000080003ad0: 08 e6 80 63 beq	a3, a4, 128
0x0000000080003b50: 00 00 57 37 lui	a4, 5
0x0000000080003b54: 01 01 06 93 addi	a3, sp, 16
0x0000000080003b58: 19 07 07 13 addi	a4, a4, 400
0x0000000080003b5c: 00 d7 07 33 add	a4, a4, a3
0x0000000080003b60: ff ff d7 b7 lui	a5, 1048573
0x0000000080003b64: 00 f7 07 b3 add	a5, a4, a5
0x0000000080003b68: 00 10 07 13 addi	a4, zero, 1
0x0000000080003b6c: 40 e7 a4 23 sw	a4, 1032(a5)
0x0000000080003b70: 00 20 07 13 addi	a4, zero, 2
0x0000000080003b74: 40 e7 a6 23 sw	a4, 1036(a5)
0x0000000080003b78: 40 87 a6 03 lw	a2, 1032(a5)
0x0000000080003b7c: 40 c7 a6 83 lw	a3, 1036(a5)
0x0000000080003b80: ff f0 07 13 addi	a4, zero, -1
0x0000000080003b84: 40 d6 06 bb subw	a3, a2, a3
0x0000000080003b88: 06 e6 8e 63 beq	a3, a4, 124
0x0000000080003c04: 00 00 57 37 lui	a4, 5
0x0000000080003c08: 01 01 06 93 addi	a3, sp, 16
0x0000000080003c0c: 19 07 07 13 addi	a4, a4, 400
0x0000000080003c10: 00 d7 07 33 add	a4, a4, a3
0x0000000080003c14: ff ff d7 b7 lui	a5, 1048573
0x0000000080003c18: 00 f7 07 b3 add	a5, a4, a5
0x0000000080003c1c: 00 10 07 13 addi	a4, zero, 1
0x0000000080003c20: 40 e7 a8 23 sw	a4, 1040(a5)
0x0000000080003c24: 80 00 07 37 lui	a4, 524288
0x0000000080003c28: ff e7 47 13 xori	a4, a4, -2
0x0000000080003c2c: 40 e7 aa 23 sw	a4, 1044(a5)
0x0000000080003c30: 41 07 a6 03 lw	a2, 1040(a5)
0x0000000080003c34: 41 47 a6 83 lw	a3, 1044(a5)
0x0000000080003c38: 80 00 07 37 lui	a4, 524288
0x0000000080003c3c: 00 37 07 13 addi	a4, a4, 3
0x0000000080003c40: 40 d6 06 bb subw	a3, a2, a3
0x0000000080003c44: 08 e6 80 63 beq	a3, a4, 128
0x0000000080003cc4: 00 00 57 37 lui	a4, 5
0x0000000080003cc8: 01 01 06 93 addi	a3, sp, 16
0x0000000080003ccc: 19 07 07 13 addi	a4, a4, 400
0x0000000080003cd0: 00 d7 07 33 add	a4, a4, a3
0x0000000080003cd4: ff ff d7 b7 lui	a5, 1048573
0x0000000080003cd8: 00 f7 07 b3 add	a5, a4, a5
0x0000000080003cdc: 00 10 07 13 addi	a4, zero, 1
0x0000000080003ce0: 40 e7 ac 23 sw	a4, 1048(a5)
0x0000000080003ce4: 80 00 07 37 lui	a4, 524288
0x0000000080003ce8: ff f7 47 13 not	a4, a4
0x0000000080003cec: 40 e7 ae 23 sw	a4, 1052(a5)
0x0000000080003cf0: 41 87 a6 03 lw	a2, 1048(a5)
0x0000000080003cf4: 41 c7 a6 83 lw	a3, 1052(a5)
0x0000000080003cf8: 80 00 07 37 lui	a4, 524288
0x0000000080003cfc: 00 27 07 13 addi	a4, a4, 2
0x0000000080003d00: 40 d6 06 bb subw	a3, a2, a3
0x0000000080003d04: 08 e6 80 63 beq	a3, a4, 128
0x0000000080003d84: 00 00 57 37 lui	a4, 5
0x0000000080003d88: 01 01 06 93 addi	a3, sp, 16
0x0000000080003d8c: 19 07 07 13 addi	a4, a4, 400
0x0000000080003d90: 00 d7 07 33 add	a4, a4, a3
0x0000000080003d94: ff ff d7 b7 lui	a5, 1048573
0x0000000080003d98: 00 f7 07 b3 add	a5, a4, a5
0x0000000080003d9c: 00 20 07 13 addi	a4, zero, 2
0x0000000080003da0: 42 e7 a0 23 sw	a4, 1056(a5)
0x0000000080003da4: 42 e7 a2 23 sw	a4, 1060(a5)
0x0000000080003da8: 42 07 a6 83 lw	a3, 1056(a5)
0x0000000080003dac: 42 47 a7 03 lw	a4, 1060(a5)
0x0000000080003db0: 00 06 86 9b sext.w	a3, a3
0x0000000080003db4: 00 07 07 1b sext.w	a4, a4
0x0000000080003db8: 08 e6 80 63 beq	a3, a4, 128
0x0000000080003e38: 00 00 57 37 lui	a4, 5
0x0000000080003e3c: 01 01 06 93 addi	a3, sp, 16
0x0000000080003e40: 19 07 07 13 addi	a4, a4, 400
0x0000000080003e44: 00 d7 07 33 add	a4, a4, a3
0x0000000080003e48: ff ff d7 b7 lui	a5, 1048573
0x0000000080003e4c: 00 f7 07 b3 add	a5, a4, a5
0x0000000080003e50: 00 20 07 13 addi	a4, zero, 2
0x0000000080003e54: 42 e7 a4 23 sw	a4, 1064(a5)
0x0000000080003e58: 80 00 07 37 lui	a4, 524288
0x0000000080003e5c: ff e7 47 13 xori	a4, a4, -2
0x0000000080003e60: 42 e7 a6 23 sw	a4, 1068(a5)
0x0000000080003e64: 42 87 a6 03 lw	a2, 1064(a5)
0x0000000080003e68: 42 c7 a6 83 lw	a3, 1068(a5)
0x0000000080003e6c: 80 00 07 37 lui	a4, 524288
0x0000000080003e70: 00 47 07 13 addi	a4, a4, 4
0x0000000080003e74: 40 d6 06 bb subw	a3, a2, a3
0x0000000080003e78: 08 e6 80 63 beq	a3, a4, 128
0x0000000080003ef8: 00 00 57 37 lui	a4, 5
0x0000000080003efc: 01 01 06 93 addi	a3, sp, 16
0x0000000080003f00: 19 07 07 13 addi	a4, a4, 400
0x0000000080003f04: 00 d7 07 33 add	a4, a4, a3
0x0000000080003f08: ff ff d7 b7 lui	a5, 1048573
0x0000000080003f0c: 00 f7 07 b3 add	a5, a4, a5
0x0000000080003f10: 00 20 07 13 addi	a4, zero, 2
0x0000000080003f14: 42 e7 a8 23 sw	a4, 1072(a5)
0x0000000080003f18: 80 00 07 37 lui	a4, 524288
0x0000000080003f1c: ff f7 47 13 not	a4, a4
0x0000000080003f20: 42 e7 aa 23 sw	a4, 1076(a5)
0x0000000080003f24: 43 07 a6 03 lw	a2, 1072(a5)
0x0000000080003f28: 43 47 a6 83 lw	a3, 1076(a5)
0x0000000080003f2c: 80 00 07 37 lui	a4, 524288
0x0000000080003f30: 00 37 07 13 addi	a4, a4, 3
0x0000000080003f34: 40 d6 06 bb subw	a3, a2, a3
0x0000000080003f38: 08 e6 80 63 beq	a3, a4, 128
0x0000000080003fb8: 00 00 57 37 lui	a4, 5
0x0000000080003fbc: 01 01 06 93 addi	a3, sp, 16
0x0000000080003fc0: 19 07 07 13 addi	a4, a4, 400
0x0000000080003fc4: 00 d7 07 33 add	a4, a4, a3
0x0000000080003fc8: ff ff d7 b7 lui	a5, 1048573
0x0000000080003fcc: 00 f7 07 b3 add	a5, a4, a5
0x0000000080003fd0: 80 00 07 37 lui	a4, 524288
0x0000000080003fd4: ff e7 47 13 xori	a4, a4, -2
0x0000000080003fd8: 42 e7 ac 23 sw	a4, 1080(a5)
0x0000000080003fdc: 42 e7 ae 23 sw	a4, 1084(a5)
0x0000000080003fe0: 43 87 a6 83 lw	a3, 1080(a5)
0x0000000080003fe4: 43 c7 a7 03 lw	a4, 1084(a5)
0x0000000080003fe8: 00 06 86 9b sext.w	a3, a3
0x0000000080003fec: 00 07 07 1b sext.w	a4, a4
0x0000000080003ff0: 08 e6 82 63 beq	a3, a4, 132
0x0000000080004074: 00 00 56 b7 lui	a3, 5
0x0000000080004078: 01 01 06 13 addi	a2, sp, 16
0x000000008000407c: 19 06 86 93 addi	a3, a3, 400
0x0000000080004080: 00 c6 86 b3 add	a3, a3, a2
0x0000000080004084: 80 00 07 37 lui	a4, 524288
0x0000000080004088: ff ff d7 b7 lui	a5, 1048573
0x000000008000408c: 00 f6 87 b3 add	a5, a3, a5
0x0000000080004090: ff e7 46 93 xori	a3, a4, -2
0x0000000080004094: 44 d7 a0 23 sw	a3, 1088(a5)
0x0000000080004098: ff f7 47 13 not	a4, a4
0x000000008000409c: 44 e7 a2 23 sw	a4, 1092(a5)
0x00000000800040a0: 44 07 a6 03 lw	a2, 1088(a5)
0x00000000800040a4: 44 47 a6 83 lw	a3, 1092(a5)
0x00000000800040a8: ff f0 07 13 addi	a4, zero, -1
0x00000000800040ac: 40 d6 06 bb subw	a3, a2, a3
0x00000000800040b0: 08 e6 80 63 beq	a3, a4, 128
0x0000000080004130: 00 00 57 37 lui	a4, 5
0x0000000080004134: 01 01 06 93 addi	a3, sp, 16
0x0000000080004138: 19 07 07 13 addi	a4, a4, 400
0x000000008000413c: 00 d7 07 33 add	a4, a4, a3
0x0000000080004140: ff ff d7 b7 lui	a5, 1048573
0x0000000080004144: 00 f7 07 b3 add	a5, a4, a5
0x0000000080004148: 80 00 07 37 lui	a4, 524288
0x000000008000414c: ff f7 47 13 not	a4, a4
0x0000000080004150: 44 e7 a4 23 sw	a4, 1096(a5)
0x0000000080004154: 44 e7 a6 23 sw	a4, 1100(a5)
0x0000000080004158: 44 87 a6 83 lw	a3, 1096(a5)
0x000000008000415c: 44 c7 a7 03 lw	a4, 1100(a5)
0x0000000080004160: 00 06 86 9b sext.w	a3, a3
0x0000000080004164: 00 07 07 1b sext.w	a4, a4
0x0000000080004168: 08 e6 82 63 beq	a3, a4, 132
0x00000000800041ec: 00 00 57 37 lui	a4, 5
0x00000000800041f0: 01 01 06 93 addi	a3, sp, 16
0x00000000800041f4: 19 07 07 13 addi	a4, a4, 400
0x00000000800041f8: 00 d7 07 33 add	a4, a4, a3
0x00000000800041fc: ff ff d7 b7 lui	a5, 1048573
0x0000000080004200: 00 f7 07 b3 add	a5, a4, a5
0x0000000080004204: 80 00 07 37 lui	a4, 524288
0x0000000080004208: 44 e7 a8 23 sw	a4, 1104(a5)
0x000000008000420c: 44 e7 aa 23 sw	a4, 1108(a5)
0x0000000080004210: 45 07 a6 83 lw	a3, 1104(a5)
0x0000000080004214: 45 47 a7 03 lw	a4, 1108(a5)
0x0000000080004218: 00 06 86 9b sext.w	a3, a3
0x000000008000421c: 00 07 07 1b sext.w	a4, a4
0x0000000080004220: 08 e6 84 63 beq	a3, a4, 136
0x00000000800042a8: 00 00 57 37 lui	a4, 5
0x00000000800042ac: 01 01 06 93 addi	a3, sp, 16
0x00000000800042b0: 19 07 07 13 addi	a4, a4, 400
0x00000000800042b4: 00 d7 07 33 add	a4, a4, a3
0x00000000800042b8: ff ff d7 b7 lui	a5, 1048573
0x00000000800042bc: 00 f7 07 b3 add	a5, a4, a5
0x00000000800042c0: 80 00 07 37 lui	a4, 524288
0x00000000800042c4: 44 e7 ac 23 sw	a4, 1112(a5)
0x00000000800042c8: 00 17 07 1b addiw	a4, a4, 1
0x00000000800042cc: 44 e7 ae 23 sw	a4, 1116(a5)
0x00000000800042d0: 45 87 a6 83 lw	a3, 1112(a5)
0x00000000800042d4: 45 c7 a6 03 lw	a2, 1116(a5)
0x00000000800042d8: 00 10 07 13 addi	a4, zero, 1
0x00000000800042dc: 00 d6 46 b3 xor	a3, a2, a3
0x00000000800042e0: 00 06 86 9b sext.w	a3, a3
0x00000000800042e4: 08 e6 86 63 beq	a3, a4, 140
0x0000000080004370: 00 00 57 37 lui	a4, 5
0x0000000080004374: 01 01 06 93 addi	a3, sp, 16
0x0000000080004378: 19 07 07 13 addi	a4, a4, 400
0x000000008000437c: 00 d7 07 33 add	a4, a4, a3
0x0000000080004380: ff ff d7 b7 lui	a5, 1048573
0x0000000080004384: 00 f7 07 b3 add	a5, a4, a5
0x0000000080004388: 80 00 07 37 lui	a4, 524288
0x000000008000438c: 46 e7 a0 23 sw	a4, 1120(a5)
0x0000000080004390: ff e0 07 13 addi	a4, zero, -2
0x0000000080004394: 46 e7 a2 23 sw	a4, 1124(a5)
0x0000000080004398: 46 07 a6 83 lw	a3, 1120(a5)
0x000000008000439c: 46 47 a6 03 lw	a2, 1124(a5)
0x00000000800043a0: 80 00 07 37 lui	a4, 524288
0x00000000800043a4: ff e7 47 13 xori	a4, a4, -2
0x00000000800043a8: 00 d6 46 b3 xor	a3, a2, a3
0x00000000800043ac: 00 06 86 9b sext.w	a3, a3
0x00000000800043b0: 08 e6 86 63 beq	a3, a4, 140
0x000000008000443c: 00 00 57 37 lui	a4, 5
0x0000000080004440: 01 01 06 93 addi	a3, sp, 16
0x0000000080004444: 19 07 07 13 addi	a4, a4, 400
0x0000000080004448: 00 d7 07 33 add	a4, a4, a3
0x000000008000444c: ff ff d7 b7 lui	a5, 1048573
0x0000000080004450: 00 f7 07 b3 add	a5, a4, a5
0x0000000080004454: 80 00 07 37 lui	a4, 524288
0x0000000080004458: 46 e7 a4 23 sw	a4, 1128(a5)
0x000000008000445c: ff f0 07 13 addi	a4, zero, -1
0x0000000080004460: 46 e7 a6 23 sw	a4, 1132(a5)
0x0000000080004464: 46 87 a6 83 lw	a3, 1128(a5)
0x0000000080004468: 46 c7 a6 03 lw	a2, 1132(a5)
0x000000008000446c: 80 00 07 37 lui	a4, 524288
0x0000000080004470: ff f7 47 13 not	a4, a4
0x0000000080004474: 00 d6 46 b3 xor	a3, a2, a3
0x0000000080004478: 00 06 86 9b sext.w	a3, a3
0x000000008000447c: 08 e6 86 63 beq	a3, a4, 140
0x0000000080004508: 00 00 57 37 lui	a4, 5
0x000000008000450c: 01 01 06 93 addi	a3, sp, 16
0x0000000080004510: 19 07 07 13 addi	a4, a4, 400
0x0000000080004514: 00 d7 07 33 add	a4, a4, a3
0x0000000080004518: ff ff d7 b7 lui	a5, 1048573
0x000000008000451c: 00 f7 07 b3 add	a5, a4, a5
0x0000000080004520: 80 00 07 37 lui	a4, 524288
0x0000000080004524: 46 e7 a8 23 sw	a4, 1136(a5)
0x0000000080004528: 46 07 aa 23 sw	zero, 1140(a5)
0x000000008000452c: 47 07 a6 83 lw	a3, 1136(a5)
0x0000000080004530: 47 47 a6 03 lw	a2, 1140(a5)
0x0000000080004534: 80 00 07 37 lui	a4, 524288
0x0000000080004538: 00 d6 46 b3 xor	a3, a2, a3
0x000000008000453c: 00 06 86 9b sext.w	a3, a3
0x0000000080004540: 08 e6 84 63 beq	a3, a4, 136
0x00000000800045c8: 00 00 57 37 lui	a4, 5
0x00000000800045cc: 01 01 06 93 addi	a3, sp, 16
0x00000000800045d0: 19 07 07 13 addi	a4, a4, 400
0x00000000800045d4: 00 d7 07 33 add	a4, a4, a3
0x00000000800045d8: ff ff d7 b7 lui	a5, 1048573
0x00000000800045dc: 00 f7 07 b3 add	a5, a4, a5
0x00000000800045e0: 80 00 07 37 lui	a4, 524288
0x00000000800045e4: 46 e7 ac 23 sw	a4, 1144(a5)
0x00000000800045e8: 00 10 07 13 addi	a4, zero, 1
0x00000000800045ec: 46 e7 ae 23 sw	a4, 1148(a5)
0x00000000800045f0: 47 87 a6 83 lw	a3, 1144(a5)
0x00000000800045f4: 47 c7 a6 03 lw	a2, 1148(a5)
0x00000000800045f8: 80 00 07 37 lui	a4, 524288
0x00000000800045fc: 00 17 07 13 addi	a4, a4, 1
0x0000000080004600: 00 d6 46 b3 xor	a3, a2, a3
0x0000000080004604: 00 06 86 9b sext.w	a3, a3
0x0000000080004608: 08 e6 86 63 beq	a3, a4, 140
0x0000000080004694: 00 00 57 37 lui	a4, 5
0x0000000080004698: 01 01 06 93 addi	a3, sp, 16
0x000000008000469c: 19 07 07 13 addi	a4, a4, 400
0x00000000800046a0: 00 d7 07 33 add	a4, a4, a3
0x00000000800046a4: ff ff d7 b7 lui	a5, 1048573
0x00000000800046a8: 00 f7 07 b3 add	a5, a4, a5
0x00000000800046ac: 80 00 07 37 lui	a4, 524288
0x00000000800046b0: 48 e7 a0 23 sw	a4, 1152(a5)
0x00000000800046b4: 00 20 07 13 addi	a4, zero, 2
0x00000000800046b8: 48 e7 a2 23 sw	a4, 1156(a5)
0x00000000800046bc: 48 07 a6 83 lw	a3, 1152(a5)
0x00000000800046c0: 48 47 a6 03 lw	a2, 1156(a5)
0x00000000800046c4: 80 00 07 37 lui	a4, 524288
0x00000000800046c8: 00 27 07 13 addi	a4, a4, 2
0x00000000800046cc: 00 d6 46 b3 xor	a3, a2, a3
0x00000000800046d0: 00 06 86 9b sext.w	a3, a3
0x00000000800046d4: 08 e6 86 63 beq	a3, a4, 140
0x0000000080004760: 00 00 57 37 lui	a4, 5
0x0000000080004764: 01 01 06 93 addi	a3, sp, 16
0x0000000080004768: 19 07 07 13 addi	a4, a4, 400
0x000000008000476c: 00 d7 07 33 add	a4, a4, a3
0x0000000080004770: ff ff d7 b7 lui	a5, 1048573
0x0000000080004774: 00 f7 07 b3 add	a5, a4, a5
0x0000000080004778: 80 00 07 37 lui	a4, 524288
0x000000008000477c: 48 e7 a4 23 sw	a4, 1160(a5)
0x0000000080004780: ff e7 47 13 xori	a4, a4, -2
0x0000000080004784: 48 e7 a6 23 sw	a4, 1164(a5)
0x0000000080004788: 48 87 a6 83 lw	a3, 1160(a5)
0x000000008000478c: 48 c7 a6 03 lw	a2, 1164(a5)
0x0000000080004790: ff e0 07 13 addi	a4, zero, -2
0x0000000080004794: 00 d6 46 b3 xor	a3, a2, a3
0x0000000080004798: 00 06 86 9b sext.w	a3, a3
0x000000008000479c: 08 e6 86 63 beq	a3, a4, 140
0x0000000080004828: 00 00 57 37 lui	a4, 5
0x000000008000482c: 01 01 06 93 addi	a3, sp, 16
0x0000000080004830: 19 07 07 13 addi	a4, a4, 400
0x0000000080004834: 00 d7 07 33 add	a4, a4, a3
0x0000000080004838: ff ff d7 b7 lui	a5, 1048573
0x000000008000483c: 00 f7 07 b3 add	a5, a4, a5
0x0000000080004840: 80 00 07 37 lui	a4, 524288
0x0000000080004844: 48 e7 a8 23 sw	a4, 1168(a5)
0x0000000080004848: ff f7 47 13 not	a4, a4
0x000000008000484c: 48 e7 aa 23 sw	a4, 1172(a5)
0x0000000080004850: 49 07 a6 83 lw	a3, 1168(a5)
0x0000000080004854: 49 47 a6 03 lw	a2, 1172(a5)
0x0000000080004858: ff f0 07 13 addi	a4, zero, -1
0x000000008000485c: 00 d6 46 b3 xor	a3, a2, a3
0x0000000080004860: 00 06 86 9b sext.w	a3, a3
0x0000000080004864: 08 e6 86 63 beq	a3, a4, 140
0x00000000800048f0: 00 00 57 37 lui	a4, 5
0x00000000800048f4: 01 01 06 93 addi	a3, sp, 16
0x00000000800048f8: 19 07 07 13 addi	a4, a4, 400
0x00000000800048fc: 00 d7 07 33 add	a4, a4, a3
0x0000000080004900: ff ff d7 b7 lui	a5, 1048573
0x0000000080004904: 00 f7 07 b3 add	a5, a4, a5
0x0000000080004908: 80 00 07 37 lui	a4, 524288
0x000000008000490c: 00 17 07 1b addiw	a4, a4, 1
0x0000000080004910: 48 e7 ac 23 sw	a4, 1176(a5)
0x0000000080004914: 48 e7 ae 23 sw	a4, 1180(a5)
0x0000000080004918: 49 87 a6 83 lw	a3, 1176(a5)
0x000000008000491c: 49 c7 a7 03 lw	a4, 1180(a5)
0x0000000080004920: 00 06 86 9b sext.w	a3, a3
0x0000000080004924: 00 07 07 1b sext.w	a4, a4
0x0000000080004928: 08 e6 84 63 beq	a3, a4, 136
0x00000000800049b0: 00 00 57 37 lui	a4, 5
0x00000000800049b4: 01 01 06 93 addi	a3, sp, 16
0x00000000800049b8: 19 07 07 13 addi	a4, a4, 400
0x00000000800049bc: 00 d7 07 33 add	a4, a4, a3
0x00000000800049c0: ff ff d7 b7 lui	a5, 1048573
0x00000000800049c4: 00 f7 07 b3 add	a5, a4, a5
0x00000000800049c8: 80 00 07 37 lui	a4, 524288
0x00000000800049cc: 00 17 07 1b addiw	a4, a4, 1
0x00000000800049d0: 4a e7 a0 23 sw	a4, 1184(a5)
0x00000000800049d4: ff e0 07 13 addi	a4, zero, -2
0x00000000800049d8: 4a e7 a2 23 sw	a4, 1188(a5)
0x00000000800049dc: 4a 07 a6 83 lw	a3, 1184(a5)
0x00000000800049e0: 4a 47 a6 03 lw	a2, 1188(a5)
0x00000000800049e4: 80 00 07 37 lui	a4, 524288
0x00000000800049e8: ff f7 47 13 not	a4, a4
0x00000000800049ec: 00 d6 46 b3 xor	a3, a2, a3
0x00000000800049f0: 00 06 86 9b sext.w	a3, a3
0x00000000800049f4: 08 e6 86 63 beq	a3, a4, 140
0x0000000080004a80: 00 00 57 37 lui	a4, 5
0x0000000080004a84: 01 01 06 93 addi	a3, sp, 16
0x0000000080004a88: 19 07 07 13 addi	a4, a4, 400
0x0000000080004a8c: 00 d7 07 33 add	a4, a4, a3
0x0000000080004a90: ff ff d7 b7 lui	a5, 1048573
0x0000000080004a94: 00 f7 07 b3 add	a5, a4, a5
0x0000000080004a98: 80 00 07 37 lui	a4, 524288
0x0000000080004a9c: 00 17 07 1b addiw	a4, a4, 1
0x0000000080004aa0: 4a e7 a4 23 sw	a4, 1192(a5)
0x0000000080004aa4: ff f0 07 13 addi	a4, zero, -1
0x0000000080004aa8: 4a e7 a6 23 sw	a4, 1196(a5)
0x0000000080004aac: 4a 87 a6 83 lw	a3, 1192(a5)
0x0000000080004ab0: 4a c7 a6 03 lw	a2, 1196(a5)
0x0000000080004ab4: 80 00 07 37 lui	a4, 524288
0x0000000080004ab8: ff e7 47 13 xori	a4, a4, -2
0x0000000080004abc: 00 d6 46 b3 xor	a3, a2, a3
0x0000000080004ac0: 00 06 86 9b sext.w	a3, a3
0x0000000080004ac4: 08 e6 86 63 beq	a3, a4, 140
0x0000000080004b50: 00 00 57 37 lui	a4, 5
0x0000000080004b54: 01 01 06 93 addi	a3, sp, 16
0x0000000080004b58: 19 07 07 13 addi	a4, a4, 400
0x0000000080004b5c: 00 d7 07 33 add	a4, a4, a3
0x0000000080004b60: ff ff d7 b7 lui	a5, 1048573
0x0000000080004b64: 00 f7 07 b3 add	a5, a4, a5
0x0000000080004b68: 80 00 07 37 lui	a4, 524288
0x0000000080004b6c: 00 17 07 1b addiw	a4, a4, 1
0x0000000080004b70: 4a e7 a8 23 sw	a4, 1200(a5)
0x0000000080004b74: 4a 07 aa 23 sw	zero, 1204(a5)
0x0000000080004b78: 4b 07 a6 83 lw	a3, 1200(a5)
0x0000000080004b7c: 4b 47 a6 03 lw	a2, 1204(a5)
0x0000000080004b80: 80 00 07 37 lui	a4, 524288
0x0000000080004b84: 00 17 07 13 addi	a4, a4, 1
0x0000000080004b88: 00 d6 46 b3 xor	a3, a2, a3
0x0000000080004b8c: 00 06 86 9b sext.w	a3, a3
0x0000000080004b90: 08 e6 86 63 beq	a3, a4, 140
0x0000000080004c1c: 00 00 57 37 lui	a4, 5
0x0000000080004c20: 01 01 06 93 addi	a3, sp, 16
0x0000000080004c24: 19 07 07 13 addi	a4, a4, 400
0x0000000080004c28: 00 d7 07 33 add	a4, a4, a3
0x0000000080004c2c: ff ff d7 b7 lui	a5, 1048573
0x0000000080004c30: 00 f7 07 b3 add	a5, a4, a5
0x0000000080004c34: 80 00 07 37 lui	a4, 524288
0x0000000080004c38: 00 17 07 1b addiw	a4, a4, 1
0x0000000080004c3c: 4a e7 ac 23 sw	a4, 1208(a5)
0x0000000080004c40: 00 10 07 13 addi	a4, zero, 1
0x0000000080004c44: 4a e7 ae 23 sw	a4, 1212(a5)
0x0000000080004c48: 4b 87 a6 83 lw	a3, 1208(a5)
0x0000000080004c4c: 4b c7 a6 03 lw	a2, 1212(a5)
0x0000000080004c50: 80 00 07 37 lui	a4, 524288
0x0000000080004c54: 00 d6 46 b3 xor	a3, a2, a3
0x0000000080004c58: 00 06 86 9b sext.w	a3, a3
0x0000000080004c5c: 08 e6 86 63 beq	a3, a4, 140
0x0000000080004ce8: 00 00 57 37 lui	a4, 5
0x0000000080004cec: 01 01 06 93 addi	a3, sp, 16
0x0000000080004cf0: 19 07 07 13 addi	a4, a4, 400
0x0000000080004cf4: 00 d7 07 33 add	a4, a4, a3
0x0000000080004cf8: ff ff d7 b7 lui	a5, 1048573
0x0000000080004cfc: 00 f7 07 b3 add	a5, a4, a5
0x0000000080004d00: 80 00 07 37 lui	a4, 524288
0x0000000080004d04: 00 17 07 1b addiw	a4, a4, 1
0x0000000080004d08: 4c e7 a0 23 sw	a4, 1216(a5)
0x0000000080004d0c: 00 20 07 13 addi	a4, zero, 2
0x0000000080004d10: 4c e7 a2 23 sw	a4, 1220(a5)
0x0000000080004d14: 4c 07 a6 83 lw	a3, 1216(a5)
0x0000000080004d18: 4c 47 a6 03 lw	a2, 1220(a5)
0x0000000080004d1c: 80 00 07 37 lui	a4, 524288
0x0000000080004d20: 00 37 07 13 addi	a4, a4, 3
0x0000000080004d24: 00 d6 46 b3 xor	a3, a2, a3
0x0000000080004d28: 00 06 86 9b sext.w	a3, a3
0x0000000080004d2c: 08 e6 86 63 beq	a3, a4, 140
0x0000000080004db8: 00 00 56 b7 lui	a3, 5
0x0000000080004dbc: 01 01 06 13 addi	a2, sp, 16
0x0000000080004dc0: 19 06 86 93 addi	a3, a3, 400
0x0000000080004dc4: 00 c6 86 b3 add	a3, a3, a2
0x0000000080004dc8: 80 00 07 37 lui	a4, 524288
0x0000000080004dcc: ff ff d7 b7 lui	a5, 1048573
0x0000000080004dd0: 00 f6 87 b3 add	a5, a3, a5
0x0000000080004dd4: 00 17 06 9b addiw	a3, a4, 1
0x0000000080004dd8: 4c d7 a4 23 sw	a3, 1224(a5)
0x0000000080004ddc: ff e7 47 13 xori	a4, a4, -2
0x0000000080004de0: 4c e7 a6 23 sw	a4, 1228(a5)
0x0000000080004de4: 4c 87 a6 83 lw	a3, 1224(a5)
0x0000000080004de8: 4c c7 a6 03 lw	a2, 1228(a5)
0x0000000080004dec: ff f0 07 13 addi	a4, zero, -1
0x0000000080004df0: 00 d6 46 b3 xor	a3, a2, a3
0x0000000080004df4: 00 06 86 9b sext.w	a3, a3
0x0000000080004df8: 08 e6 86 63 beq	a3, a4, 140
0x0000000080004e84: 00 00 56 b7 lui	a3, 5
0x0000000080004e88: 01 01 06 13 addi	a2, sp, 16
0x0000000080004e8c: 19 06 86 93 addi	a3, a3, 400
0x0000000080004e90: 00 c6 86 b3 add	a3, a3, a2
0x0000000080004e94: 80 00 07 37 lui	a4, 524288
0x0000000080004e98: ff ff d7 b7 lui	a5, 1048573
0x0000000080004e9c: 00 f6 87 b3 add	a5, a3, a5
0x0000000080004ea0: 00 17 06 9b addiw	a3, a4, 1
0x0000000080004ea4: 4c d7 a8 23 sw	a3, 1232(a5)
0x0000000080004ea8: ff f7 47 13 not	a4, a4
0x0000000080004eac: 4c e7 aa 23 sw	a4, 1236(a5)
0x0000000080004eb0: 4d 07 a6 83 lw	a3, 1232(a5)
0x0000000080004eb4: 4d 47 a6 03 lw	a2, 1236(a5)
0x0000000080004eb8: ff e0 07 13 addi	a4, zero, -2
0x0000000080004ebc: 00 d6 46 b3 xor	a3, a2, a3
0x0000000080004ec0: 00 06 86 9b sext.w	a3, a3
0x0000000080004ec4: 08 e6 86 63 beq	a3, a4, 140
0x0000000080004f50: 00 00 57 37 lui	a4, 5
0x0000000080004f54: 01 01 06 93 addi	a3, sp, 16
0x0000000080004f58: 19 07 07 13 addi	a4, a4, 400
0x0000000080004f5c: 00 d7 07 33 add	a4, a4, a3
0x0000000080004f60: ff ff d7 b7 lui	a5, 1048573
0x0000000080004f64: 00 f7 07 b3 add	a5, a4, a5
0x0000000080004f68: ff e0 07 13 addi	a4, zero, -2
0x0000000080004f6c: 4c e7 ac 23 sw	a4, 1240(a5)
0x0000000080004f70: 4c e7 ae 23 sw	a4, 1244(a5)
0x0000000080004f74: 4d 87 a6 83 lw	a3, 1240(a5)
0x0000000080004f78: 4d c7 a7 03 lw	a4, 1244(a5)
0x0000000080004f7c: 00 06 86 9b sext.w	a3, a3
0x0000000080004f80: 00 07 07 1b sext.w	a4, a4
0x0000000080004f84: 08 e6 84 63 beq	a3, a4, 136
0x000000008000500c: 00 00 57 37 lui	a4, 5
0x0000000080005010: 01 01 06 93 addi	a3, sp, 16
0x0000000080005014: 19 07 07 13 addi	a4, a4, 400
0x0000000080005018: 00 d7 07 33 add	a4, a4, a3
0x000000008000501c: ff ff d7 b7 lui	a5, 1048573
0x0000000080005020: 00 f7 07 b3 add	a5, a4, a5
0x0000000080005024: ff e0 07 13 addi	a4, zero, -2
0x0000000080005028: 4e e7 a0 23 sw	a4, 1248(a5)
0x000000008000502c: ff f0 07 13 addi	a4, zero, -1
0x0000000080005030: 4e e7 a2 23 sw	a4, 1252(a5)
0x0000000080005034: 4e 07 a6 83 lw	a3, 1248(a5)
0x0000000080005038: 4e 47 a6 03 lw	a2, 1252(a5)
0x000000008000503c: 00 10 07 13 addi	a4, zero, 1
0x0000000080005040: 00 d6 46 b3 xor	a3, a2, a3
0x0000000080005044: 00 06 86 9b sext.w	a3, a3
0x0000000080005048: 08 e6 84 63 beq	a3, a4, 136
0x00000000800050d0: 00 00 57 37 lui	a4, 5
0x00000000800050d4: 01 01 06 93 addi	a3, sp, 16
0x00000000800050d8: 19 07 07 13 addi	a4, a4, 400
0x00000000800050dc: 00 d7 07 33 add	a4, a4, a3
0x00000000800050e0: ff ff d7 b7 lui	a5, 1048573
0x00000000800050e4: 00 f7 07 b3 add	a5, a4, a5
0x00000000800050e8: ff e0 07 13 addi	a4, zero, -2
0x00000000800050ec: 4e e7 a4 23 sw	a4, 1256(a5)
0x00000000800050f0: 4e 07 a6 23 sw	zero, 1260(a5)
0x00000000800050f4: 4e 87 a6 83 lw	a3, 1256(a5)
0x00000000800050f8: 4e c7 a6 03 lw	a2, 1260(a5)
0x00000000800050fc: ff e0 07 13 addi	a4, zero, -2
0x0000000080005100: 00 d6 46 b3 xor	a3, a2, a3
0x0000000080005104: 00 06 86 9b sext.w	a3, a3
0x0000000080005108: 08 e6 84 63 beq	a3, a4, 136
0x0000000080005190: 00 00 57 37 lui	a4, 5
0x0000000080005194: 01 01 06 93 addi	a3, sp, 16
0x0000000080005198: 19 07 07 13 addi	a4, a4, 400
0x000000008000519c: 00 d7 07 33 add	a4, a4, a3
0x00000000800051a0: ff ff d7 b7 lui	a5, 1048573
0x00000000800051a4: 00 f7 07 b3 add	a5, a4, a5
0x00000000800051a8: ff e0 07 13 addi	a4, zero, -2
0x00000000800051ac: 4e e7 a8 23 sw	a4, 1264(a5)
0x00000000800051b0: 00 10 07 13 addi	a4, zero, 1
0x00000000800051b4: 4e e7 aa 23 sw	a4, 1268(a5)
0x00000000800051b8: 4f 07 a6 83 lw	a3, 1264(a5)
0x00000000800051bc: 4f 47 a6 03 lw	a2, 1268(a5)
0x00000000800051c0: ff f0 07 13 addi	a4, zero, -1
0x00000000800051c4: 00 d6 46 b3 xor	a3, a2, a3
0x00000000800051c8: 00 06 86 9b sext.w	a3, a3
0x00000000800051cc: 08 e6 84 63 beq	a3, a4, 136
0x0000000080005254: 00 00 57 37 lui	a4, 5
0x0000000080005258: 01 01 06 93 addi	a3, sp, 16
0x000000008000525c: 19 07 07 13 addi	a4, a4, 400
0x0000000080005260: 00 d7 07 33 add	a4, a4, a3
0x0000000080005264: ff ff d7 b7 lui	a5, 1048573
0x0000000080005268: 00 f7 07 b3 add	a5, a4, a5
0x000000008000526c: ff e0 07 13 addi	a4, zero, -2
0x0000000080005270: 4e e7 ac 23 sw	a4, 1272(a5)
0x0000000080005274: 00 20 07 13 addi	a4, zero, 2
0x0000000080005278: 4e e7 ae 23 sw	a4, 1276(a5)
0x000000008000527c: 4f 87 a6 83 lw	a3, 1272(a5)
0x0000000080005280: 4f c7 a6 03 lw	a2, 1276(a5)
0x0000000080005284: ff c0 07 13 addi	a4, zero, -4
0x0000000080005288: 00 d6 46 b3 xor	a3, a2, a3
0x000000008000528c: 00 06 86 9b sext.w	a3, a3
0x0000000080005290: 08 e6 84 63 beq	a3, a4, 136
0x0000000080005318: 00 00 57 37 lui	a4, 5
0x000000008000531c: 01 01 06 93 addi	a3, sp, 16
0x0000000080005320: 19 07 07 13 addi	a4, a4, 400
0x0000000080005324: 00 d7 07 33 add	a4, a4, a3
0x0000000080005328: ff ff d7 b7 lui	a5, 1048573
0x000000008000532c: 00 f7 07 b3 add	a5, a4, a5
0x0000000080005330: ff e0 07 13 addi	a4, zero, -2
0x0000000080005334: 50 e7 a0 23 sw	a4, 1280(a5)
0x0000000080005338: 80 00 07 37 lui	a4, 524288
0x000000008000533c: ff e7 47 13 xori	a4, a4, -2
0x0000000080005340: 50 e7 a2 23 sw	a4, 1284(a5)
0x0000000080005344: 50 07 a6 83 lw	a3, 1280(a5)
0x0000000080005348: 50 47 a6 03 lw	a2, 1284(a5)
0x000000008000534c: 80 00 07 37 lui	a4, 524288
0x0000000080005350: 00 d6 46 b3 xor	a3, a2, a3
0x0000000080005354: 00 06 86 9b sext.w	a3, a3
0x0000000080005358: 08 e6 86 63 beq	a3, a4, 140
0x00000000800053e4: 00 00 57 37 lui	a4, 5
0x00000000800053e8: 01 01 06 93 addi	a3, sp, 16
0x00000000800053ec: 19 07 07 13 addi	a4, a4, 400
0x00000000800053f0: 00 d7 07 33 add	a4, a4, a3
0x00000000800053f4: ff ff d7 b7 lui	a5, 1048573
0x00000000800053f8: 00 f7 07 b3 add	a5, a4, a5
0x00000000800053fc: ff e0 07 13 addi	a4, zero, -2
0x0000000080005400: 50 e7 a4 23 sw	a4, 1288(a5)
0x0000000080005404: 80 00 07 37 lui	a4, 524288
0x0000000080005408: ff f7 47 13 not	a4, a4
0x000000008000540c: 50 e7 a6 23 sw	a4, 1292(a5)
0x0000000080005410: 50 87 a6 83 lw	a3, 1288(a5)
0x0000000080005414: 50 c7 a6 03 lw	a2, 1292(a5)
0x0000000080005418: 80 00 07 37 lui	a4, 524288
0x000000008000541c: 00 17 07 13 addi	a4, a4, 1
0x0000000080005420: 00 d6 46 b3 xor	a3, a2, a3
0x0000000080005424: 00 06 86 9b sext.w	a3, a3
0x0000000080005428: 08 e6 84 63 beq	a3, a4, 136
0x00000000800054b0: 00 00 57 37 lui	a4, 5
0x00000000800054b4: 01 01 06 93 addi	a3, sp, 16
0x00000000800054b8: 19 07 07 13 addi	a4, a4, 400
0x00000000800054bc: 00 d7 07 33 add	a4, a4, a3
0x00000000800054c0: ff ff d7 b7 lui	a5, 1048573
0x00000000800054c4: 00 f7 07 b3 add	a5, a4, a5
0x00000000800054c8: ff f0 07 13 addi	a4, zero, -1
0x00000000800054cc: 50 e7 a8 23 sw	a4, 1296(a5)
0x00000000800054d0: 50 e7 aa 23 sw	a4, 1300(a5)
0x00000000800054d4: 51 07 a6 83 lw	a3, 1296(a5)
0x00000000800054d8: 51 47 a7 03 lw	a4, 1300(a5)
0x00000000800054dc: 00 06 86 9b sext.w	a3, a3
0x00000000800054e0: 00 07 07 1b sext.w	a4, a4
0x00000000800054e4: 08 e6 84 63 beq	a3, a4, 136
0x000000008000556c: 00 00 57 37 lui	a4, 5
0x0000000080005570: 01 01 06 93 addi	a3, sp, 16
0x0000000080005574: 19 07 07 13 addi	a4, a4, 400
0x0000000080005578: 00 d7 07 33 add	a4, a4, a3
0x000000008000557c: ff ff d7 b7 lui	a5, 1048573
0x0000000080005580: 00 f7 07 b3 add	a5, a4, a5
0x0000000080005584: ff f0 07 13 addi	a4, zero, -1
0x0000000080005588: 50 e7 ac 23 sw	a4, 1304(a5)
0x000000008000558c: 50 07 ae 23 sw	zero, 1308(a5)
0x0000000080005590: 51 87 a6 83 lw	a3, 1304(a5)
0x0000000080005594: 51 c7 a6 03 lw	a2, 1308(a5)
0x0000000080005598: ff f0 07 13 addi	a4, zero, -1
0x000000008000559c: 00 d6 46 b3 xor	a3, a2, a3
0x00000000800055a0: 00 06 86 9b sext.w	a3, a3
0x00000000800055a4: 08 e6 84 63 beq	a3, a4, 136
0x000000008000562c: 00 00 57 37 lui	a4, 5
0x0000000080005630: 01 01 06 93 addi	a3, sp, 16
0x0000000080005634: 19 07 07 13 addi	a4, a4, 400
0x0000000080005638: 00 d7 07 33 add	a4, a4, a3
0x000000008000563c: ff ff d7 b7 lui	a5, 1048573
0x0000000080005640: 00 f7 07 b3 add	a5, a4, a5
0x0000000080005644: ff f0 07 13 addi	a4, zero, -1
0x0000000080005648: 52 e7 a0 23 sw	a4, 1312(a5)
0x000000008000564c: 00 10 07 13 addi	a4, zero, 1
0x0000000080005650: 52 e7 a2 23 sw	a4, 1316(a5)
0x0000000080005654: 52 07 a6 83 lw	a3, 1312(a5)
0x0000000080005658: 52 47 a6 03 lw	a2, 1316(a5)
0x000000008000565c: ff e0 07 13 addi	a4, zero, -2
0x0000000080005660: 00 d6 46 b3 xor	a3, a2, a3
0x0000000080005664: 00 06 86 9b sext.w	a3, a3
0x0000000080005668: 08 e6 84 63 beq	a3, a4, 136
0x00000000800056f0: 00 00 57 37 lui	a4, 5
0x00000000800056f4: 01 01 06 93 addi	a3, sp, 16
0x00000000800056f8: 19 07 07 13 addi	a4, a4, 400
0x00000000800056fc: 00 d7 07 33 add	a4, a4, a3
0x0000000080005700: ff ff d7 b7 lui	a5, 1048573
0x0000000080005704: 00 f7 07 b3 add	a5, a4, a5
0x0000000080005708: ff f0 07 13 addi	a4, zero, -1
0x000000008000570c: 52 e7 a4 23 sw	a4, 1320(a5)
0x0000000080005710: 00 20 07 13 addi	a4, zero, 2
0x0000000080005714: 52 e7 a6 23 sw	a4, 1324(a5)
0x0000000080005718: 52 87 a6 83 lw	a3, 1320(a5)
0x000000008000571c: 52 c7 a6 03 lw	a2, 1324(a5)
0x0000000080005720: ff d0 07 13 addi	a4, zero, -3
0x0000000080005724: 00 d6 46 b3 xor	a3, a2, a3
0x0000000080005728: 00 06 86 9b sext.w	a3, a3
0x000000008000572c: 08 e6 84 63 beq	a3, a4, 136
0x00000000800057b4: 00 00 57 37 lui	a4, 5
0x00000000800057b8: 01 01 06 93 addi	a3, sp, 16
0x00000000800057bc: 19 07 07 13 addi	a4, a4, 400
0x00000000800057c0: 00 d7 07 33 add	a4, a4, a3
0x00000000800057c4: ff ff d7 b7 lui	a5, 1048573
0x00000000800057c8: 00 f7 07 b3 add	a5, a4, a5
0x00000000800057cc: ff f0 07 13 addi	a4, zero, -1
0x00000000800057d0: 52 e7 a8 23 sw	a4, 1328(a5)
0x00000000800057d4: 80 00 07 37 lui	a4, 524288
0x00000000800057d8: ff e7 47 13 xori	a4, a4, -2
0x00000000800057dc: 52 e7 aa 23 sw	a4, 1332(a5)
0x00000000800057e0: 53 07 a6 83 lw	a3, 1328(a5)
0x00000000800057e4: 53 47 a6 03 lw	a2, 1332(a5)
0x00000000800057e8: 80 00 07 37 lui	a4, 524288
0x00000000800057ec: 00 17 07 13 addi	a4, a4, 1
0x00000000800057f0: 00 d6 46 b3 xor	a3, a2, a3
0x00000000800057f4: 00 06 86 9b sext.w	a3, a3
0x00000000800057f8: 08 e6 84 63 beq	a3, a4, 136
0x0000000080005880: 00 00 57 37 lui	a4, 5
0x0000000080005884: 01 01 06 93 addi	a3, sp, 16
0x0000000080005888: 19 07 07 13 addi	a4, a4, 400
0x000000008000588c: 00 d7 07 33 add	a4, a4, a3
0x0000000080005890: ff ff d7 b7 lui	a5, 1048573
0x0000000080005894: 00 f7 07 b3 add	a5, a4, a5
0x0000000080005898: ff f0 07 13 addi	a4, zero, -1
0x000000008000589c: 52 e7 ac 23 sw	a4, 1336(a5)
0x00000000800058a0: 80 00 07 37 lui	a4, 524288
0x00000000800058a4: ff f7 47 13 not	a4, a4
0x00000000800058a8: 52 e7 ae 23 sw	a4, 1340(a5)
0x00000000800058ac: 53 87 a6 83 lw	a3, 1336(a5)
0x00000000800058b0: 53 c7 a6 03 lw	a2, 1340(a5)
0x00000000800058b4: 80 00 07 37 lui	a4, 524288
0x00000000800058b8: 00 d6 46 b3 xor	a3, a2, a3
0x00000000800058bc: 00 06 86 9b sext.w	a3, a3
0x00000000800058c0: 08 e6 86 63 beq	a3, a4, 140
0x000000008000594c: 00 00 57 37 lui	a4, 5
0x0000000080005950: 01 01 06 93 addi	a3, sp, 16
0x0000000080005954: 19 07 07 13 addi	a4, a4, 400
0x0000000080005958: 00 d7 07 33 add	a4, a4, a3
0x000000008000595c: ff ff d7 b7 lui	a5, 1048573
0x0000000080005960: 00 f7 07 b3 add	a5, a4, a5
0x0000000080005964: 54 07 a0 23 sw	zero, 1344(a5)
0x0000000080005968: 54 07 a2 23 sw	zero, 1348(a5)
0x000000008000596c: 54 07 a6 83 lw	a3, 1344(a5)
0x0000000080005970: 54 47 a7 03 lw	a4, 1348(a5)
0x0000000080005974: 00 06 86 9b sext.w	a3, a3
0x0000000080005978: 00 07 07 1b sext.w	a4, a4
0x000000008000597c: 08 e6 84 63 beq	a3, a4, 136
0x0000000080005a04: 00 00 57 37 lui	a4, 5
0x0000000080005a08: 01 01 06 93 addi	a3, sp, 16
0x0000000080005a0c: 19 07 07 13 addi	a4, a4, 400
0x0000000080005a10: 00 d7 07 33 add	a4, a4, a3
0x0000000080005a14: ff ff d7 b7 lui	a5, 1048573
0x0000000080005a18: 00 f7 07 b3 add	a5, a4, a5
0x0000000080005a1c: 54 07 a4 23 sw	zero, 1352(a5)
0x0000000080005a20: 00 10 07 13 addi	a4, zero, 1
0x0000000080005a24: 54 e7 a6 23 sw	a4, 1356(a5)
0x0000000080005a28: 54 87 a6 83 lw	a3, 1352(a5)
0x0000000080005a2c: 54 c7 a6 03 lw	a2, 1356(a5)
0x0000000080005a30: 00 10 07 13 addi	a4, zero, 1
0x0000000080005a34: 00 d6 46 b3 xor	a3, a2, a3
0x0000000080005a38: 00 06 86 9b sext.w	a3, a3
0x0000000080005a3c: 08 e6 84 63 beq	a3, a4, 136
0x0000000080005ac4: 00 00 57 37 lui	a4, 5
0x0000000080005ac8: 01 01 06 93 addi	a3, sp, 16
0x0000000080005acc: 19 07 07 13 addi	a4, a4, 400
0x0000000080005ad0: 00 d7 07 33 add	a4, a4, a3
0x0000000080005ad4: ff ff d7 b7 lui	a5, 1048573
0x0000000080005ad8: 00 f7 07 b3 add	a5, a4, a5
0x0000000080005adc: 54 07 a8 23 sw	zero, 1360(a5)
0x0000000080005ae0: 00 20 07 13 addi	a4, zero, 2
0x0000000080005ae4: 54 e7 aa 23 sw	a4, 1364(a5)
0x0000000080005ae8: 55 07 a6 83 lw	a3, 1360(a5)
0x0000000080005aec: 55 47 a6 03 lw	a2, 1364(a5)
0x0000000080005af0: 00 20 07 13 addi	a4, zero, 2
0x0000000080005af4: 00 d6 46 b3 xor	a3, a2, a3
0x0000000080005af8: 00 06 86 9b sext.w	a3, a3
0x0000000080005afc: 08 e6 84 63 beq	a3, a4, 136
0x0000000080005b84: 00 00 57 37 lui	a4, 5
0x0000000080005b88: 01 01 06 93 addi	a3, sp, 16
0x0000000080005b8c: 19 07 07 13 addi	a4, a4, 400
0x0000000080005b90: 00 d7 07 33 add	a4, a4, a3
0x0000000080005b94: ff ff d7 b7 lui	a5, 1048573
0x0000000080005b98: 00 f7 07 b3 add	a5, a4, a5
0x0000000080005b9c: 80 00 07 37 lui	a4, 524288
0x0000000080005ba0: 54 07 ac 23 sw	zero, 1368(a5)
0x0000000080005ba4: ff e7 47 13 xori	a4, a4, -2
0x0000000080005ba8: 54 e7 ae 23 sw	a4, 1372(a5)
0x0000000080005bac: 55 87 a6 83 lw	a3, 1368(a5)
0x0000000080005bb0: 55 c7 a6 03 lw	a2, 1372(a5)
0x0000000080005bb4: 80 00 07 37 lui	a4, 524288
0x0000000080005bb8: ff e7 47 13 xori	a4, a4, -2
0x0000000080005bbc: 00 d6 46 b3 xor	a3, a2, a3
0x0000000080005bc0: 00 06 86 9b sext.w	a3, a3
0x0000000080005bc4: 08 e6 86 63 beq	a3, a4, 140
0x0000000080005c50: 00 00 57 37 lui	a4, 5
0x0000000080005c54: 01 01 06 93 addi	a3, sp, 16
0x0000000080005c58: 19 07 07 13 addi	a4, a4, 400
0x0000000080005c5c: 00 d7 07 33 add	a4, a4, a3
0x0000000080005c60: ff ff d7 b7 lui	a5, 1048573
0x0000000080005c64: 00 f7 07 b3 add	a5, a4, a5
0x0000000080005c68: 80 00 07 37 lui	a4, 524288
0x0000000080005c6c: 56 07 a0 23 sw	zero, 1376(a5)
0x0000000080005c70: ff f7 47 13 not	a4, a4
0x0000000080005c74: 56 e7 a2 23 sw	a4, 1380(a5)
0x0000000080005c78: 56 07 a6 83 lw	a3, 1376(a5)
0x0000000080005c7c: 56 47 a6 03 lw	a2, 1380(a5)
0x0000000080005c80: 80 00 07 37 lui	a4, 524288
0x0000000080005c84: ff f7 47 13 not	a4, a4
0x0000000080005c88: 00 d6 46 b3 xor	a3, a2, a3
0x0000000080005c8c: 00 06 86 9b sext.w	a3, a3
0x0000000080005c90: 08 e6 86 63 beq	a3, a4, 140
0x0000000080005d1c: 00 00 57 37 lui	a4, 5
0x0000000080005d20: 01 01 06 93 addi	a3, sp, 16
0x0000000080005d24: 19 07 07 13 addi	a4, a4, 400
0x0000000080005d28: 00 d7 07 33 add	a4, a4, a3
0x0000000080005d2c: ff ff d7 b7 lui	a5, 1048573
0x0000000080005d30: 00 f7 07 b3 add	a5, a4, a5
0x0000000080005d34: 00 10 07 13 addi	a4, zero, 1
0x0000000080005d38: 56 e7 a4 23 sw	a4, 1384(a5)
0x0000000080005d3c: 56 e7 a6 23 sw	a4, 1388(a5)
0x0000000080005d40: 56 87 a6 83 lw	a3, 1384(a5)
0x0000000080005d44: 56 c7 a7 03 lw	a4, 1388(a5)
0x0000000080005d48: 00 06 86 9b sext.w	a3, a3
0x0000000080005d4c: 00 07 07 1b sext.w	a4, a4
0x0000000080005d50: 08 e6 84 63 beq	a3, a4, 136
0x0000000080005dd8: 00 00 57 37 lui	a4, 5
0x0000000080005ddc: 01 01 06 93 addi	a3, sp, 16
0x0000000080005de0: 19 07 07 13 addi	a4, a4, 400
0x0000000080005de4: 00 d7 07 33 add	a4, a4, a3
0x0000000080005de8: ff ff d7 b7 lui	a5, 1048573
0x0000000080005dec: 00 f7 07 b3 add	a5, a4, a5
0x0000000080005df0: 00 10 07 13 addi	a4, zero, 1
0x0000000080005df4: 56 e7 a8 23 sw	a4, 1392(a5)
0x0000000080005df8: 00 20 07 13 addi	a4, zero, 2
0x0000000080005dfc: 56 e7 aa 23 sw	a4, 1396(a5)
0x0000000080005e00: 57 07 a6 83 lw	a3, 1392(a5)
0x0000000080005e04: 57 47 a6 03 lw	a2, 1396(a5)
0x0000000080005e08: 00 30 07 13 addi	a4, zero, 3
0x0000000080005e0c: 00 d6 46 b3 xor	a3, a2, a3
0x0000000080005e10: 00 06 86 9b sext.w	a3, a3
0x0000000080005e14: 08 e6 84 63 beq	a3, a4, 136
0x0000000080005e9c: 00 00 57 37 lui	a4, 5
0x0000000080005ea0: 01 01 06 93 addi	a3, sp, 16
0x0000000080005ea4: 19 07 07 13 addi	a4, a4, 400
0x0000000080005ea8: 00 d7 07 33 add	a4, a4, a3
0x0000000080005eac: ff ff d7 b7 lui	a5, 1048573
0x0000000080005eb0: 00 f7 07 b3 add	a5, a4, a5
0x0000000080005eb4: 00 10 07 13 addi	a4, zero, 1
0x0000000080005eb8: 56 e7 ac 23 sw	a4, 1400(a5)
0x0000000080005ebc: 80 00 07 37 lui	a4, 524288
0x0000000080005ec0: ff e7 47 13 xori	a4, a4, -2
0x0000000080005ec4: 56 e7 ae 23 sw	a4, 1404(a5)
0x0000000080005ec8: 57 87 a6 83 lw	a3, 1400(a5)
0x0000000080005ecc: 57 c7 a6 03 lw	a2, 1404(a5)
0x0000000080005ed0: 80 00 07 37 lui	a4, 524288
0x0000000080005ed4: ff f7 47 13 not	a4, a4
0x0000000080005ed8: 00 d6 46 b3 xor	a3, a2, a3
0x0000000080005edc: 00 06 86 9b sext.w	a3, a3
0x0000000080005ee0: 08 e6 84 63 beq	a3, a4, 136
0x0000000080005f68: 00 00 57 37 lui	a4, 5
0x0000000080005f6c: 01 01 06 93 addi	a3, sp, 16
0x0000000080005f70: 19 07 07 13 addi	a4, a4, 400
0x0000000080005f74: 00 d7 07 33 add	a4, a4, a3
0x0000000080005f78: ff ff d7 b7 lui	a5, 1048573
0x0000000080005f7c: 00 f7 07 b3 add	a5, a4, a5
0x0000000080005f80: 00 10 07 13 addi	a4, zero, 1
0x0000000080005f84: 58 e7 a0 23 sw	a4, 1408(a5)
0x0000000080005f88: 80 00 07 37 lui	a4, 524288
0x0000000080005f8c: ff f7 47 13 not	a4, a4
0x0000000080005f90: 58 e7 a2 23 sw	a4, 1412(a5)
0x0000000080005f94: 58 07 a6 83 lw	a3, 1408(a5)
0x0000000080005f98: 58 47 a6 03 lw	a2, 1412(a5)
0x0000000080005f9c: 80 00 07 37 lui	a4, 524288
0x0000000080005fa0: ff e7 47 13 xori	a4, a4, -2
0x0000000080005fa4: 00 d6 46 b3 xor	a3, a2, a3
0x0000000080005fa8: 00 06 86 9b sext.w	a3, a3
0x0000000080005fac: 08 e6 84 63 beq	a3, a4, 136
0x0000000080006034: 00 00 57 37 lui	a4, 5
0x0000000080006038: 01 01 06 93 addi	a3, sp, 16
0x000000008000603c: 19 07 07 13 addi	a4, a4, 400
0x0000000080006040: 00 d7 07 33 add	a4, a4, a3
0x0000000080006044: ff ff d7 b7 lui	a5, 1048573
0x0000000080006048: 00 f7 07 b3 add	a5, a4, a5
0x000000008000604c: 00 20 07 13 addi	a4, zero, 2
0x0000000080006050: 58 e7 a4 23 sw	a4, 1416(a5)
0x0000000080006054: 58 e7 a6 23 sw	a4, 1420(a5)
0x0000000080006058: 58 87 a6 83 lw	a3, 1416(a5)
0x000000008000605c: 58 c7 a7 03 lw	a4, 1420(a5)
0x0000000080006060: 00 06 86 9b sext.w	a3, a3
0x0000000080006064: 00 07 07 1b sext.w	a4, a4
0x0000000080006068: 08 e6 84 63 beq	a3, a4, 136
0x00000000800060f0: 00 00 57 37 lui	a4, 5
0x00000000800060f4: 01 01 06 93 addi	a3, sp, 16
0x00000000800060f8: 19 07 07 13 addi	a4, a4, 400
0x00000000800060fc: 00 d7 07 33 add	a4, a4, a3
0x0000000080006100: ff ff d7 b7 lui	a5, 1048573
0x0000000080006104: 00 f7 07 b3 add	a5, a4, a5
0x0000000080006108: 00 20 07 13 addi	a4, zero, 2
0x000000008000610c: 58 e7 a8 23 sw	a4, 1424(a5)
0x0000000080006110: 80 00 07 37 lui	a4, 524288
0x0000000080006114: ff e7 47 13 xori	a4, a4, -2
0x0000000080006118: 58 e7 aa 23 sw	a4, 1428(a5)
0x000000008000611c: 59 07 a6 83 lw	a3, 1424(a5)
0x0000000080006120: 59 47 a6 03 lw	a2, 1428(a5)
0x0000000080006124: 80 00 07 37 lui	a4, 524288
0x0000000080006128: ff c7 47 13 xori	a4, a4, -4
0x000000008000612c: 00 d6 46 b3 xor	a3, a2, a3
0x0000000080006130: 00 06 86 9b sext.w	a3, a3
0x0000000080006134: 08 e6 84 63 beq	a3, a4, 136
0x00000000800061bc: 00 00 57 37 lui	a4, 5
0x00000000800061c0: 01 01 06 93 addi	a3, sp, 16
0x00000000800061c4: 19 07 07 13 addi	a4, a4, 400
0x00000000800061c8: 00 d7 07 33 add	a4, a4, a3
0x00000000800061cc: ff ff d7 b7 lui	a5, 1048573
0x00000000800061d0: 00 f7 07 b3 add	a5, a4, a5
0x00000000800061d4: 00 20 07 13 addi	a4, zero, 2
0x00000000800061d8: 58 e7 ac 23 sw	a4, 1432(a5)
0x00000000800061dc: 80 00 07 37 lui	a4, 524288
0x00000000800061e0: ff f7 47 13 not	a4, a4
0x00000000800061e4: 58 e7 ae 23 sw	a4, 1436(a5)
0x00000000800061e8: 59 87 a6 83 lw	a3, 1432(a5)
0x00000000800061ec: 59 c7 a6 03 lw	a2, 1436(a5)
0x00000000800061f0: 80 00 07 37 lui	a4, 524288
0x00000000800061f4: ff d7 47 13 xori	a4, a4, -3
0x00000000800061f8: 00 d6 46 b3 xor	a3, a2, a3
0x00000000800061fc: 00 06 86 9b sext.w	a3, a3
0x0000000080006200: 08 e6 84 63 beq	a3, a4, 136
0x0000000080006288: 00 00 57 37 lui	a4, 5
0x000000008000628c: 01 01 06 93 addi	a3, sp, 16
0x0000000080006290: 19 07 07 13 addi	a4, a4, 400
0x0000000080006294: 00 d7 07 33 add	a4, a4, a3
0x0000000080006298: ff ff d7 b7 lui	a5, 1048573
0x000000008000629c: 00 f7 07 b3 add	a5, a4, a5
0x00000000800062a0: 80 00 07 37 lui	a4, 524288
0x00000000800062a4: ff e7 47 13 xori	a4, a4, -2
0x00000000800062a8: 5a e7 a0 23 sw	a4, 1440(a5)
0x00000000800062ac: 5a e7 a2 23 sw	a4, 1444(a5)
0x00000000800062b0: 5a 07 a6 83 lw	a3, 1440(a5)
0x00000000800062b4: 5a 47 a7 03 lw	a4, 1444(a5)
0x00000000800062b8: 00 06 86 9b sext.w	a3, a3
0x00000000800062bc: 00 07 07 1b sext.w	a4, a4
0x00000000800062c0: 08 e6 84 63 beq	a3, a4, 136
0x0000000080006348: 00 00 56 b7 lui	a3, 5
0x000000008000634c: 01 01 06 13 addi	a2, sp, 16
0x0000000080006350: 19 06 86 93 addi	a3, a3, 400
0x0000000080006354: 00 c6 86 b3 add	a3, a3, a2
0x0000000080006358: 80 00 07 37 lui	a4, 524288
0x000000008000635c: ff ff d7 b7 lui	a5, 1048573
0x0000000080006360: 00 f6 87 b3 add	a5, a3, a5
0x0000000080006364: ff e7 46 93 xori	a3, a4, -2
0x0000000080006368: 5a d7 a4 23 sw	a3, 1448(a5)
0x000000008000636c: ff f7 47 13 not	a4, a4
0x0000000080006370: 5a e7 a6 23 sw	a4, 1452(a5)
0x0000000080006374: 5a 87 a6 83 lw	a3, 1448(a5)
0x0000000080006378: 5a c7 a6 03 lw	a2, 1452(a5)
0x000000008000637c: 00 10 07 13 addi	a4, zero, 1
0x0000000080006380: 00 d6 46 b3 xor	a3, a2, a3
0x0000000080006384: 00 06 86 9b sext.w	a3, a3
0x0000000080006388: 08 e6 86 63 beq	a3, a4, 140
0x0000000080006414: 00 00 57 37 lui	a4, 5
0x0000000080006418: 01 01 06 93 addi	a3, sp, 16
0x000000008000641c: 19 07 07 13 addi	a4, a4, 400
0x0000000080006420: 00 d7 07 33 add	a4, a4, a3
0x0000000080006424: ff ff d7 b7 lui	a5, 1048573
0x0000000080006428: 00 f7 07 b3 add	a5, a4, a5
0x000000008000642c: 80 00 07 37 lui	a4, 524288
0x0000000080006430: ff f7 47 13 not	a4, a4
0x0000000080006434: 5a e7 a8 23 sw	a4, 1456(a5)
0x0000000080006438: 5a e7 aa 23 sw	a4, 1460(a5)
0x000000008000643c: 5b 07 a6 83 lw	a3, 1456(a5)
0x0000000080006440: 5b 47 a7 03 lw	a4, 1460(a5)
0x0000000080006444: 00 06 86 9b sext.w	a3, a3
0x0000000080006448: 00 07 07 1b sext.w	a4, a4
0x000000008000644c: 08 e6 84 63 beq	a3, a4, 136
0x00000000800064d4: 00 00 57 37 lui	a4, 5
0x00000000800064d8: 01 01 06 93 addi	a3, sp, 16
0x00000000800064dc: 19 07 07 13 addi	a4, a4, 400
0x00000000800064e0: 00 d7 07 33 add	a4, a4, a3
0x00000000800064e4: ff ff d7 b7 lui	a5, 1048573
0x00000000800064e8: 00 f7 07 b3 add	a5, a4, a5
0x00000000800064ec: 80 00 07 37 lui	a4, 524288
0x00000000800064f0: 5a e7 ac 23 sw	a4, 1464(a5)
0x00000000800064f4: 5a e7 ae 23 sw	a4, 1468(a5)
0x00000000800064f8: 5b 87 a6 83 lw	a3, 1464(a5)
0x00000000800064fc: 5b c7 a6 03 lw	a2, 1468(a5)
0x0000000080006500: 80 00 07 37 lui	a4, 524288
0x0000000080006504: 00 d6 76 b3 and	a3, a2, a3
0x0000000080006508: 00 06 86 9b sext.w	a3, a3
0x000000008000650c: 08 e6 84 63 beq	a3, a4, 136
0x0000000080006594: 00 00 57 37 lui	a4, 5
0x0000000080006598: 01 01 06 93 addi	a3, sp, 16
0x000000008000659c: 19 07 07 13 addi	a4, a4, 400
0x00000000800065a0: 00 d7 07 33 add	a4, a4, a3
0x00000000800065a4: ff ff d7 b7 lui	a5, 1048573
0x00000000800065a8: 00 f7 07 b3 add	a5, a4, a5
0x00000000800065ac: 80 00 07 37 lui	a4, 524288
0x00000000800065b0: 5c e7 a0 23 sw	a4, 1472(a5)
0x00000000800065b4: 00 17 07 1b addiw	a4, a4, 1
0x00000000800065b8: 5c e7 a2 23 sw	a4, 1476(a5)
0x00000000800065bc: 5c 07 a6 83 lw	a3, 1472(a5)
0x00000000800065c0: 5c 47 a6 03 lw	a2, 1476(a5)
0x00000000800065c4: 80 00 07 37 lui	a4, 524288
0x00000000800065c8: 00 d6 76 b3 and	a3, a2, a3
0x00000000800065cc: 00 06 86 9b sext.w	a3, a3
0x00000000800065d0: 08 e6 86 63 beq	a3, a4, 140
0x000000008000665c: 00 00 57 37 lui	a4, 5
0x0000000080006660: 01 01 06 93 addi	a3, sp, 16
0x0000000080006664: 19 07 07 13 addi	a4, a4, 400
0x0000000080006668: 00 d7 07 33 add	a4, a4, a3
0x000000008000666c: ff ff d7 b7 lui	a5, 1048573
0x0000000080006670: 00 f7 07 b3 add	a5, a4, a5
0x0000000080006674: 80 00 07 37 lui	a4, 524288
0x0000000080006678: 5c e7 a4 23 sw	a4, 1480(a5)
0x000000008000667c: ff e0 07 13 addi	a4, zero, -2
0x0000000080006680: 5c e7 a6 23 sw	a4, 1484(a5)
0x0000000080006684: 5c 87 a6 83 lw	a3, 1480(a5)
0x0000000080006688: 5c c7 a6 03 lw	a2, 1484(a5)
0x000000008000668c: 80 00 07 37 lui	a4, 524288
0x0000000080006690: 00 d6 76 b3 and	a3, a2, a3
0x0000000080006694: 00 06 86 9b sext.w	a3, a3
0x0000000080006698: 08 e6 84 63 beq	a3, a4, 136
0x0000000080006720: 00 00 57 37 lui	a4, 5
0x0000000080006724: 01 01 06 93 addi	a3, sp, 16
0x0000000080006728: 19 07 07 13 addi	a4, a4, 400
0x000000008000672c: 00 d7 07 33 add	a4, a4, a3
0x0000000080006730: ff ff d7 b7 lui	a5, 1048573
0x0000000080006734: 00 f7 07 b3 add	a5, a4, a5
0x0000000080006738: 80 00 07 37 lui	a4, 524288
0x000000008000673c: 5c e7 a8 23 sw	a4, 1488(a5)
0x0000000080006740: ff f0 07 13 addi	a4, zero, -1
0x0000000080006744: 5c e7 aa 23 sw	a4, 1492(a5)
0x0000000080006748: 5d 07 a6 83 lw	a3, 1488(a5)
0x000000008000674c: 5d 47 a6 03 lw	a2, 1492(a5)
0x0000000080006750: 80 00 07 37 lui	a4, 524288
0x0000000080006754: 00 d6 76 b3 and	a3, a2, a3
0x0000000080006758: 00 06 86 9b sext.w	a3, a3
0x000000008000675c: 08 e6 84 63 beq	a3, a4, 136
0x00000000800067e4: 00 00 57 37 lui	a4, 5
0x00000000800067e8: 01 01 06 93 addi	a3, sp, 16
0x00000000800067ec: 19 07 07 13 addi	a4, a4, 400
0x00000000800067f0: 00 d7 07 33 add	a4, a4, a3
0x00000000800067f4: ff ff d7 b7 lui	a5, 1048573
0x00000000800067f8: 00 f7 07 b3 add	a5, a4, a5
0x00000000800067fc: 80 00 07 37 lui	a4, 524288
0x0000000080006800: 5c e7 ac 23 sw	a4, 1496(a5)
0x0000000080006804: 5c 07 ae 23 sw	zero, 1500(a5)
0x0000000080006808: 5d 87 a7 03 lw	a4, 1496(a5)
0x000000008000680c: 5d c7 a6 83 lw	a3, 1500(a5)
0x0000000080006810: 00 e6 f7 33 and	a4, a3, a4
0x0000000080006814: 00 07 07 1b sext.w	a4, a4
0x0000000080006818: 08 07 04 63 beqz	a4, 136
0x00000000800068a0: 00 00 57 37 lui	a4, 5
0x00000000800068a4: 01 01 06 93 addi	a3, sp, 16
0x00000000800068a8: 19 07 07 13 addi	a4, a4, 400
0x00000000800068ac: 00 d7 07 33 add	a4, a4, a3
0x00000000800068b0: ff ff d7 b7 lui	a5, 1048573
0x00000000800068b4: 00 f7 07 b3 add	a5, a4, a5
0x00000000800068b8: 80 00 07 37 lui	a4, 524288
0x00000000800068bc: 5e e7 a0 23 sw	a4, 1504(a5)
0x00000000800068c0: 00 10 07 13 addi	a4, zero, 1
0x00000000800068c4: 5e e7 a2 23 sw	a4, 1508(a5)
0x00000000800068c8: 5e 07 a7 03 lw	a4, 1504(a5)
0x00000000800068cc: 5e 47 a6 83 lw	a3, 1508(a5)
0x00000000800068d0: 00 e6 f7 33 and	a4, a3, a4
0x00000000800068d4: 00 07 07 1b sext.w	a4, a4
0x00000000800068d8: 08 07 04 63 beqz	a4, 136
0x0000000080006960: 00 00 57 37 lui	a4, 5
0x0000000080006964: 01 01 06 93 addi	a3, sp, 16
0x0000000080006968: 19 07 07 13 addi	a4, a4, 400
0x000000008000696c: 00 d7 07 33 add	a4, a4, a3
0x0000000080006970: ff ff d7 b7 lui	a5, 1048573
0x0000000080006974: 00 f7 07 b3 add	a5, a4, a5
0x0000000080006978: 80 00 07 37 lui	a4, 524288
0x000000008000697c: 5e e7 a4 23 sw	a4, 1512(a5)
0x0000000080006980: 00 20 07 13 addi	a4, zero, 2
0x0000000080006984: 5e e7 a6 23 sw	a4, 1516(a5)
0x0000000080006988: 5e 87 a7 03 lw	a4, 1512(a5)
0x000000008000698c: 5e c7 a6 83 lw	a3, 1516(a5)
0x0000000080006990: 00 e6 f7 33 and	a4, a3, a4
0x0000000080006994: 00 07 07 1b sext.w	a4, a4
0x0000000080006998: 08 07 04 63 beqz	a4, 136
0x0000000080006a20: 00 00 57 37 lui	a4, 5
0x0000000080006a24: 01 01 06 93 addi	a3, sp, 16
0x0000000080006a28: 19 07 07 13 addi	a4, a4, 400
0x0000000080006a2c: 00 d7 07 33 add	a4, a4, a3
0x0000000080006a30: ff ff d7 b7 lui	a5, 1048573
0x0000000080006a34: 00 f7 07 b3 add	a5, a4, a5
0x0000000080006a38: 80 00 07 37 lui	a4, 524288
0x0000000080006a3c: 5e e7 a8 23 sw	a4, 1520(a5)
0x0000000080006a40: ff e7 47 13 xori	a4, a4, -2
0x0000000080006a44: 5e e7 aa 23 sw	a4, 1524(a5)
0x0000000080006a48: 5f 07 a7 03 lw	a4, 1520(a5)
0x0000000080006a4c: 5f 47 a6 83 lw	a3, 1524(a5)
0x0000000080006a50: 00 e6 f7 33 and	a4, a3, a4
0x0000000080006a54: 00 07 07 1b sext.w	a4, a4
0x0000000080006a58: 08 07 06 63 beqz	a4, 140
0x0000000080006ae4: 00 00 57 37 lui	a4, 5
0x0000000080006ae8: 01 01 06 93 addi	a3, sp, 16
0x0000000080006aec: 19 07 07 13 addi	a4, a4, 400
0x0000000080006af0: 00 d7 07 33 add	a4, a4, a3
0x0000000080006af4: ff ff d7 b7 lui	a5, 1048573
0x0000000080006af8: 00 f7 07 b3 add	a5, a4, a5
0x0000000080006afc: 80 00 07 37 lui	a4, 524288
0x0000000080006b00: 5e e7 ac 23 sw	a4, 1528(a5)
0x0000000080006b04: ff f7 47 13 not	a4, a4
0x0000000080006b08: 5e e7 ae 23 sw	a4, 1532(a5)
0x0000000080006b0c: 5f 87 a7 03 lw	a4, 1528(a5)
0x0000000080006b10: 5f c7 a6 83 lw	a3, 1532(a5)
0x0000000080006b14: 00 e6 f7 33 and	a4, a3, a4
0x0000000080006b18: 00 07 07 1b sext.w	a4, a4
0x0000000080006b1c: 08 07 06 63 beqz	a4, 140
0x0000000080006ba8: 00 00 57 37 lui	a4, 5
0x0000000080006bac: 01 01 06 93 addi	a3, sp, 16
0x0000000080006bb0: 19 07 07 13 addi	a4, a4, 400
0x0000000080006bb4: 00 d7 07 33 add	a4, a4, a3
0x0000000080006bb8: ff ff d7 b7 lui	a5, 1048573
0x0000000080006bbc: 00 f7 07 b3 add	a5, a4, a5
0x0000000080006bc0: 80 00 07 37 lui	a4, 524288
0x0000000080006bc4: 00 17 07 1b addiw	a4, a4, 1
0x0000000080006bc8: 60 e7 a0 23 sw	a4, 1536(a5)
0x0000000080006bcc: 60 e7 a2 23 sw	a4, 1540(a5)
0x0000000080006bd0: 60 07 a6 83 lw	a3, 1536(a5)
0x0000000080006bd4: 60 47 a6 03 lw	a2, 1540(a5)
0x0000000080006bd8: 80 00 07 37 lui	a4, 524288
0x0000000080006bdc: 00 17 07 13 addi	a4, a4, 1
0x0000000080006be0: 00 d6 76 b3 and	a3, a2, a3
0x0000000080006be4: 00 06 86 9b sext.w	a3, a3
0x0000000080006be8: 08 e6 86 63 beq	a3, a4, 140
0x0000000080006c74: 00 00 57 37 lui	a4, 5
0x0000000080006c78: 01 01 06 93 addi	a3, sp, 16
0x0000000080006c7c: 19 07 07 13 addi	a4, a4, 400
0x0000000080006c80: 00 d7 07 33 add	a4, a4, a3
0x0000000080006c84: ff ff d7 b7 lui	a5, 1048573
0x0000000080006c88: 00 f7 07 b3 add	a5, a4, a5
0x0000000080006c8c: 80 00 07 37 lui	a4, 524288
0x0000000080006c90: 00 17 07 1b addiw	a4, a4, 1
0x0000000080006c94: 60 e7 a4 23 sw	a4, 1544(a5)
0x0000000080006c98: ff e0 07 13 addi	a4, zero, -2
0x0000000080006c9c: 60 e7 a6 23 sw	a4, 1548(a5)
0x0000000080006ca0: 60 87 a6 83 lw	a3, 1544(a5)
0x0000000080006ca4: 60 c7 a6 03 lw	a2, 1548(a5)
0x0000000080006ca8: 80 00 07 37 lui	a4, 524288
0x0000000080006cac: 00 d6 76 b3 and	a3, a2, a3
0x0000000080006cb0: 00 06 86 9b sext.w	a3, a3
0x0000000080006cb4: 08 e6 86 63 beq	a3, a4, 140
0x0000000080006d40: 00 00 57 37 lui	a4, 5
0x0000000080006d44: 01 01 06 93 addi	a3, sp, 16
0x0000000080006d48: 19 07 07 13 addi	a4, a4, 400
0x0000000080006d4c: 00 d7 07 33 add	a4, a4, a3
0x0000000080006d50: ff ff d7 b7 lui	a5, 1048573
0x0000000080006d54: 00 f7 07 b3 add	a5, a4, a5
0x0000000080006d58: 80 00 07 37 lui	a4, 524288
0x0000000080006d5c: 00 17 07 1b addiw	a4, a4, 1
0x0000000080006d60: 60 e7 a8 23 sw	a4, 1552(a5)
0x0000000080006d64: ff f0 07 13 addi	a4, zero, -1
0x0000000080006d68: 60 e7 aa 23 sw	a4, 1556(a5)
0x0000000080006d6c: 61 07 a6 83 lw	a3, 1552(a5)
0x0000000080006d70: 61 47 a6 03 lw	a2, 1556(a5)
0x0000000080006d74: 80 00 07 37 lui	a4, 524288
0x0000000080006d78: 00 17 07 13 addi	a4, a4, 1
0x0000000080006d7c: 00 d6 76 b3 and	a3, a2, a3
0x0000000080006d80: 00 06 86 9b sext.w	a3, a3
0x0000000080006d84: 08 e6 86 63 beq	a3, a4, 140
0x0000000080006e10: 00 00 57 37 lui	a4, 5
0x0000000080006e14: 01 01 06 93 addi	a3, sp, 16
0x0000000080006e18: 19 07 07 13 addi	a4, a4, 400
0x0000000080006e1c: 00 d7 07 33 add	a4, a4, a3
0x0000000080006e20: ff ff d7 b7 lui	a5, 1048573
0x0000000080006e24: 00 f7 07 b3 add	a5, a4, a5
0x0000000080006e28: 80 00 07 37 lui	a4, 524288
0x0000000080006e2c: 00 17 07 1b addiw	a4, a4, 1
0x0000000080006e30: 60 e7 ac 23 sw	a4, 1560(a5)
0x0000000080006e34: 60 07 ae 23 sw	zero, 1564(a5)
0x0000000080006e38: 61 87 a7 03 lw	a4, 1560(a5)
0x0000000080006e3c: 61 c7 a6 83 lw	a3, 1564(a5)
0x0000000080006e40: 00 e6 f7 33 and	a4, a3, a4
0x0000000080006e44: 00 07 07 1b sext.w	a4, a4
0x0000000080006e48: 08 07 06 63 beqz	a4, 140
0x0000000080006ed4: 00 00 57 37 lui	a4, 5
0x0000000080006ed8: 01 01 06 93 addi	a3, sp, 16
0x0000000080006edc: 19 07 07 13 addi	a4, a4, 400
0x0000000080006ee0: 00 d7 07 33 add	a4, a4, a3
0x0000000080006ee4: ff ff d7 b7 lui	a5, 1048573
0x0000000080006ee8: 00 f7 07 b3 add	a5, a4, a5
0x0000000080006eec: 80 00 07 37 lui	a4, 524288
0x0000000080006ef0: 00 17 07 1b addiw	a4, a4, 1
0x0000000080006ef4: 62 e7 a0 23 sw	a4, 1568(a5)
0x0000000080006ef8: 00 10 07 13 addi	a4, zero, 1
0x0000000080006efc: 62 e7 a2 23 sw	a4, 1572(a5)
0x0000000080006f00: 62 07 a6 83 lw	a3, 1568(a5)
0x0000000080006f04: 62 47 a6 03 lw	a2, 1572(a5)
0x0000000080006f08: 00 10 07 13 addi	a4, zero, 1
0x0000000080006f0c: 00 d6 76 b3 and	a3, a2, a3
0x0000000080006f10: 00 06 86 9b sext.w	a3, a3
0x0000000080006f14: 08 e6 86 63 beq	a3, a4, 140
0x0000000080006fa0: 00 00 57 37 lui	a4, 5
0x0000000080006fa4: 01 01 06 93 addi	a3, sp, 16
0x0000000080006fa8: 19 07 07 13 addi	a4, a4, 400
0x0000000080006fac: 00 d7 07 33 add	a4, a4, a3
0x0000000080006fb0: ff ff d7 b7 lui	a5, 1048573
0x0000000080006fb4: 00 f7 07 b3 add	a5, a4, a5
0x0000000080006fb8: 80 00 07 37 lui	a4, 524288
0x0000000080006fbc: 00 17 07 1b addiw	a4, a4, 1
0x0000000080006fc0: 62 e7 a4 23 sw	a4, 1576(a5)
0x0000000080006fc4: 00 20 07 13 addi	a4, zero, 2
0x0000000080006fc8: 62 e7 a6 23 sw	a4, 1580(a5)
0x0000000080006fcc: 62 87 a7 03 lw	a4, 1576(a5)
0x0000000080006fd0: 62 c7 a6 83 lw	a3, 1580(a5)
0x0000000080006fd4: 00 e6 f7 33 and	a4, a3, a4
0x0000000080006fd8: 00 07 07 1b sext.w	a4, a4
0x0000000080006fdc: 08 07 06 63 beqz	a4, 140
0x0000000080007068: 00 00 56 b7 lui	a3, 5
0x000000008000706c: 19 06 86 93 addi	a3, a3, 400
0x0000000080007070: 01 01 06 13 addi	a2, sp, 16
0x0000000080007074: 80 00 07 37 lui	a4, 524288
0x0000000080007078: 00 c6 86 b3 add	a3, a3, a2
0x000000008000707c: ff ff d7 b7 lui	a5, 1048573
0x0000000080007080: 00 f6 87 b3 add	a5, a3, a5
0x0000000080007084: 00 17 06 9b addiw	a3, a4, 1
0x0000000080007088: 62 d7 a8 23 sw	a3, 1584(a5)
0x000000008000708c: ff e7 47 13 xori	a4, a4, -2
0x0000000080007090: 62 e7 aa 23 sw	a4, 1588(a5)
0x0000000080007094: 63 07 a7 03 lw	a4, 1584(a5)
0x0000000080007098: 63 47 a6 83 lw	a3, 1588(a5)
0x000000008000709c: 00 e6 f7 33 and	a4, a3, a4
0x00000000800070a0: 00 07 07 1b sext.w	a4, a4
0x00000000800070a4: 08 07 06 63 beqz	a4, 140
0x0000000080007130: 00 00 56 b7 lui	a3, 5
0x0000000080007134: 01 01 06 13 addi	a2, sp, 16
0x0000000080007138: 19 06 86 93 addi	a3, a3, 400
0x000000008000713c: 00 c6 86 b3 add	a3, a3, a2
0x0000000080007140: 80 00 07 37 lui	a4, 524288
0x0000000080007144: ff ff d7 b7 lui	a5, 1048573
0x0000000080007148: 00 f6 87 b3 add	a5, a3, a5
0x000000008000714c: 00 17 06 9b addiw	a3, a4, 1
0x0000000080007150: 62 d7 ac 23 sw	a3, 1592(a5)
0x0000000080007154: ff f7 47 13 not	a4, a4
0x0000000080007158: 62 e7 ae 23 sw	a4, 1596(a5)
0x000000008000715c: 63 87 a6 83 lw	a3, 1592(a5)
0x0000000080007160: 63 c7 a6 03 lw	a2, 1596(a5)
0x0000000080007164: 00 10 07 13 addi	a4, zero, 1
0x0000000080007168: 00 d6 76 b3 and	a3, a2, a3
0x000000008000716c: 00 06 86 9b sext.w	a3, a3
0x0000000080007170: 08 e6 86 63 beq	a3, a4, 140
0x00000000800071fc: 00 00 57 37 lui	a4, 5
0x0000000080007200: 01 01 06 93 addi	a3, sp, 16
0x0000000080007204: 19 07 07 13 addi	a4, a4, 400
0x0000000080007208: 00 d7 07 33 add	a4, a4, a3
0x000000008000720c: ff ff d7 b7 lui	a5, 1048573
0x0000000080007210: 00 f7 07 b3 add	a5, a4, a5
0x0000000080007214: ff e0 07 13 addi	a4, zero, -2
0x0000000080007218: 64 e7 a0 23 sw	a4, 1600(a5)
0x000000008000721c: 64 e7 a2 23 sw	a4, 1604(a5)
0x0000000080007220: 64 07 a6 83 lw	a3, 1600(a5)
0x0000000080007224: 64 47 a6 03 lw	a2, 1604(a5)
0x0000000080007228: ff e0 07 13 addi	a4, zero, -2
0x000000008000722c: 00 d6 76 b3 and	a3, a2, a3
0x0000000080007230: 00 06 86 9b sext.w	a3, a3
0x0000000080007234: 08 e6 84 63 beq	a3, a4, 136
0x00000000800072bc: 00 00 57 37 lui	a4, 5
0x00000000800072c0: 01 01 06 93 addi	a3, sp, 16
0x00000000800072c4: 19 07 07 13 addi	a4, a4, 400
0x00000000800072c8: 00 d7 07 33 add	a4, a4, a3
0x00000000800072cc: ff ff d7 b7 lui	a5, 1048573
0x00000000800072d0: 00 f7 07 b3 add	a5, a4, a5
0x00000000800072d4: ff e0 07 13 addi	a4, zero, -2
0x00000000800072d8: 64 e7 a4 23 sw	a4, 1608(a5)
0x00000000800072dc: ff f0 07 13 addi	a4, zero, -1
0x00000000800072e0: 64 e7 a6 23 sw	a4, 1612(a5)
0x00000000800072e4: 64 87 a6 83 lw	a3, 1608(a5)
0x00000000800072e8: 64 c7 a6 03 lw	a2, 1612(a5)
0x00000000800072ec: ff e0 07 13 addi	a4, zero, -2
0x00000000800072f0: 00 d6 76 b3 and	a3, a2, a3
0x00000000800072f4: 00 06 86 9b sext.w	a3, a3
0x00000000800072f8: 08 e6 84 63 beq	a3, a4, 136
0x0000000080007380: 00 00 57 37 lui	a4, 5
0x0000000080007384: 01 01 06 93 addi	a3, sp, 16
0x0000000080007388: 19 07 07 13 addi	a4, a4, 400
0x000000008000738c: 00 d7 07 33 add	a4, a4, a3
0x0000000080007390: ff ff d7 b7 lui	a5, 1048573
0x0000000080007394: 00 f7 07 b3 add	a5, a4, a5
0x0000000080007398: ff e0 07 13 addi	a4, zero, -2
0x000000008000739c: 64 e7 a8 23 sw	a4, 1616(a5)
0x00000000800073a0: 64 07 aa 23 sw	zero, 1620(a5)
0x00000000800073a4: 65 07 a7 03 lw	a4, 1616(a5)
0x00000000800073a8: 65 47 a6 83 lw	a3, 1620(a5)
0x00000000800073ac: 00 e6 f7 33 and	a4, a3, a4
0x00000000800073b0: 00 07 07 1b sext.w	a4, a4
0x00000000800073b4: 08 07 04 63 beqz	a4, 136
0x000000008000743c: 00 00 57 37 lui	a4, 5
0x0000000080007440: 01 01 06 93 addi	a3, sp, 16
0x0000000080007444: 19 07 07 13 addi	a4, a4, 400
0x0000000080007448: 00 d7 07 33 add	a4, a4, a3
0x000000008000744c: ff ff d7 b7 lui	a5, 1048573
0x0000000080007450: 00 f7 07 b3 add	a5, a4, a5
0x0000000080007454: ff e0 07 13 addi	a4, zero, -2
0x0000000080007458: 64 e7 ac 23 sw	a4, 1624(a5)
0x000000008000745c: 00 10 07 13 addi	a4, zero, 1
0x0000000080007460: 64 e7 ae 23 sw	a4, 1628(a5)
0x0000000080007464: 65 87 a7 03 lw	a4, 1624(a5)
0x0000000080007468: 65 c7 a6 83 lw	a3, 1628(a5)
0x000000008000746c: 00 e6 f7 33 and	a4, a3, a4
0x0000000080007470: 00 07 07 1b sext.w	a4, a4
0x0000000080007474: 08 07 04 63 beqz	a4, 136
0x00000000800074fc: 00 00 57 37 lui	a4, 5
0x0000000080007500: 01 01 06 93 addi	a3, sp, 16
0x0000000080007504: 19 07 07 13 addi	a4, a4, 400
0x0000000080007508: 00 d7 07 33 add	a4, a4, a3
0x000000008000750c: ff ff d7 b7 lui	a5, 1048573
0x0000000080007510: 00 f7 07 b3 add	a5, a4, a5
0x0000000080007514: ff e0 07 13 addi	a4, zero, -2
0x0000000080007518: 66 e7 a0 23 sw	a4, 1632(a5)
0x000000008000751c: 00 20 07 13 addi	a4, zero, 2
0x0000000080007520: 66 e7 a2 23 sw	a4, 1636(a5)
0x0000000080007524: 66 07 a6 83 lw	a3, 1632(a5)
0x0000000080007528: 66 47 a6 03 lw	a2, 1636(a5)
0x000000008000752c: 00 20 07 13 addi	a4, zero, 2
0x0000000080007530: 00 d6 76 b3 and	a3, a2, a3
0x0000000080007534: 00 06 86 9b sext.w	a3, a3
0x0000000080007538: 08 e6 84 63 beq	a3, a4, 136
0x00000000800075c0: 00 00 57 37 lui	a4, 5
0x00000000800075c4: 01 01 06 93 addi	a3, sp, 16
0x00000000800075c8: 19 07 07 13 addi	a4, a4, 400
0x00000000800075cc: 00 d7 07 33 add	a4, a4, a3
0x00000000800075d0: ff ff d7 b7 lui	a5, 1048573
0x00000000800075d4: 00 f7 07 b3 add	a5, a4, a5
0x00000000800075d8: ff e0 07 13 addi	a4, zero, -2
0x00000000800075dc: 66 e7 a4 23 sw	a4, 1640(a5)
0x00000000800075e0: 80 00 07 37 lui	a4, 524288
0x00000000800075e4: ff e7 47 13 xori	a4, a4, -2
0x00000000800075e8: 66 e7 a6 23 sw	a4, 1644(a5)
0x00000000800075ec: 66 87 a6 83 lw	a3, 1640(a5)
0x00000000800075f0: 66 c7 a6 03 lw	a2, 1644(a5)
0x00000000800075f4: 80 00 07 37 lui	a4, 524288
0x00000000800075f8: ff e7 47 13 xori	a4, a4, -2
0x00000000800075fc: 00 d6 76 b3 and	a3, a2, a3
0x0000000080007600: 00 06 86 9b sext.w	a3, a3
0x0000000080007604: 08 e6 86 63 beq	a3, a4, 140
0x0000000080007690: 00 00 57 37 lui	a4, 5
0x0000000080007694: 01 01 06 93 addi	a3, sp, 16
0x0000000080007698: 19 07 07 13 addi	a4, a4, 400
0x000000008000769c: 00 d7 07 33 add	a4, a4, a3
0x00000000800076a0: ff ff d7 b7 lui	a5, 1048573
0x00000000800076a4: 00 f7 07 b3 add	a5, a4, a5
0x00000000800076a8: ff e0 07 13 addi	a4, zero, -2
0x00000000800076ac: 66 e7 a8 23 sw	a4, 1648(a5)
0x00000000800076b0: 80 00 07 37 lui	a4, 524288
0x00000000800076b4: ff f7 47 13 not	a4, a4
0x00000000800076b8: 66 e7 aa 23 sw	a4, 1652(a5)
0x00000000800076bc: 67 07 a6 83 lw	a3, 1648(a5)
0x00000000800076c0: 67 47 a6 03 lw	a2, 1652(a5)
0x00000000800076c4: 80 00 07 37 lui	a4, 524288
0x00000000800076c8: ff e7 47 13 xori	a4, a4, -2
0x00000000800076cc: 00 d6 76 b3 and	a3, a2, a3
0x00000000800076d0: 00 06 86 9b sext.w	a3, a3
0x00000000800076d4: 08 e6 84 63 beq	a3, a4, 136
0x000000008000775c: 00 00 57 37 lui	a4, 5
0x0000000080007760: 01 01 06 93 addi	a3, sp, 16
0x0000000080007764: 19 07 07 13 addi	a4, a4, 400
0x0000000080007768: 00 d7 07 33 add	a4, a4, a3
0x000000008000776c: ff ff d7 b7 lui	a5, 1048573
0x0000000080007770: 00 f7 07 b3 add	a5, a4, a5
0x0000000080007774: ff f0 07 13 addi	a4, zero, -1
0x0000000080007778: 66 e7 ac 23 sw	a4, 1656(a5)
0x000000008000777c: 66 e7 ae 23 sw	a4, 1660(a5)
0x0000000080007780: 67 87 a6 83 lw	a3, 1656(a5)
0x0000000080007784: 67 c7 a6 03 lw	a2, 1660(a5)
0x0000000080007788: ff f0 07 13 addi	a4, zero, -1
0x000000008000778c: 00 d6 76 b3 and	a3, a2, a3
0x0000000080007790: 00 06 86 9b sext.w	a3, a3
0x0000000080007794: 08 e6 84 63 beq	a3, a4, 136
0x000000008000781c: 00 00 57 37 lui	a4, 5
0x0000000080007820: 01 01 06 93 addi	a3, sp, 16
0x0000000080007824: 19 07 07 13 addi	a4, a4, 400
0x0000000080007828: 00 d7 07 33 add	a4, a4, a3
0x000000008000782c: ff ff d7 b7 lui	a5, 1048573
0x0000000080007830: 00 f7 07 b3 add	a5, a4, a5
0x0000000080007834: ff f0 07 13 addi	a4, zero, -1
0x0000000080007838: 68 e7 a0 23 sw	a4, 1664(a5)
0x000000008000783c: 68 07 a2 23 sw	zero, 1668(a5)
0x0000000080007840: 68 07 a7 03 lw	a4, 1664(a5)
0x0000000080007844: 68 47 a6 83 lw	a3, 1668(a5)
0x0000000080007848: 00 e6 f7 33 and	a4, a3, a4
0x000000008000784c: 00 07 07 1b sext.w	a4, a4
0x0000000080007850: 08 07 04 63 beqz	a4, 136
0x00000000800078d8: 00 00 57 37 lui	a4, 5
0x00000000800078dc: 01 01 06 93 addi	a3, sp, 16
0x00000000800078e0: 19 07 07 13 addi	a4, a4, 400
0x00000000800078e4: 00 d7 07 33 add	a4, a4, a3
0x00000000800078e8: ff ff d7 b7 lui	a5, 1048573
0x00000000800078ec: 00 f7 07 b3 add	a5, a4, a5
0x00000000800078f0: ff f0 07 13 addi	a4, zero, -1
0x00000000800078f4: 68 e7 a4 23 sw	a4, 1672(a5)
0x00000000800078f8: 00 10 07 13 addi	a4, zero, 1
0x00000000800078fc: 68 e7 a6 23 sw	a4, 1676(a5)
0x0000000080007900: 68 87 a6 83 lw	a3, 1672(a5)
0x0000000080007904: 68 c7 a6 03 lw	a2, 1676(a5)
0x0000000080007908: 00 10 07 13 addi	a4, zero, 1
0x000000008000790c: 00 d6 76 b3 and	a3, a2, a3
0x0000000080007910: 00 06 86 9b sext.w	a3, a3
0x0000000080007914: 08 e6 84 63 beq	a3, a4, 136
0x000000008000799c: 00 00 57 37 lui	a4, 5
0x00000000800079a0: 01 01 06 93 addi	a3, sp, 16
0x00000000800079a4: 19 07 07 13 addi	a4, a4, 400
0x00000000800079a8: 00 d7 07 33 add	a4, a4, a3
0x00000000800079ac: ff ff d7 b7 lui	a5, 1048573
0x00000000800079b0: 00 f7 07 b3 add	a5, a4, a5
0x00000000800079b4: ff f0 07 13 addi	a4, zero, -1
0x00000000800079b8: 68 e7 a8 23 sw	a4, 1680(a5)
0x00000000800079bc: 00 20 07 13 addi	a4, zero, 2
0x00000000800079c0: 68 e7 aa 23 sw	a4, 1684(a5)
0x00000000800079c4: 69 07 a6 83 lw	a3, 1680(a5)
0x00000000800079c8: 69 47 a6 03 lw	a2, 1684(a5)
0x00000000800079cc: 00 20 07 13 addi	a4, zero, 2
0x00000000800079d0: 00 d6 76 b3 and	a3, a2, a3
0x00000000800079d4: 00 06 86 9b sext.w	a3, a3
0x00000000800079d8: 08 e6 84 63 beq	a3, a4, 136
0x0000000080007a60: 00 00 57 37 lui	a4, 5
0x0000000080007a64: 01 01 06 93 addi	a3, sp, 16
0x0000000080007a68: 19 07 07 13 addi	a4, a4, 400
0x0000000080007a6c: 00 d7 07 33 add	a4, a4, a3
0x0000000080007a70: ff ff d7 b7 lui	a5, 1048573
0x0000000080007a74: 00 f7 07 b3 add	a5, a4, a5
0x0000000080007a78: ff f0 07 13 addi	a4, zero, -1
0x0000000080007a7c: 68 e7 ac 23 sw	a4, 1688(a5)
0x0000000080007a80: 80 00 07 37 lui	a4, 524288
0x0000000080007a84: ff e7 47 13 xori	a4, a4, -2
0x0000000080007a88: 68 e7 ae 23 sw	a4, 1692(a5)
0x0000000080007a8c: 69 87 a6 83 lw	a3, 1688(a5)
0x0000000080007a90: 69 c7 a6 03 lw	a2, 1692(a5)
0x0000000080007a94: 80 00 07 37 lui	a4, 524288
0x0000000080007a98: ff e7 47 13 xori	a4, a4, -2
0x0000000080007a9c: 00 d6 76 b3 and	a3, a2, a3
0x0000000080007aa0: 00 06 86 9b sext.w	a3, a3
0x0000000080007aa4: 08 e6 86 63 beq	a3, a4, 140
0x0000000080007b30: 00 00 57 37 lui	a4, 5
0x0000000080007b34: 01 01 06 93 addi	a3, sp, 16
0x0000000080007b38: 19 07 07 13 addi	a4, a4, 400
0x0000000080007b3c: 00 d7 07 33 add	a4, a4, a3
0x0000000080007b40: ff ff d7 b7 lui	a5, 1048573
0x0000000080007b44: 00 f7 07 b3 add	a5, a4, a5
0x0000000080007b48: ff f0 07 13 addi	a4, zero, -1
0x0000000080007b4c: 6a e7 a0 23 sw	a4, 1696(a5)
0x0000000080007b50: 80 00 07 37 lui	a4, 524288
0x0000000080007b54: ff f7 47 13 not	a4, a4
0x0000000080007b58: 6a e7 a2 23 sw	a4, 1700(a5)
0x0000000080007b5c: 6a 07 a6 83 lw	a3, 1696(a5)
0x0000000080007b60: 6a 47 a6 03 lw	a2, 1700(a5)
0x0000000080007b64: 80 00 07 37 lui	a4, 524288
0x0000000080007b68: ff f7 47 13 not	a4, a4
0x0000000080007b6c: 00 d6 76 b3 and	a3, a2, a3
0x0000000080007b70: 00 06 86 9b sext.w	a3, a3
0x0000000080007b74: 08 e6 86 63 beq	a3, a4, 140
0x0000000080007c00: 00 00 57 37 lui	a4, 5
0x0000000080007c04: 01 01 06 93 addi	a3, sp, 16
0x0000000080007c08: 19 07 07 13 addi	a4, a4, 400
0x0000000080007c0c: 00 d7 07 33 add	a4, a4, a3
0x0000000080007c10: ff ff d7 b7 lui	a5, 1048573
0x0000000080007c14: 00 f7 07 b3 add	a5, a4, a5
0x0000000080007c18: 6a 07 a4 23 sw	zero, 1704(a5)
0x0000000080007c1c: 6a 07 a6 23 sw	zero, 1708(a5)
0x0000000080007c20: 6a 87 a7 03 lw	a4, 1704(a5)
0x0000000080007c24: 6a c7 a6 83 lw	a3, 1708(a5)
0x0000000080007c28: 00 e6 f7 33 and	a4, a3, a4
0x0000000080007c2c: 00 07 07 1b sext.w	a4, a4
0x0000000080007c30: 08 07 04 63 beqz	a4, 136
0x0000000080007cb8: 00 00 57 37 lui	a4, 5
0x0000000080007cbc: 01 01 06 93 addi	a3, sp, 16
0x0000000080007cc0: 19 07 07 13 addi	a4, a4, 400
0x0000000080007cc4: 00 d7 07 33 add	a4, a4, a3
0x0000000080007cc8: ff ff d7 b7 lui	a5, 1048573
0x0000000080007ccc: 00 f7 07 b3 add	a5, a4, a5
0x0000000080007cd0: 6a 07 a8 23 sw	zero, 1712(a5)
0x0000000080007cd4: 00 10 07 13 addi	a4, zero, 1
0x0000000080007cd8: 6a e7 aa 23 sw	a4, 1716(a5)
0x0000000080007cdc: 6b 07 a7 03 lw	a4, 1712(a5)
0x0000000080007ce0: 6b 47 a6 83 lw	a3, 1716(a5)
0x0000000080007ce4: 00 e6 f7 33 and	a4, a3, a4
0x0000000080007ce8: 00 07 07 1b sext.w	a4, a4
0x0000000080007cec: 08 07 04 63 beqz	a4, 136
0x0000000080007d74: 00 00 57 37 lui	a4, 5
0x0000000080007d78: 01 01 06 93 addi	a3, sp, 16
0x0000000080007d7c: 19 07 07 13 addi	a4, a4, 400
0x0000000080007d80: 00 d7 07 33 add	a4, a4, a3
0x0000000080007d84: ff ff d7 b7 lui	a5, 1048573
0x0000000080007d88: 00 f7 07 b3 add	a5, a4, a5
0x0000000080007d8c: 6a 07 ac 23 sw	zero, 1720(a5)
0x0000000080007d90: 00 20 07 13 addi	a4, zero, 2
0x0000000080007d94: 6a e7 ae 23 sw	a4, 1724(a5)
0x0000000080007d98: 6b 87 a7 03 lw	a4, 1720(a5)
0x0000000080007d9c: 6b c7 a6 83 lw	a3, 1724(a5)
0x0000000080007da0: 00 e6 f7 33 and	a4, a3, a4
0x0000000080007da4: 00 07 07 1b sext.w	a4, a4
0x0000000080007da8: 08 07 04 63 beqz	a4, 136
0x0000000080007e30: 00 00 57 37 lui	a4, 5
0x0000000080007e34: 01 01 06 93 addi	a3, sp, 16
0x0000000080007e38: 19 07 07 13 addi	a4, a4, 400
0x0000000080007e3c: 00 d7 07 33 add	a4, a4, a3
0x0000000080007e40: ff ff d7 b7 lui	a5, 1048573
0x0000000080007e44: 00 f7 07 b3 add	a5, a4, a5
0x0000000080007e48: 80 00 07 37 lui	a4, 524288
0x0000000080007e4c: 6c 07 a0 23 sw	zero, 1728(a5)
0x0000000080007e50: ff e7 47 13 xori	a4, a4, -2
0x0000000080007e54: 6c e7 a2 23 sw	a4, 1732(a5)
0x0000000080007e58: 6c 07 a7 03 lw	a4, 1728(a5)
0x0000000080007e5c: 6c 47 a6 83 lw	a3, 1732(a5)
0x0000000080007e60: 00 e6 f7 33 and	a4, a3, a4
0x0000000080007e64: 00 07 07 1b sext.w	a4, a4
0x0000000080007e68: 08 07 06 63 beqz	a4, 140
0x0000000080007ef4: 00 00 57 37 lui	a4, 5
0x0000000080007ef8: 01 01 06 93 addi	a3, sp, 16
0x0000000080007efc: 19 07 07 13 addi	a4, a4, 400
0x0000000080007f00: 00 d7 07 33 add	a4, a4, a3
0x0000000080007f04: ff ff d7 b7 lui	a5, 1048573
0x0000000080007f08: 00 f7 07 b3 add	a5, a4, a5
0x0000000080007f0c: 80 00 07 37 lui	a4, 524288
0x0000000080007f10: 6c 07 a4 23 sw	zero, 1736(a5)
0x0000000080007f14: ff f7 47 13 not	a4, a4
0x0000000080007f18: 6c e7 a6 23 sw	a4, 1740(a5)
0x0000000080007f1c: 6c 87 a7 03 lw	a4, 1736(a5)
0x0000000080007f20: 6c c7 a6 83 lw	a3, 1740(a5)
0x0000000080007f24: 00 e6 f7 33 and	a4, a3, a4
0x0000000080007f28: 00 07 07 1b sext.w	a4, a4
0x0000000080007f2c: 08 07 06 63 beqz	a4, 140
0x0000000080007fb8: 00 00 57 37 lui	a4, 5
0x0000000080007fbc: 01 01 06 93 addi	a3, sp, 16
0x0000000080007fc0: 19 07 07 13 addi	a4, a4, 400
0x0000000080007fc4: 00 d7 07 33 add	a4, a4, a3
0x0000000080007fc8: ff ff d7 b7 lui	a5, 1048573
0x0000000080007fcc: 00 f7 07 b3 add	a5, a4, a5
0x0000000080007fd0: 00 10 07 13 addi	a4, zero, 1
0x0000000080007fd4: 6c e7 a8 23 sw	a4, 1744(a5)
0x0000000080007fd8: 6c e7 aa 23 sw	a4, 1748(a5)
0x0000000080007fdc: 6d 07 a6 83 lw	a3, 1744(a5)
0x0000000080007fe0: 6d 47 a6 03 lw	a2, 1748(a5)
0x0000000080007fe4: 00 10 07 13 addi	a4, zero, 1
0x0000000080007fe8: 00 d6 76 b3 and	a3, a2, a3
0x0000000080007fec: 00 06 86 9b sext.w	a3, a3
0x0000000080007ff0: 08 e6 84 63 beq	a3, a4, 136
0x0000000080008078: 00 00 57 37 lui	a4, 5
0x000000008000807c: 01 01 06 93 addi	a3, sp, 16
0x0000000080008080: 19 07 07 13 addi	a4, a4, 400
0x0000000080008084: 00 d7 07 33 add	a4, a4, a3
0x0000000080008088: ff ff d7 b7 lui	a5, 1048573
0x000000008000808c: 00 f7 07 b3 add	a5, a4, a5
0x0000000080008090: 00 10 07 13 addi	a4, zero, 1
0x0000000080008094: 6c e7 ac 23 sw	a4, 1752(a5)
0x0000000080008098: 00 20 07 13 addi	a4, zero, 2
0x000000008000809c: 6c e7 ae 23 sw	a4, 1756(a5)
0x00000000800080a0: 6d 87 a7 03 lw	a4, 1752(a5)
0x00000000800080a4: 6d c7 a6 83 lw	a3, 1756(a5)
0x00000000800080a8: 00 e6 f7 33 and	a4, a3, a4
0x00000000800080ac: 00 07 07 1b sext.w	a4, a4
0x00000000800080b0: 08 07 04 63 beqz	a4, 136
0x0000000080008138: 00 00 57 37 lui	a4, 5
0x000000008000813c: 01 01 06 93 addi	a3, sp, 16
0x0000000080008140: 19 07 07 13 addi	a4, a4, 400
0x0000000080008144: 00 d7 07 33 add	a4, a4, a3
0x0000000080008148: ff ff d7 b7 lui	a5, 1048573
0x000000008000814c: 00 f7 07 b3 add	a5, a4, a5
0x0000000080008150: 00 10 07 13 addi	a4, zero, 1
0x0000000080008154: 6e e7 a0 23 sw	a4, 1760(a5)
0x0000000080008158: 80 00 07 37 lui	a4, 524288
0x000000008000815c: ff e7 47 13 xori	a4, a4, -2
0x0000000080008160: 6e e7 a2 23 sw	a4, 1764(a5)
0x0000000080008164: 6e 07 a7 03 lw	a4, 1760(a5)
0x0000000080008168: 6e 47 a6 83 lw	a3, 1764(a5)
0x000000008000816c: 00 e6 f7 33 and	a4, a3, a4
0x0000000080008170: 00 07 07 1b sext.w	a4, a4
0x0000000080008174: 08 07 06 63 beqz	a4, 140
0x0000000080008200: 00 00 57 37 lui	a4, 5
0x0000000080008204: 01 01 06 93 addi	a3, sp, 16
0x0000000080008208: 19 07 07 13 addi	a4, a4, 400
0x000000008000820c: 00 d7 07 33 add	a4, a4, a3
0x0000000080008210: ff ff d7 b7 lui	a5, 1048573
0x0000000080008214: 00 f7 07 b3 add	a5, a4, a5
0x0000000080008218: 00 10 07 13 addi	a4, zero, 1
0x000000008000821c: 6e e7 a4 23 sw	a4, 1768(a5)
0x0000000080008220: 80 00 07 37 lui	a4, 524288
0x0000000080008224: ff f7 47 13 not	a4, a4
0x0000000080008228: 6e e7 a6 23 sw	a4, 1772(a5)
0x000000008000822c: 6e 87 a6 83 lw	a3, 1768(a5)
0x0000000080008230: 6e c7 a6 03 lw	a2, 1772(a5)
0x0000000080008234: 00 10 07 13 addi	a4, zero, 1
0x0000000080008238: 00 d6 76 b3 and	a3, a2, a3
0x000000008000823c: 00 06 86 9b sext.w	a3, a3
0x0000000080008240: 08 e6 86 63 beq	a3, a4, 140
0x00000000800082cc: 00 00 57 37 lui	a4, 5
0x00000000800082d0: 01 01 06 93 addi	a3, sp, 16
0x00000000800082d4: 19 07 07 13 addi	a4, a4, 400
0x00000000800082d8: 00 d7 07 33 add	a4, a4, a3
0x00000000800082dc: ff ff d7 b7 lui	a5, 1048573
0x00000000800082e0: 00 f7 07 b3 add	a5, a4, a5
0x00000000800082e4: 00 20 07 13 addi	a4, zero, 2
0x00000000800082e8: 6e e7 a8 23 sw	a4, 1776(a5)
0x00000000800082ec: 6e e7 aa 23 sw	a4, 1780(a5)
0x00000000800082f0: 6f 07 a6 83 lw	a3, 1776(a5)
0x00000000800082f4: 6f 47 a6 03 lw	a2, 1780(a5)
0x00000000800082f8: 00 20 07 13 addi	a4, zero, 2
0x00000000800082fc: 00 d6 76 b3 and	a3, a2, a3
0x0000000080008300: 00 06 86 9b sext.w	a3, a3
0x0000000080008304: 08 e6 84 63 beq	a3, a4, 136
0x000000008000838c: 00 00 57 37 lui	a4, 5
0x0000000080008390: 01 01 06 93 addi	a3, sp, 16
0x0000000080008394: 19 07 07 13 addi	a4, a4, 400
0x0000000080008398: 00 d7 07 33 add	a4, a4, a3
0x000000008000839c: ff ff d7 b7 lui	a5, 1048573
0x00000000800083a0: 00 f7 07 b3 add	a5, a4, a5
0x00000000800083a4: 00 20 07 13 addi	a4, zero, 2
0x00000000800083a8: 6e e7 ac 23 sw	a4, 1784(a5)
0x00000000800083ac: 80 00 07 37 lui	a4, 524288
0x00000000800083b0: ff e7 47 13 xori	a4, a4, -2
0x00000000800083b4: 6e e7 ae 23 sw	a4, 1788(a5)
0x00000000800083b8: 6f 87 a6 83 lw	a3, 1784(a5)
0x00000000800083bc: 6f c7 a6 03 lw	a2, 1788(a5)
0x00000000800083c0: 00 20 07 13 addi	a4, zero, 2
0x00000000800083c4: 00 d6 76 b3 and	a3, a2, a3
0x00000000800083c8: 00 06 86 9b sext.w	a3, a3
0x00000000800083cc: 08 e6 86 63 beq	a3, a4, 140
0x0000000080008458: 00 00 57 37 lui	a4, 5
0x000000008000845c: 01 01 06 93 addi	a3, sp, 16
0x0000000080008460: 19 07 07 13 addi	a4, a4, 400
0x0000000080008464: 00 d7 07 33 add	a4, a4, a3
0x0000000080008468: ff ff d7 b7 lui	a5, 1048573
0x000000008000846c: 00 f7 07 b3 add	a5, a4, a5
0x0000000080008470: 00 20 07 13 addi	a4, zero, 2
0x0000000080008474: 70 e7 a0 23 sw	a4, 1792(a5)
0x0000000080008478: 80 00 07 37 lui	a4, 524288
0x000000008000847c: ff f7 47 13 not	a4, a4
0x0000000080008480: 70 e7 a2 23 sw	a4, 1796(a5)
0x0000000080008484: 70 07 a6 83 lw	a3, 1792(a5)
0x0000000080008488: 70 47 a6 03 lw	a2, 1796(a5)
0x000000008000848c: 00 20 07 13 addi	a4, zero, 2
0x0000000080008490: 00 d6 76 b3 and	a3, a2, a3
0x0000000080008494: 00 06 86 9b sext.w	a3, a3
0x0000000080008498: 08 e6 86 63 beq	a3, a4, 140
0x0000000080008524: 00 00 57 37 lui	a4, 5
0x0000000080008528: 01 01 06 93 addi	a3, sp, 16
0x000000008000852c: 19 07 07 13 addi	a4, a4, 400
0x0000000080008530: 00 d7 07 33 add	a4, a4, a3
0x0000000080008534: ff ff d7 b7 lui	a5, 1048573
0x0000000080008538: 00 f7 07 b3 add	a5, a4, a5
0x000000008000853c: 80 00 07 37 lui	a4, 524288
0x0000000080008540: ff e7 47 13 xori	a4, a4, -2
0x0000000080008544: 70 e7 a4 23 sw	a4, 1800(a5)
0x0000000080008548: 70 e7 a6 23 sw	a4, 1804(a5)
0x000000008000854c: 70 87 a6 83 lw	a3, 1800(a5)
0x0000000080008550: 70 c7 a6 03 lw	a2, 1804(a5)
0x0000000080008554: 80 00 07 37 lui	a4, 524288
0x0000000080008558: ff e7 47 13 xori	a4, a4, -2
0x000000008000855c: 00 d6 76 b3 and	a3, a2, a3
0x0000000080008560: 00 06 86 9b sext.w	a3, a3
0x0000000080008564: 08 e6 86 63 beq	a3, a4, 140
0x00000000800085f0: 00 00 56 b7 lui	a3, 5
0x00000000800085f4: 01 01 06 13 addi	a2, sp, 16
0x00000000800085f8: 19 06 86 93 addi	a3, a3, 400
0x00000000800085fc: 00 c6 86 b3 add	a3, a3, a2
0x0000000080008600: 80 00 07 37 lui	a4, 524288
0x0000000080008604: ff ff d7 b7 lui	a5, 1048573
0x0000000080008608: 00 f6 87 b3 add	a5, a3, a5
0x000000008000860c: ff e7 46 93 xori	a3, a4, -2
0x0000000080008610: 70 d7 a8 23 sw	a3, 1808(a5)
0x0000000080008614: ff f7 47 13 not	a4, a4
0x0000000080008618: 70 e7 aa 23 sw	a4, 1812(a5)
0x000000008000861c: 71 07 a6 83 lw	a3, 1808(a5)
0x0000000080008620: 71 47 a6 03 lw	a2, 1812(a5)
0x0000000080008624: 80 00 07 37 lui	a4, 524288
0x0000000080008628: ff e7 47 13 xori	a4, a4, -2
0x000000008000862c: 00 d6 76 b3 and	a3, a2, a3
0x0000000080008630: 00 06 86 9b sext.w	a3, a3
0x0000000080008634: 08 e6 84 63 beq	a3, a4, 136
0x00000000800086bc: 00 00 57 37 lui	a4, 5
0x00000000800086c0: 01 01 06 93 addi	a3, sp, 16
0x00000000800086c4: 19 07 07 13 addi	a4, a4, 400
0x00000000800086c8: 00 d7 07 33 add	a4, a4, a3
0x00000000800086cc: ff ff d7 b7 lui	a5, 1048573
0x00000000800086d0: 00 f7 07 b3 add	a5, a4, a5
0x00000000800086d4: 80 00 07 37 lui	a4, 524288
0x00000000800086d8: ff f7 47 13 not	a4, a4
0x00000000800086dc: 70 e7 ac 23 sw	a4, 1816(a5)
0x00000000800086e0: 70 e7 ae 23 sw	a4, 1820(a5)
0x00000000800086e4: 71 87 a6 83 lw	a3, 1816(a5)
0x00000000800086e8: 71 c7 a6 03 lw	a2, 1820(a5)
0x00000000800086ec: 80 00 07 37 lui	a4, 524288
0x00000000800086f0: ff f7 47 13 not	a4, a4
0x00000000800086f4: 00 d6 76 b3 and	a3, a2, a3
0x00000000800086f8: 00 06 86 9b sext.w	a3, a3
0x00000000800086fc: 08 e6 86 63 beq	a3, a4, 140
0x0000000080008788: 00 00 57 37 lui	a4, 5
0x000000008000878c: 01 01 06 93 addi	a3, sp, 16
0x0000000080008790: 19 07 07 13 addi	a4, a4, 400
0x0000000080008794: 00 d7 07 33 add	a4, a4, a3
0x0000000080008798: ff ff d7 b7 lui	a5, 1048573
0x000000008000879c: 00 f7 07 b3 add	a5, a4, a5
0x00000000800087a0: 80 00 07 37 lui	a4, 524288
0x00000000800087a4: 72 e7 a0 23 sw	a4, 1824(a5)
0x00000000800087a8: 72 e7 a2 23 sw	a4, 1828(a5)
0x00000000800087ac: 72 07 a6 83 lw	a3, 1824(a5)
0x00000000800087b0: 72 47 a6 03 lw	a2, 1828(a5)
0x00000000800087b4: 80 00 07 37 lui	a4, 524288
0x00000000800087b8: 00 d6 66 b3 or	a3, a2, a3
0x00000000800087bc: 00 06 86 9b sext.w	a3, a3
0x00000000800087c0: 08 e6 84 63 beq	a3, a4, 136
0x0000000080008848: 00 00 57 37 lui	a4, 5
0x000000008000884c: 01 01 06 93 addi	a3, sp, 16
0x0000000080008850: 19 07 07 13 addi	a4, a4, 400
0x0000000080008854: 00 d7 07 33 add	a4, a4, a3
0x0000000080008858: ff ff d7 b7 lui	a5, 1048573
0x000000008000885c: 00 f7 07 b3 add	a5, a4, a5
0x0000000080008860: 80 00 07 37 lui	a4, 524288
0x0000000080008864: 72 e7 a4 23 sw	a4, 1832(a5)
0x0000000080008868: 00 17 07 1b addiw	a4, a4, 1
0x000000008000886c: 72 e7 a6 23 sw	a4, 1836(a5)
0x0000000080008870: 72 87 a6 83 lw	a3, 1832(a5)
0x0000000080008874: 72 c7 a6 03 lw	a2, 1836(a5)
0x0000000080008878: 80 00 07 37 lui	a4, 524288
0x000000008000887c: 00 17 07 13 addi	a4, a4, 1
0x0000000080008880: 00 d6 66 b3 or	a3, a2, a3
0x0000000080008884: 00 06 86 9b sext.w	a3, a3
0x0000000080008888: 08 e6 84 63 beq	a3, a4, 136
0x0000000080008910: 00 00 57 37 lui	a4, 5
0x0000000080008914: 01 01 06 93 addi	a3, sp, 16
0x0000000080008918: 19 07 07 13 addi	a4, a4, 400
0x000000008000891c: 00 d7 07 33 add	a4, a4, a3
0x0000000080008920: ff ff d7 b7 lui	a5, 1048573
0x0000000080008924: 00 f7 07 b3 add	a5, a4, a5
0x0000000080008928: 80 00 07 37 lui	a4, 524288
0x000000008000892c: 72 e7 a8 23 sw	a4, 1840(a5)
0x0000000080008930: ff e0 07 13 addi	a4, zero, -2
0x0000000080008934: 72 e7 aa 23 sw	a4, 1844(a5)
0x0000000080008938: 73 07 a6 83 lw	a3, 1840(a5)
0x000000008000893c: 73 47 a6 03 lw	a2, 1844(a5)
0x0000000080008940: ff e0 07 13 addi	a4, zero, -2
0x0000000080008944: 00 d6 66 b3 or	a3, a2, a3
0x0000000080008948: 00 06 86 9b sext.w	a3, a3
0x000000008000894c: 08 e6 84 63 beq	a3, a4, 136
0x00000000800089d4: 00 00 57 37 lui	a4, 5
0x00000000800089d8: 01 01 06 93 addi	a3, sp, 16
0x00000000800089dc: 19 07 07 13 addi	a4, a4, 400
0x00000000800089e0: 00 d7 07 33 add	a4, a4, a3
0x00000000800089e4: ff ff d7 b7 lui	a5, 1048573
0x00000000800089e8: 00 f7 07 b3 add	a5, a4, a5
0x00000000800089ec: 80 00 07 37 lui	a4, 524288
0x00000000800089f0: 72 e7 ac 23 sw	a4, 1848(a5)
0x00000000800089f4: ff f0 07 13 addi	a4, zero, -1
0x00000000800089f8: 72 e7 ae 23 sw	a4, 1852(a5)
0x00000000800089fc: 73 87 a6 83 lw	a3, 1848(a5)
0x0000000080008a00: 73 c7 a6 03 lw	a2, 1852(a5)
0x0000000080008a04: ff f0 07 13 addi	a4, zero, -1
0x0000000080008a08: 00 d6 66 b3 or	a3, a2, a3
0x0000000080008a0c: 00 06 86 9b sext.w	a3, a3
0x0000000080008a10: 08 e6 84 63 beq	a3, a4, 136
0x0000000080008a98: 00 00 57 37 lui	a4, 5
0x0000000080008a9c: 01 01 06 93 addi	a3, sp, 16
0x0000000080008aa0: 19 07 07 13 addi	a4, a4, 400
0x0000000080008aa4: 00 d7 07 33 add	a4, a4, a3
0x0000000080008aa8: ff ff d7 b7 lui	a5, 1048573
0x0000000080008aac: 00 f7 07 b3 add	a5, a4, a5
0x0000000080008ab0: 80 00 07 37 lui	a4, 524288
0x0000000080008ab4: 74 e7 a0 23 sw	a4, 1856(a5)
0x0000000080008ab8: 74 07 a2 23 sw	zero, 1860(a5)
0x0000000080008abc: 74 07 a6 83 lw	a3, 1856(a5)
0x0000000080008ac0: 74 47 a6 03 lw	a2, 1860(a5)
0x0000000080008ac4: 80 00 07 37 lui	a4, 524288
0x0000000080008ac8: 00 d6 66 b3 or	a3, a2, a3
0x0000000080008acc: 00 06 86 9b sext.w	a3, a3
0x0000000080008ad0: 08 e6 84 63 beq	a3, a4, 136
0x0000000080008b58: 00 00 57 37 lui	a4, 5
0x0000000080008b5c: 01 01 06 93 addi	a3, sp, 16
0x0000000080008b60: 19 07 07 13 addi	a4, a4, 400
0x0000000080008b64: 00 d7 07 33 add	a4, a4, a3
0x0000000080008b68: ff ff d7 b7 lui	a5, 1048573
0x0000000080008b6c: 00 f7 07 b3 add	a5, a4, a5
0x0000000080008b70: 80 00 07 37 lui	a4, 524288
0x0000000080008b74: 74 e7 a4 23 sw	a4, 1864(a5)
0x0000000080008b78: 00 10 07 13 addi	a4, zero, 1
0x0000000080008b7c: 74 e7 a6 23 sw	a4, 1868(a5)
0x0000000080008b80: 74 87 a6 83 lw	a3, 1864(a5)
0x0000000080008b84: 74 c7 a6 03 lw	a2, 1868(a5)
0x0000000080008b88: 80 00 07 37 lui	a4, 524288
0x0000000080008b8c: 00 17 07 13 addi	a4, a4, 1
0x0000000080008b90: 00 d6 66 b3 or	a3, a2, a3
0x0000000080008b94: 00 06 86 9b sext.w	a3, a3
0x0000000080008b98: 08 e6 86 63 beq	a3, a4, 140
0x0000000080008c24: 00 00 57 37 lui	a4, 5
0x0000000080008c28: 01 01 06 93 addi	a3, sp, 16
0x0000000080008c2c: 19 07 07 13 addi	a4, a4, 400
0x0000000080008c30: 00 d7 07 33 add	a4, a4, a3
0x0000000080008c34: ff ff d7 b7 lui	a5, 1048573
0x0000000080008c38: 00 f7 07 b3 add	a5, a4, a5
0x0000000080008c3c: 80 00 07 37 lui	a4, 524288
0x0000000080008c40: 74 e7 a8 23 sw	a4, 1872(a5)
0x0000000080008c44: 00 20 07 13 addi	a4, zero, 2
0x0000000080008c48: 74 e7 aa 23 sw	a4, 1876(a5)
0x0000000080008c4c: 75 07 a6 83 lw	a3, 1872(a5)
0x0000000080008c50: 75 47 a6 03 lw	a2, 1876(a5)
0x0000000080008c54: 80 00 07 37 lui	a4, 524288
0x0000000080008c58: 00 27 07 13 addi	a4, a4, 2
0x0000000080008c5c: 00 d6 66 b3 or	a3, a2, a3
0x0000000080008c60: 00 06 86 9b sext.w	a3, a3
0x0000000080008c64: 08 e6 86 63 beq	a3, a4, 140
0x0000000080008cf0: 00 00 57 37 lui	a4, 5
0x0000000080008cf4: 01 01 06 93 addi	a3, sp, 16
0x0000000080008cf8: 19 07 07 13 addi	a4, a4, 400
0x0000000080008cfc: 00 d7 07 33 add	a4, a4, a3
0x0000000080008d00: ff ff d7 b7 lui	a5, 1048573
0x0000000080008d04: 00 f7 07 b3 add	a5, a4, a5
0x0000000080008d08: 80 00 07 37 lui	a4, 524288
0x0000000080008d0c: 74 e7 ac 23 sw	a4, 1880(a5)
0x0000000080008d10: ff e7 47 13 xori	a4, a4, -2
0x0000000080008d14: 74 e7 ae 23 sw	a4, 1884(a5)
0x0000000080008d18: 75 87 a6 83 lw	a3, 1880(a5)
0x0000000080008d1c: 75 c7 a6 03 lw	a2, 1884(a5)
0x0000000080008d20: ff e0 07 13 addi	a4, zero, -2
0x0000000080008d24: 00 d6 66 b3 or	a3, a2, a3
0x0000000080008d28: 00 06 86 9b sext.w	a3, a3
0x0000000080008d2c: 08 e6 86 63 beq	a3, a4, 140
0x0000000080008db8: 00 00 57 37 lui	a4, 5
0x0000000080008dbc: 01 01 06 93 addi	a3, sp, 16
0x0000000080008dc0: 19 07 07 13 addi	a4, a4, 400
0x0000000080008dc4: 00 d7 07 33 add	a4, a4, a3
0x0000000080008dc8: ff ff d7 b7 lui	a5, 1048573
0x0000000080008dcc: 00 f7 07 b3 add	a5, a4, a5
0x0000000080008dd0: 80 00 07 37 lui	a4, 524288
0x0000000080008dd4: 76 e7 a0 23 sw	a4, 1888(a5)
0x0000000080008dd8: ff f7 47 13 not	a4, a4
0x0000000080008ddc: 76 e7 a2 23 sw	a4, 1892(a5)
0x0000000080008de0: 76 07 a6 83 lw	a3, 1888(a5)
0x0000000080008de4: 76 47 a6 03 lw	a2, 1892(a5)
0x0000000080008de8: ff f0 07 13 addi	a4, zero, -1
0x0000000080008dec: 00 d6 66 b3 or	a3, a2, a3
0x0000000080008df0: 00 06 86 9b sext.w	a3, a3
0x0000000080008df4: 08 e6 86 63 beq	a3, a4, 140
0x0000000080008e80: 00 00 57 37 lui	a4, 5
0x0000000080008e84: 01 01 06 93 addi	a3, sp, 16
0x0000000080008e88: 19 07 07 13 addi	a4, a4, 400
0x0000000080008e8c: 00 d7 07 33 add	a4, a4, a3
0x0000000080008e90: ff ff d7 b7 lui	a5, 1048573
0x0000000080008e94: 00 f7 07 b3 add	a5, a4, a5
0x0000000080008e98: 80 00 07 37 lui	a4, 524288
0x0000000080008e9c: 00 17 07 1b addiw	a4, a4, 1
0x0000000080008ea0: 76 e7 a4 23 sw	a4, 1896(a5)
0x0000000080008ea4: 76 e7 a6 23 sw	a4, 1900(a5)
0x0000000080008ea8: 76 87 a6 83 lw	a3, 1896(a5)
0x0000000080008eac: 76 c7 a6 03 lw	a2, 1900(a5)
0x0000000080008eb0: 80 00 07 37 lui	a4, 524288
0x0000000080008eb4: 00 17 07 13 addi	a4, a4, 1
0x0000000080008eb8: 00 d6 66 b3 or	a3, a2, a3
0x0000000080008ebc: 00 06 86 9b sext.w	a3, a3
0x0000000080008ec0: 08 e6 86 63 beq	a3, a4, 140
0x0000000080008f4c: 00 00 57 37 lui	a4, 5
0x0000000080008f50: 01 01 06 93 addi	a3, sp, 16
0x0000000080008f54: 19 07 07 13 addi	a4, a4, 400
0x0000000080008f58: 00 d7 07 33 add	a4, a4, a3
0x0000000080008f5c: ff ff d7 b7 lui	a5, 1048573
0x0000000080008f60: 00 f7 07 b3 add	a5, a4, a5
0x0000000080008f64: 80 00 07 37 lui	a4, 524288
0x0000000080008f68: 00 17 07 1b addiw	a4, a4, 1
0x0000000080008f6c: 76 e7 a8 23 sw	a4, 1904(a5)
0x0000000080008f70: ff e0 07 13 addi	a4, zero, -2
0x0000000080008f74: 76 e7 aa 23 sw	a4, 1908(a5)
0x0000000080008f78: 77 07 a6 83 lw	a3, 1904(a5)
0x0000000080008f7c: 77 47 a6 03 lw	a2, 1908(a5)
0x0000000080008f80: ff f0 07 13 addi	a4, zero, -1
0x0000000080008f84: 00 d6 66 b3 or	a3, a2, a3
0x0000000080008f88: 00 06 86 9b sext.w	a3, a3
0x0000000080008f8c: 08 e6 86 63 beq	a3, a4, 140
0x0000000080009018: 00 00 57 37 lui	a4, 5
0x000000008000901c: 01 01 06 93 addi	a3, sp, 16
0x0000000080009020: 19 07 07 13 addi	a4, a4, 400
0x0000000080009024: 00 d7 07 33 add	a4, a4, a3
0x0000000080009028: ff ff d7 b7 lui	a5, 1048573
0x000000008000902c: 00 f7 07 b3 add	a5, a4, a5
0x0000000080009030: 80 00 07 37 lui	a4, 524288
0x0000000080009034: 00 17 07 1b addiw	a4, a4, 1
0x0000000080009038: 76 e7 ac 23 sw	a4, 1912(a5)
0x000000008000903c: ff f0 07 13 addi	a4, zero, -1
0x0000000080009040: 76 e7 ae 23 sw	a4, 1916(a5)
0x0000000080009044: 77 87 a6 83 lw	a3, 1912(a5)
0x0000000080009048: 77 c7 a6 03 lw	a2, 1916(a5)
0x000000008000904c: ff f0 07 13 addi	a4, zero, -1
0x0000000080009050: 00 d6 66 b3 or	a3, a2, a3
0x0000000080009054: 00 06 86 9b sext.w	a3, a3
0x0000000080009058: 08 e6 86 63 beq	a3, a4, 140
0x00000000800090e4: 00 00 57 37 lui	a4, 5
0x00000000800090e8: 01 01 06 93 addi	a3, sp, 16
0x00000000800090ec: 19 07 07 13 addi	a4, a4, 400
0x00000000800090f0: 00 d7 07 33 add	a4, a4, a3
0x00000000800090f4: ff ff d7 b7 lui	a5, 1048573
0x00000000800090f8: 00 f7 07 b3 add	a5, a4, a5
0x00000000800090fc: 80 00 07 37 lui	a4, 524288
0x0000000080009100: 00 17 07 1b addiw	a4, a4, 1
0x0000000080009104: 78 e7 a0 23 sw	a4, 1920(a5)
0x0000000080009108: 78 07 a2 23 sw	zero, 1924(a5)
0x000000008000910c: 78 07 a6 83 lw	a3, 1920(a5)
0x0000000080009110: 78 47 a6 03 lw	a2, 1924(a5)
0x0000000080009114: 80 00 07 37 lui	a4, 524288
0x0000000080009118: 00 17 07 13 addi	a4, a4, 1
0x000000008000911c: 00 d6 66 b3 or	a3, a2, a3
0x0000000080009120: 00 06 86 9b sext.w	a3, a3
0x0000000080009124: 08 e6 86 63 beq	a3, a4, 140
0x00000000800091b0: 00 00 57 37 lui	a4, 5
0x00000000800091b4: 01 01 06 93 addi	a3, sp, 16
0x00000000800091b8: 19 07 07 13 addi	a4, a4, 400
0x00000000800091bc: 00 d7 07 33 add	a4, a4, a3
0x00000000800091c0: ff ff d7 b7 lui	a5, 1048573
0x00000000800091c4: 00 f7 07 b3 add	a5, a4, a5
0x00000000800091c8: 80 00 07 37 lui	a4, 524288
0x00000000800091cc: 00 17 07 1b addiw	a4, a4, 1
0x00000000800091d0: 78 e7 a4 23 sw	a4, 1928(a5)
0x00000000800091d4: 00 10 07 13 addi	a4, zero, 1
0x00000000800091d8: 78 e7 a6 23 sw	a4, 1932(a5)
0x00000000800091dc: 78 87 a6 83 lw	a3, 1928(a5)
0x00000000800091e0: 78 c7 a6 03 lw	a2, 1932(a5)
0x00000000800091e4: 80 00 07 37 lui	a4, 524288
0x00000000800091e8: 00 17 07 13 addi	a4, a4, 1
0x00000000800091ec: 00 d6 66 b3 or	a3, a2, a3
0x00000000800091f0: 00 06 86 9b sext.w	a3, a3
0x00000000800091f4: 08 e6 86 63 beq	a3, a4, 140
0x0000000080009280: 00 00 57 37 lui	a4, 5
0x0000000080009284: 01 01 06 93 addi	a3, sp, 16
0x0000000080009288: 19 07 07 13 addi	a4, a4, 400
0x000000008000928c: 00 d7 07 33 add	a4, a4, a3
0x0000000080009290: ff ff d7 b7 lui	a5, 1048573
0x0000000080009294: 00 f7 07 b3 add	a5, a4, a5
0x0000000080009298: 80 00 07 37 lui	a4, 524288
0x000000008000929c: 00 17 07 1b addiw	a4, a4, 1
0x00000000800092a0: 78 e7 a8 23 sw	a4, 1936(a5)
0x00000000800092a4: 00 20 07 13 addi	a4, zero, 2
0x00000000800092a8: 78 e7 aa 23 sw	a4, 1940(a5)
0x00000000800092ac: 79 07 a6 83 lw	a3, 1936(a5)
0x00000000800092b0: 79 47 a6 03 lw	a2, 1940(a5)
0x00000000800092b4: 80 00 07 37 lui	a4, 524288
0x00000000800092b8: 00 37 07 13 addi	a4, a4, 3
0x00000000800092bc: 00 d6 66 b3 or	a3, a2, a3
0x00000000800092c0: 00 06 86 9b sext.w	a3, a3
0x00000000800092c4: 08 e6 86 63 beq	a3, a4, 140
0x0000000080009350: 00 00 56 b7 lui	a3, 5
0x0000000080009354: 01 01 06 13 addi	a2, sp, 16
0x0000000080009358: 19 06 86 93 addi	a3, a3, 400
0x000000008000935c: 00 c6 86 b3 add	a3, a3, a2
0x0000000080009360: 80 00 07 37 lui	a4, 524288
0x0000000080009364: ff ff d7 b7 lui	a5, 1048573
0x0000000080009368: 00 f6 87 b3 add	a5, a3, a5
0x000000008000936c: 00 17 06 9b addiw	a3, a4, 1
0x0000000080009370: 78 d7 ac 23 sw	a3, 1944(a5)
0x0000000080009374: ff e7 47 13 xori	a4, a4, -2
0x0000000080009378: 78 e7 ae 23 sw	a4, 1948(a5)
0x000000008000937c: 79 87 a6 83 lw	a3, 1944(a5)
0x0000000080009380: 79 c7 a6 03 lw	a2, 1948(a5)
0x0000000080009384: ff f0 07 13 addi	a4, zero, -1
0x0000000080009388: 00 d6 66 b3 or	a3, a2, a3
0x000000008000938c: 00 06 86 9b sext.w	a3, a3
0x0000000080009390: 08 e6 86 63 beq	a3, a4, 140
0x000000008000941c: 00 00 56 b7 lui	a3, 5
0x0000000080009420: 01 01 06 13 addi	a2, sp, 16
0x0000000080009424: 19 06 86 93 addi	a3, a3, 400
0x0000000080009428: 00 c6 86 b3 add	a3, a3, a2
0x000000008000942c: 80 00 07 37 lui	a4, 524288
0x0000000080009430: ff ff d7 b7 lui	a5, 1048573
0x0000000080009434: 00 f6 87 b3 add	a5, a3, a5
0x0000000080009438: 00 17 06 9b addiw	a3, a4, 1
0x000000008000943c: 7a d7 a0 23 sw	a3, 1952(a5)
0x0000000080009440: ff f7 47 13 not	a4, a4
0x0000000080009444: 7a e7 a2 23 sw	a4, 1956(a5)
0x0000000080009448: 7a 07 a6 83 lw	a3, 1952(a5)
0x000000008000944c: 7a 47 a6 03 lw	a2, 1956(a5)
0x0000000080009450: ff f0 07 13 addi	a4, zero, -1
0x0000000080009454: 00 d6 66 b3 or	a3, a2, a3
0x0000000080009458: 00 06 86 9b sext.w	a3, a3
0x000000008000945c: 08 e6 86 63 beq	a3, a4, 140
0x00000000800094e8: 00 00 57 37 lui	a4, 5
0x00000000800094ec: 01 01 06 93 addi	a3, sp, 16
0x00000000800094f0: 19 07 07 13 addi	a4, a4, 400
0x00000000800094f4: 00 d7 07 33 add	a4, a4, a3
0x00000000800094f8: ff ff d7 b7 lui	a5, 1048573
0x00000000800094fc: 00 f7 07 b3 add	a5, a4, a5
0x0000000080009500: ff e0 07 13 addi	a4, zero, -2
0x0000000080009504: 7a e7 a4 23 sw	a4, 1960(a5)
0x0000000080009508: 7a e7 a6 23 sw	a4, 1964(a5)
0x000000008000950c: 7a 87 a6 83 lw	a3, 1960(a5)
0x0000000080009510: 7a c7 a6 03 lw	a2, 1964(a5)
0x0000000080009514: ff e0 07 13 addi	a4, zero, -2
0x0000000080009518: 00 d6 66 b3 or	a3, a2, a3
0x000000008000951c: 00 06 86 9b sext.w	a3, a3
0x0000000080009520: 08 e6 84 63 beq	a3, a4, 136
0x00000000800095a8: 00 00 57 37 lui	a4, 5
0x00000000800095ac: 01 01 06 93 addi	a3, sp, 16
0x00000000800095b0: 19 07 07 13 addi	a4, a4, 400
0x00000000800095b4: 00 d7 07 33 add	a4, a4, a3
0x00000000800095b8: ff ff d7 b7 lui	a5, 1048573
0x00000000800095bc: 00 f7 07 b3 add	a5, a4, a5
0x00000000800095c0: ff e0 07 13 addi	a4, zero, -2
0x00000000800095c4: 7a e7 a8 23 sw	a4, 1968(a5)
0x00000000800095c8: ff f0 07 13 addi	a4, zero, -1
0x00000000800095cc: 7a e7 aa 23 sw	a4, 1972(a5)
0x00000000800095d0: 7b 07 a6 83 lw	a3, 1968(a5)
0x00000000800095d4: 7b 47 a6 03 lw	a2, 1972(a5)
0x00000000800095d8: ff f0 07 13 addi	a4, zero, -1
0x00000000800095dc: 00 d6 66 b3 or	a3, a2, a3
0x00000000800095e0: 00 06 86 9b sext.w	a3, a3
0x00000000800095e4: 08 e6 84 63 beq	a3, a4, 136
0x000000008000966c: 00 00 57 37 lui	a4, 5
0x0000000080009670: 01 01 06 93 addi	a3, sp, 16
0x0000000080009674: 19 07 07 13 addi	a4, a4, 400
0x0000000080009678: 00 d7 07 33 add	a4, a4, a3
0x000000008000967c: ff ff d7 b7 lui	a5, 1048573
0x0000000080009680: 00 f7 07 b3 add	a5, a4, a5
0x0000000080009684: ff e0 07 13 addi	a4, zero, -2
0x0000000080009688: 7a e7 ac 23 sw	a4, 1976(a5)
0x000000008000968c: 7a 07 ae 23 sw	zero, 1980(a5)
0x0000000080009690: 7b 87 a6 83 lw	a3, 1976(a5)
0x0000000080009694: 7b c7 a6 03 lw	a2, 1980(a5)
0x0000000080009698: ff e0 07 13 addi	a4, zero, -2
0x000000008000969c: 00 d6 66 b3 or	a3, a2, a3
0x00000000800096a0: 00 06 86 9b sext.w	a3, a3
0x00000000800096a4: 08 e6 84 63 beq	a3, a4, 136
0x000000008000972c: 00 00 57 37 lui	a4, 5
0x0000000080009730: 01 01 06 93 addi	a3, sp, 16
0x0000000080009734: 19 07 07 13 addi	a4, a4, 400
0x0000000080009738: 00 d7 07 33 add	a4, a4, a3
0x000000008000973c: ff ff d7 b7 lui	a5, 1048573
0x0000000080009740: 00 f7 07 b3 add	a5, a4, a5
0x0000000080009744: ff e0 07 13 addi	a4, zero, -2
0x0000000080009748: 7c e7 a0 23 sw	a4, 1984(a5)
0x000000008000974c: 00 10 07 13 addi	a4, zero, 1
0x0000000080009750: 7c e7 a2 23 sw	a4, 1988(a5)
0x0000000080009754: 7c 07 a6 83 lw	a3, 1984(a5)
0x0000000080009758: 7c 47 a6 03 lw	a2, 1988(a5)
0x000000008000975c: ff f0 07 13 addi	a4, zero, -1
0x0000000080009760: 00 d6 66 b3 or	a3, a2, a3
0x0000000080009764: 00 06 86 9b sext.w	a3, a3
0x0000000080009768: 08 e6 84 63 beq	a3, a4, 136
0x00000000800097f0: 00 00 57 37 lui	a4, 5
0x00000000800097f4: 01 01 06 93 addi	a3, sp, 16
0x00000000800097f8: 19 07 07 13 addi	a4, a4, 400
0x00000000800097fc: 00 d7 07 33 add	a4, a4, a3
0x0000000080009800: ff ff d7 b7 lui	a5, 1048573
0x0000000080009804: 00 f7 07 b3 add	a5, a4, a5
0x0000000080009808: ff e0 07 13 addi	a4, zero, -2
0x000000008000980c: 7c e7 a4 23 sw	a4, 1992(a5)
0x0000000080009810: 00 20 07 13 addi	a4, zero, 2
0x0000000080009814: 7c e7 a6 23 sw	a4, 1996(a5)
0x0000000080009818: 7c 87 a6 83 lw	a3, 1992(a5)
0x000000008000981c: 7c c7 a6 03 lw	a2, 1996(a5)
0x0000000080009820: ff e0 07 13 addi	a4, zero, -2
0x0000000080009824: 00 d6 66 b3 or	a3, a2, a3
0x0000000080009828: 00 06 86 9b sext.w	a3, a3
0x000000008000982c: 08 e6 84 63 beq	a3, a4, 136
0x00000000800098b4: 00 00 57 37 lui	a4, 5
0x00000000800098b8: 01 01 06 93 addi	a3, sp, 16
0x00000000800098bc: 19 07 07 13 addi	a4, a4, 400
0x00000000800098c0: 00 d7 07 33 add	a4, a4, a3
0x00000000800098c4: ff ff d7 b7 lui	a5, 1048573
0x00000000800098c8: 00 f7 07 b3 add	a5, a4, a5
0x00000000800098cc: ff e0 07 13 addi	a4, zero, -2
0x00000000800098d0: 7c e7 a8 23 sw	a4, 2000(a5)
0x00000000800098d4: 80 00 07 37 lui	a4, 524288
0x00000000800098d8: ff e7 47 13 xori	a4, a4, -2
0x00000000800098dc: 7c e7 aa 23 sw	a4, 2004(a5)
0x00000000800098e0: 7d 07 a6 83 lw	a3, 2000(a5)
0x00000000800098e4: 7d 47 a6 03 lw	a2, 2004(a5)
0x00000000800098e8: ff e0 07 13 addi	a4, zero, -2
0x00000000800098ec: 00 d6 66 b3 or	a3, a2, a3
0x00000000800098f0: 00 06 86 9b sext.w	a3, a3
0x00000000800098f4: 08 e6 86 63 beq	a3, a4, 140
0x0000000080009980: 00 00 57 37 lui	a4, 5
0x0000000080009984: 01 01 06 93 addi	a3, sp, 16
0x0000000080009988: 19 07 07 13 addi	a4, a4, 400
0x000000008000998c: 00 d7 07 33 add	a4, a4, a3
0x0000000080009990: ff ff d7 b7 lui	a5, 1048573
0x0000000080009994: 00 f7 07 b3 add	a5, a4, a5
0x0000000080009998: ff e0 07 13 addi	a4, zero, -2
0x000000008000999c: 7c e7 ac 23 sw	a4, 2008(a5)
0x00000000800099a0: 80 00 07 37 lui	a4, 524288
0x00000000800099a4: ff f7 47 13 not	a4, a4
0x00000000800099a8: 7c e7 ae 23 sw	a4, 2012(a5)
0x00000000800099ac: 7d 87 a6 83 lw	a3, 2008(a5)
0x00000000800099b0: 7d c7 a6 03 lw	a2, 2012(a5)
0x00000000800099b4: ff f0 07 13 addi	a4, zero, -1
0x00000000800099b8: 00 d6 66 b3 or	a3, a2, a3
0x00000000800099bc: 00 06 86 9b sext.w	a3, a3
0x00000000800099c0: 08 e6 86 63 beq	a3, a4, 140
0x0000000080009a4c: 00 00 57 37 lui	a4, 5
0x0000000080009a50: 01 01 06 93 addi	a3, sp, 16
0x0000000080009a54: 19 07 07 13 addi	a4, a4, 400
0x0000000080009a58: 00 d7 07 33 add	a4, a4, a3
0x0000000080009a5c: ff ff d7 b7 lui	a5, 1048573
0x0000000080009a60: 00 f7 07 b3 add	a5, a4, a5
0x0000000080009a64: ff f0 07 13 addi	a4, zero, -1
0x0000000080009a68: 7e e7 a0 23 sw	a4, 2016(a5)
0x0000000080009a6c: 7e e7 a2 23 sw	a4, 2020(a5)
0x0000000080009a70: 7e 07 a6 83 lw	a3, 2016(a5)
0x0000000080009a74: 7e 47 a6 03 lw	a2, 2020(a5)
0x0000000080009a78: ff f0 07 13 addi	a4, zero, -1
0x0000000080009a7c: 00 d6 66 b3 or	a3, a2, a3
0x0000000080009a80: 00 06 86 9b sext.w	a3, a3
0x0000000080009a84: 08 e6 84 63 beq	a3, a4, 136
0x0000000080009b0c: 00 00 57 37 lui	a4, 5
0x0000000080009b10: 01 01 06 93 addi	a3, sp, 16
0x0000000080009b14: 19 07 07 13 addi	a4, a4, 400
0x0000000080009b18: 00 d7 07 33 add	a4, a4, a3
0x0000000080009b1c: ff ff d7 b7 lui	a5, 1048573
0x0000000080009b20: 00 f7 07 b3 add	a5, a4, a5
0x0000000080009b24: ff f0 07 13 addi	a4, zero, -1
0x0000000080009b28: 7e e7 a4 23 sw	a4, 2024(a5)
0x0000000080009b2c: 7e 07 a6 23 sw	zero, 2028(a5)
0x0000000080009b30: 7e 87 a6 83 lw	a3, 2024(a5)
0x0000000080009b34: 7e c7 a6 03 lw	a2, 2028(a5)
0x0000000080009b38: ff f0 07 13 addi	a4, zero, -1
0x0000000080009b3c: 00 d6 66 b3 or	a3, a2, a3
0x0000000080009b40: 00 06 86 9b sext.w	a3, a3
0x0000000080009b44: 08 e6 84 63 beq	a3, a4, 136
0x0000000080009bcc: 00 00 57 37 lui	a4, 5
0x0000000080009bd0: 01 01 06 93 addi	a3, sp, 16
0x0000000080009bd4: 19 07 07 13 addi	a4, a4, 400
0x0000000080009bd8: 00 d7 07 33 add	a4, a4, a3
0x0000000080009bdc: ff ff d7 b7 lui	a5, 1048573
0x0000000080009be0: 00 f7 07 b3 add	a5, a4, a5
0x0000000080009be4: ff f0 07 13 addi	a4, zero, -1
0x0000000080009be8: 7e e7 a8 23 sw	a4, 2032(a5)
0x0000000080009bec: 00 10 07 13 addi	a4, zero, 1
0x0000000080009bf0: 7e e7 aa 23 sw	a4, 2036(a5)
0x0000000080009bf4: 7f 07 a6 83 lw	a3, 2032(a5)
0x0000000080009bf8: 7f 47 a6 03 lw	a2, 2036(a5)
0x0000000080009bfc: ff f0 07 13 addi	a4, zero, -1
0x0000000080009c00: 00 d6 66 b3 or	a3, a2, a3
0x0000000080009c04: 00 06 86 9b sext.w	a3, a3
0x0000000080009c08: 08 e6 84 63 beq	a3, a4, 136
0x0000000080009c90: 00 00 57 37 lui	a4, 5
0x0000000080009c94: 01 01 06 93 addi	a3, sp, 16
0x0000000080009c98: 19 07 07 13 addi	a4, a4, 400
0x0000000080009c9c: 00 d7 07 33 add	a4, a4, a3
0x0000000080009ca0: ff ff d7 b7 lui	a5, 1048573
0x0000000080009ca4: 00 f7 07 b3 add	a5, a4, a5
0x0000000080009ca8: ff f0 07 13 addi	a4, zero, -1
0x0000000080009cac: 7e e7 ac 23 sw	a4, 2040(a5)
0x0000000080009cb0: 00 20 07 13 addi	a4, zero, 2
0x0000000080009cb4: 7e e7 ae 23 sw	a4, 2044(a5)
0x0000000080009cb8: 7f 87 a6 83 lw	a3, 2040(a5)
0x0000000080009cbc: 7f c7 a6 03 lw	a2, 2044(a5)
0x0000000080009cc0: ff f0 07 13 addi	a4, zero, -1
0x0000000080009cc4: 00 d6 66 b3 or	a3, a2, a3
0x0000000080009cc8: 00 06 86 9b sext.w	a3, a3
0x0000000080009ccc: 08 e6 84 63 beq	a3, a4, 136
0x0000000080009d54: 00 00 57 37 lui	a4, 5
0x0000000080009d58: 01 01 06 93 addi	a3, sp, 16
0x0000000080009d5c: 19 07 07 13 addi	a4, a4, 400
0x0000000080009d60: 00 d7 07 33 add	a4, a4, a3
0x0000000080009d64: ff ff e7 b7 lui	a5, 1048574
0x0000000080009d68: 00 f7 07 b3 add	a5, a4, a5
0x0000000080009d6c: ff f0 07 13 addi	a4, zero, -1
0x0000000080009d70: 80 e7 a0 23 sw	a4, -2048(a5)
0x0000000080009d74: 80 00 07 37 lui	a4, 524288
0x0000000080009d78: ff e7 47 13 xori	a4, a4, -2
0x0000000080009d7c: 80 e7 a2 23 sw	a4, -2044(a5)
0x0000000080009d80: 80 07 a6 83 lw	a3, -2048(a5)
0x0000000080009d84: 80 47 a6 03 lw	a2, -2044(a5)
0x0000000080009d88: ff f0 07 13 addi	a4, zero, -1
0x0000000080009d8c: 00 d6 66 b3 or	a3, a2, a3
0x0000000080009d90: 00 06 86 9b sext.w	a3, a3
0x0000000080009d94: 08 e6 86 63 beq	a3, a4, 140
0x0000000080009e20: 00 00 57 37 lui	a4, 5
0x0000000080009e24: 01 01 06 93 addi	a3, sp, 16
0x0000000080009e28: 19 07 07 13 addi	a4, a4, 400
0x0000000080009e2c: 00 d7 07 33 add	a4, a4, a3
0x0000000080009e30: ff ff e7 b7 lui	a5, 1048574
0x0000000080009e34: 00 f7 07 b3 add	a5, a4, a5
0x0000000080009e38: ff f0 07 13 addi	a4, zero, -1
0x0000000080009e3c: 80 e7 a4 23 sw	a4, -2040(a5)
0x0000000080009e40: 80 00 07 37 lui	a4, 524288
0x0000000080009e44: ff f7 47 13 not	a4, a4
0x0000000080009e48: 80 e7 a6 23 sw	a4, -2036(a5)
0x0000000080009e4c: 80 87 a6 83 lw	a3, -2040(a5)
0x0000000080009e50: 80 c7 a6 03 lw	a2, -2036(a5)
0x0000000080009e54: ff f0 07 13 addi	a4, zero, -1
0x0000000080009e58: 00 d6 66 b3 or	a3, a2, a3
0x0000000080009e5c: 00 06 86 9b sext.w	a3, a3
0x0000000080009e60: 08 e6 86 63 beq	a3, a4, 140
0x0000000080009eec: 00 00 57 37 lui	a4, 5
0x0000000080009ef0: 01 01 06 93 addi	a3, sp, 16
0x0000000080009ef4: 19 07 07 13 addi	a4, a4, 400
0x0000000080009ef8: 00 d7 07 33 add	a4, a4, a3
0x0000000080009efc: ff ff e7 b7 lui	a5, 1048574
0x0000000080009f00: 00 f7 07 b3 add	a5, a4, a5
0x0000000080009f04: 80 07 a8 23 sw	zero, -2032(a5)
0x0000000080009f08: 80 07 aa 23 sw	zero, -2028(a5)
0x0000000080009f0c: 81 07 a7 03 lw	a4, -2032(a5)
0x0000000080009f10: 81 47 a6 83 lw	a3, -2028(a5)
0x0000000080009f14: 00 e6 e7 33 or	a4, a3, a4
0x0000000080009f18: 00 07 07 1b sext.w	a4, a4
0x0000000080009f1c: 08 07 04 63 beqz	a4, 136
0x0000000080009fa4: 00 00 57 37 lui	a4, 5
0x0000000080009fa8: 01 01 06 93 addi	a3, sp, 16
0x0000000080009fac: 19 07 07 13 addi	a4, a4, 400
0x0000000080009fb0: 00 d7 07 33 add	a4, a4, a3
0x0000000080009fb4: ff ff e7 b7 lui	a5, 1048574
0x0000000080009fb8: 00 f7 07 b3 add	a5, a4, a5
0x0000000080009fbc: 80 07 ac 23 sw	zero, -2024(a5)
0x0000000080009fc0: 00 10 07 13 addi	a4, zero, 1
0x0000000080009fc4: 80 e7 ae 23 sw	a4, -2020(a5)
0x0000000080009fc8: 81 87 a6 83 lw	a3, -2024(a5)
0x0000000080009fcc: 81 c7 a6 03 lw	a2, -2020(a5)
0x0000000080009fd0: 00 10 07 13 addi	a4, zero, 1
0x0000000080009fd4: 00 d6 66 b3 or	a3, a2, a3
0x0000000080009fd8: 00 06 86 9b sext.w	a3, a3
0x0000000080009fdc: 08 e6 84 63 beq	a3, a4, 136
0x000000008000a064: 00 00 57 37 lui	a4, 5
0x000000008000a068: 01 01 06 93 addi	a3, sp, 16
0x000000008000a06c: 19 07 07 13 addi	a4, a4, 400
0x000000008000a070: 00 d7 07 33 add	a4, a4, a3
0x000000008000a074: ff ff e7 b7 lui	a5, 1048574
0x000000008000a078: 00 f7 07 b3 add	a5, a4, a5
0x000000008000a07c: 82 07 a0 23 sw	zero, -2016(a5)
0x000000008000a080: 00 20 07 13 addi	a4, zero, 2
0x000000008000a084: 82 e7 a2 23 sw	a4, -2012(a5)
0x000000008000a088: 82 07 a6 83 lw	a3, -2016(a5)
0x000000008000a08c: 82 47 a6 03 lw	a2, -2012(a5)
0x000000008000a090: 00 20 07 13 addi	a4, zero, 2
0x000000008000a094: 00 d6 66 b3 or	a3, a2, a3
0x000000008000a098: 00 06 86 9b sext.w	a3, a3
0x000000008000a09c: 08 e6 84 63 beq	a3, a4, 136
0x000000008000a124: 00 00 57 37 lui	a4, 5
0x000000008000a128: 01 01 06 93 addi	a3, sp, 16
0x000000008000a12c: 19 07 07 13 addi	a4, a4, 400
0x000000008000a130: 00 d7 07 33 add	a4, a4, a3
0x000000008000a134: ff ff e7 b7 lui	a5, 1048574
0x000000008000a138: 00 f7 07 b3 add	a5, a4, a5
0x000000008000a13c: 80 00 07 37 lui	a4, 524288
0x000000008000a140: 82 07 a4 23 sw	zero, -2008(a5)
0x000000008000a144: ff e7 47 13 xori	a4, a4, -2
0x000000008000a148: 82 e7 a6 23 sw	a4, -2004(a5)
0x000000008000a14c: 82 87 a6 83 lw	a3, -2008(a5)
0x000000008000a150: 82 c7 a6 03 lw	a2, -2004(a5)
0x000000008000a154: 80 00 07 37 lui	a4, 524288
0x000000008000a158: ff e7 47 13 xori	a4, a4, -2
0x000000008000a15c: 00 d6 66 b3 or	a3, a2, a3
0x000000008000a160: 00 06 86 9b sext.w	a3, a3
0x000000008000a164: 08 e6 86 63 beq	a3, a4, 140
0x000000008000a1f0: 00 00 57 37 lui	a4, 5
0x000000008000a1f4: 01 01 06 93 addi	a3, sp, 16
0x000000008000a1f8: 19 07 07 13 addi	a4, a4, 400
0x000000008000a1fc: 00 d7 07 33 add	a4, a4, a3
0x000000008000a200: ff ff e7 b7 lui	a5, 1048574
0x000000008000a204: 00 f7 07 b3 add	a5, a4, a5
0x000000008000a208: 80 00 07 37 lui	a4, 524288
0x000000008000a20c: 82 07 a8 23 sw	zero, -2000(a5)
0x000000008000a210: ff f7 47 13 not	a4, a4
0x000000008000a214: 82 e7 aa 23 sw	a4, -1996(a5)
0x000000008000a218: 83 07 a6 83 lw	a3, -2000(a5)
0x000000008000a21c: 83 47 a6 03 lw	a2, -1996(a5)
0x000000008000a220: 80 00 07 37 lui	a4, 524288
0x000000008000a224: ff f7 47 13 not	a4, a4
0x000000008000a228: 00 d6 66 b3 or	a3, a2, a3
0x000000008000a22c: 00 06 86 9b sext.w	a3, a3
0x000000008000a230: 08 e6 86 63 beq	a3, a4, 140
0x000000008000a2bc: 00 00 57 37 lui	a4, 5
0x000000008000a2c0: 01 01 06 93 addi	a3, sp, 16
0x000000008000a2c4: 19 07 07 13 addi	a4, a4, 400
0x000000008000a2c8: 00 d7 07 33 add	a4, a4, a3
0x000000008000a2cc: ff ff e7 b7 lui	a5, 1048574
0x000000008000a2d0: 00 f7 07 b3 add	a5, a4, a5
0x000000008000a2d4: 00 10 07 13 addi	a4, zero, 1
0x000000008000a2d8: 82 e7 ac 23 sw	a4, -1992(a5)
0x000000008000a2dc: 82 e7 ae 23 sw	a4, -1988(a5)
0x000000008000a2e0: 83 87 a6 83 lw	a3, -1992(a5)
0x000000008000a2e4: 83 c7 a6 03 lw	a2, -1988(a5)
0x000000008000a2e8: 00 10 07 13 addi	a4, zero, 1
0x000000008000a2ec: 00 d6 66 b3 or	a3, a2, a3
0x000000008000a2f0: 00 06 86 9b sext.w	a3, a3
0x000000008000a2f4: 08 e6 84 63 beq	a3, a4, 136
0x000000008000a37c: 00 00 57 37 lui	a4, 5
0x000000008000a380: 01 01 06 93 addi	a3, sp, 16
0x000000008000a384: 19 07 07 13 addi	a4, a4, 400
0x000000008000a388: 00 d7 07 33 add	a4, a4, a3
0x000000008000a38c: ff ff e7 b7 lui	a5, 1048574
0x000000008000a390: 00 f7 07 b3 add	a5, a4, a5
0x000000008000a394: 00 10 07 13 addi	a4, zero, 1
0x000000008000a398: 84 e7 a0 23 sw	a4, -1984(a5)
0x000000008000a39c: 00 20 07 13 addi	a4, zero, 2
0x000000008000a3a0: 84 e7 a2 23 sw	a4, -1980(a5)
0x000000008000a3a4: 84 07 a6 83 lw	a3, -1984(a5)
0x000000008000a3a8: 84 47 a6 03 lw	a2, -1980(a5)
0x000000008000a3ac: 00 30 07 13 addi	a4, zero, 3
0x000000008000a3b0: 00 d6 66 b3 or	a3, a2, a3
0x000000008000a3b4: 00 06 86 9b sext.w	a3, a3
0x000000008000a3b8: 08 e6 84 63 beq	a3, a4, 136
0x000000008000a440: 00 00 57 37 lui	a4, 5
0x000000008000a444: 01 01 06 93 addi	a3, sp, 16
0x000000008000a448: 19 07 07 13 addi	a4, a4, 400
0x000000008000a44c: 00 d7 07 33 add	a4, a4, a3
0x000000008000a450: ff ff e7 b7 lui	a5, 1048574
0x000000008000a454: 00 f7 07 b3 add	a5, a4, a5
0x000000008000a458: 00 10 07 13 addi	a4, zero, 1
0x000000008000a45c: 84 e7 a4 23 sw	a4, -1976(a5)
0x000000008000a460: 80 00 07 37 lui	a4, 524288
0x000000008000a464: ff e7 47 13 xori	a4, a4, -2
0x000000008000a468: 84 e7 a6 23 sw	a4, -1972(a5)
0x000000008000a46c: 84 87 a6 83 lw	a3, -1976(a5)
0x000000008000a470: 84 c7 a6 03 lw	a2, -1972(a5)
0x000000008000a474: 80 00 07 37 lui	a4, 524288
0x000000008000a478: ff f7 47 13 not	a4, a4
0x000000008000a47c: 00 d6 66 b3 or	a3, a2, a3
0x000000008000a480: 00 06 86 9b sext.w	a3, a3
0x000000008000a484: 08 e6 84 63 beq	a3, a4, 136
0x000000008000a50c: 00 00 57 37 lui	a4, 5
0x000000008000a510: 01 01 06 93 addi	a3, sp, 16
0x000000008000a514: 19 07 07 13 addi	a4, a4, 400
0x000000008000a518: 00 d7 07 33 add	a4, a4, a3
0x000000008000a51c: ff ff e7 b7 lui	a5, 1048574
0x000000008000a520: 00 f7 07 b3 add	a5, a4, a5
0x000000008000a524: 00 10 07 13 addi	a4, zero, 1
0x000000008000a528: 84 e7 a8 23 sw	a4, -1968(a5)
0x000000008000a52c: 80 00 07 37 lui	a4, 524288
0x000000008000a530: ff f7 47 13 not	a4, a4
0x000000008000a534: 84 e7 aa 23 sw	a4, -1964(a5)
0x000000008000a538: 85 07 a6 83 lw	a3, -1968(a5)
0x000000008000a53c: 85 47 a6 03 lw	a2, -1964(a5)
0x000000008000a540: 80 00 07 37 lui	a4, 524288
0x000000008000a544: ff f7 47 13 not	a4, a4
0x000000008000a548: 00 d6 66 b3 or	a3, a2, a3
0x000000008000a54c: 00 06 86 9b sext.w	a3, a3
0x000000008000a550: 08 e6 86 63 beq	a3, a4, 140
0x000000008000a5dc: 00 00 57 37 lui	a4, 5
0x000000008000a5e0: 01 01 06 93 addi	a3, sp, 16
0x000000008000a5e4: 19 07 07 13 addi	a4, a4, 400
0x000000008000a5e8: 00 d7 07 33 add	a4, a4, a3
0x000000008000a5ec: ff ff e7 b7 lui	a5, 1048574
0x000000008000a5f0: 00 f7 07 b3 add	a5, a4, a5
0x000000008000a5f4: 00 20 07 13 addi	a4, zero, 2
0x000000008000a5f8: 84 e7 ac 23 sw	a4, -1960(a5)
0x000000008000a5fc: 84 e7 ae 23 sw	a4, -1956(a5)
0x000000008000a600: 85 87 a6 83 lw	a3, -1960(a5)
0x000000008000a604: 85 c7 a6 03 lw	a2, -1956(a5)
0x000000008000a608: 00 20 07 13 addi	a4, zero, 2
0x000000008000a60c: 00 d6 66 b3 or	a3, a2, a3
0x000000008000a610: 00 06 86 9b sext.w	a3, a3
0x000000008000a614: 08 e6 84 63 beq	a3, a4, 136
0x000000008000a69c: 00 00 57 37 lui	a4, 5
0x000000008000a6a0: 01 01 06 93 addi	a3, sp, 16
0x000000008000a6a4: 19 07 07 13 addi	a4, a4, 400
0x000000008000a6a8: 00 d7 07 33 add	a4, a4, a3
0x000000008000a6ac: ff ff e7 b7 lui	a5, 1048574
0x000000008000a6b0: 00 f7 07 b3 add	a5, a4, a5
0x000000008000a6b4: 00 20 07 13 addi	a4, zero, 2
0x000000008000a6b8: 86 e7 a0 23 sw	a4, -1952(a5)
0x000000008000a6bc: 80 00 07 37 lui	a4, 524288
0x000000008000a6c0: ff e7 47 13 xori	a4, a4, -2
0x000000008000a6c4: 86 e7 a2 23 sw	a4, -1948(a5)
0x000000008000a6c8: 86 07 a6 83 lw	a3, -1952(a5)
0x000000008000a6cc: 86 47 a6 03 lw	a2, -1948(a5)
0x000000008000a6d0: 80 00 07 37 lui	a4, 524288
0x000000008000a6d4: ff e7 47 13 xori	a4, a4, -2
0x000000008000a6d8: 00 d6 66 b3 or	a3, a2, a3
0x000000008000a6dc: 00 06 86 9b sext.w	a3, a3
0x000000008000a6e0: 08 e6 86 63 beq	a3, a4, 140
0x000000008000a76c: 00 00 57 37 lui	a4, 5
0x000000008000a770: 01 01 06 93 addi	a3, sp, 16
0x000000008000a774: 19 07 07 13 addi	a4, a4, 400
0x000000008000a778: 00 d7 07 33 add	a4, a4, a3
0x000000008000a77c: ff ff e7 b7 lui	a5, 1048574
0x000000008000a780: 00 f7 07 b3 add	a5, a4, a5
0x000000008000a784: 00 20 07 13 addi	a4, zero, 2
0x000000008000a788: 86 e7 a4 23 sw	a4, -1944(a5)
0x000000008000a78c: 80 00 07 37 lui	a4, 524288
0x000000008000a790: ff f7 47 13 not	a4, a4
0x000000008000a794: 86 e7 a6 23 sw	a4, -1940(a5)
0x000000008000a798: 86 87 a6 83 lw	a3, -1944(a5)
0x000000008000a79c: 86 c7 a6 03 lw	a2, -1940(a5)
0x000000008000a7a0: 80 00 07 37 lui	a4, 524288
0x000000008000a7a4: ff f7 47 13 not	a4, a4
0x000000008000a7a8: 00 d6 66 b3 or	a3, a2, a3
0x000000008000a7ac: 00 06 86 9b sext.w	a3, a3
0x000000008000a7b0: 08 e6 86 63 beq	a3, a4, 140
0x000000008000a83c: 00 00 57 37 lui	a4, 5
0x000000008000a840: 01 01 06 93 addi	a3, sp, 16
0x000000008000a844: 19 07 07 13 addi	a4, a4, 400
0x000000008000a848: 00 d7 07 33 add	a4, a4, a3
0x000000008000a84c: ff ff e7 b7 lui	a5, 1048574
0x000000008000a850: 00 f7 07 b3 add	a5, a4, a5
0x000000008000a854: 80 00 07 37 lui	a4, 524288
0x000000008000a858: ff e7 47 13 xori	a4, a4, -2
0x000000008000a85c: 86 e7 a8 23 sw	a4, -1936(a5)
0x000000008000a860: 86 e7 aa 23 sw	a4, -1932(a5)
0x000000008000a864: 87 07 a6 83 lw	a3, -1936(a5)
0x000000008000a868: 87 47 a6 03 lw	a2, -1932(a5)
0x000000008000a86c: 80 00 07 37 lui	a4, 524288
0x000000008000a870: ff e7 47 13 xori	a4, a4, -2
0x000000008000a874: 00 d6 66 b3 or	a3, a2, a3
0x000000008000a878: 00 06 86 9b sext.w	a3, a3
0x000000008000a87c: 08 e6 86 63 beq	a3, a4, 140
0x000000008000a908: 00 00 56 b7 lui	a3, 5
0x000000008000a90c: 01 01 06 13 addi	a2, sp, 16
0x000000008000a910: 19 06 86 93 addi	a3, a3, 400
0x000000008000a914: 00 c6 86 b3 add	a3, a3, a2
0x000000008000a918: 80 00 07 37 lui	a4, 524288
0x000000008000a91c: ff ff e7 b7 lui	a5, 1048574
0x000000008000a920: 00 f6 87 b3 add	a5, a3, a5
0x000000008000a924: ff e7 46 93 xori	a3, a4, -2
0x000000008000a928: 86 d7 ac 23 sw	a3, -1928(a5)
0x000000008000a92c: ff f7 47 13 not	a4, a4
0x000000008000a930: 86 e7 ae 23 sw	a4, -1924(a5)
0x000000008000a934: 87 87 a6 83 lw	a3, -1928(a5)
0x000000008000a938: 87 c7 a6 03 lw	a2, -1924(a5)
0x000000008000a93c: 80 00 07 37 lui	a4, 524288
0x000000008000a940: ff f7 47 13 not	a4, a4
0x000000008000a944: 00 d6 66 b3 or	a3, a2, a3
0x000000008000a948: 00 06 86 9b sext.w	a3, a3
0x000000008000a94c: 08 e6 86 63 beq	a3, a4, 140
0x000000008000a9d8: 00 00 57 37 lui	a4, 5
0x000000008000a9dc: 01 01 06 93 addi	a3, sp, 16
0x000000008000a9e0: 19 07 07 13 addi	a4, a4, 400
0x000000008000a9e4: 00 d7 07 33 add	a4, a4, a3
0x000000008000a9e8: ff ff e7 b7 lui	a5, 1048574
0x000000008000a9ec: 00 f7 07 b3 add	a5, a4, a5
0x000000008000a9f0: 80 00 07 37 lui	a4, 524288
0x000000008000a9f4: ff f7 47 13 not	a4, a4
0x000000008000a9f8: 88 e7 a0 23 sw	a4, -1920(a5)
0x000000008000a9fc: 88 e7 a2 23 sw	a4, -1916(a5)
0x000000008000aa00: 88 07 a6 83 lw	a3, -1920(a5)
0x000000008000aa04: 88 47 a6 03 lw	a2, -1916(a5)
0x000000008000aa08: 80 00 07 37 lui	a4, 524288
0x000000008000aa0c: ff f7 47 13 not	a4, a4
0x000000008000aa10: 00 d6 66 b3 or	a3, a2, a3
0x000000008000aa14: 00 06 86 9b sext.w	a3, a3
0x000000008000aa18: 08 e6 86 63 beq	a3, a4, 140
0x000000008000aaa4: 00 00 57 37 lui	a4, 5
0x000000008000aaa8: 01 01 06 93 addi	a3, sp, 16
0x000000008000aaac: 19 07 07 13 addi	a4, a4, 400
0x000000008000aab0: 00 d7 07 33 add	a4, a4, a3
0x000000008000aab4: ff ff e7 b7 lui	a5, 1048574
0x000000008000aab8: 00 f7 07 b3 add	a5, a4, a5
0x000000008000aabc: 80 00 07 37 lui	a4, 524288
0x000000008000aac0: 88 e7 a4 23 sw	a4, -1912(a5)
0x000000008000aac4: 88 07 a6 23 sw	zero, -1908(a5)
0x000000008000aac8: 88 87 a6 03 lw	a2, -1912(a5)
0x000000008000aacc: 88 c7 a6 83 lw	a3, -1908(a5)
0x000000008000aad0: 80 00 07 37 lui	a4, 524288
0x000000008000aad4: 00 d6 16 bb sllw	a3, a2, a3
0x000000008000aad8: 06 e6 8e 63 beq	a3, a4, 124
0x000000008000ab54: 00 00 57 37 lui	a4, 5
0x000000008000ab58: 01 01 06 93 addi	a3, sp, 16
0x000000008000ab5c: 19 07 07 13 addi	a4, a4, 400
0x000000008000ab60: 00 d7 07 33 add	a4, a4, a3
0x000000008000ab64: ff ff e7 b7 lui	a5, 1048574
0x000000008000ab68: 00 f7 07 b3 add	a5, a4, a5
0x000000008000ab6c: 80 00 07 37 lui	a4, 524288
0x000000008000ab70: 88 e7 a8 23 sw	a4, -1904(a5)
0x000000008000ab74: 00 10 07 13 addi	a4, zero, 1
0x000000008000ab78: 88 e7 aa 23 sw	a4, -1900(a5)
0x000000008000ab7c: 89 07 a6 83 lw	a3, -1904(a5)
0x000000008000ab80: 89 47 a7 03 lw	a4, -1900(a5)
0x000000008000ab84: 00 e6 97 3b sllw	a4, a3, a4
0x000000008000ab88: 06 07 0e 63 beqz	a4, 124
0x000000008000ac04: 00 00 57 37 lui	a4, 5
0x000000008000ac08: 01 01 06 93 addi	a3, sp, 16
0x000000008000ac0c: 19 07 07 13 addi	a4, a4, 400
0x000000008000ac10: 00 d7 07 33 add	a4, a4, a3
0x000000008000ac14: ff ff e7 b7 lui	a5, 1048574
0x000000008000ac18: 00 f7 07 b3 add	a5, a4, a5
0x000000008000ac1c: 80 00 07 37 lui	a4, 524288
0x000000008000ac20: 88 e7 ac 23 sw	a4, -1896(a5)
0x000000008000ac24: 00 20 07 13 addi	a4, zero, 2
0x000000008000ac28: 88 e7 ae 23 sw	a4, -1892(a5)
0x000000008000ac2c: 89 87 a6 83 lw	a3, -1896(a5)
0x000000008000ac30: 89 c7 a7 03 lw	a4, -1892(a5)
0x000000008000ac34: 00 e6 97 3b sllw	a4, a3, a4
0x000000008000ac38: 06 07 0e 63 beqz	a4, 124
0x000000008000acb4: 00 00 57 37 lui	a4, 5
0x000000008000acb8: 01 01 06 93 addi	a3, sp, 16
0x000000008000acbc: 19 07 07 13 addi	a4, a4, 400
0x000000008000acc0: 00 d7 07 33 add	a4, a4, a3
0x000000008000acc4: ff ff e7 b7 lui	a5, 1048574
0x000000008000acc8: 00 f7 07 b3 add	a5, a4, a5
0x000000008000accc: 80 00 07 37 lui	a4, 524288
0x000000008000acd0: 00 17 07 1b addiw	a4, a4, 1
0x000000008000acd4: 8a e7 a0 23 sw	a4, -1888(a5)
0x000000008000acd8: 8a 07 a2 23 sw	zero, -1884(a5)
0x000000008000acdc: 8a 07 a6 03 lw	a2, -1888(a5)
0x000000008000ace0: 8a 47 a6 83 lw	a3, -1884(a5)
0x000000008000ace4: 80 00 07 37 lui	a4, 524288
0x000000008000ace8: 00 17 07 13 addi	a4, a4, 1
0x000000008000acec: 00 d6 16 bb sllw	a3, a2, a3
0x000000008000acf0: 08 e6 80 63 beq	a3, a4, 128
0x000000008000ad70: 00 00 57 37 lui	a4, 5
0x000000008000ad74: 01 01 06 93 addi	a3, sp, 16
0x000000008000ad78: 19 07 07 13 addi	a4, a4, 400
0x000000008000ad7c: 00 d7 07 33 add	a4, a4, a3
0x000000008000ad80: ff ff e7 b7 lui	a5, 1048574
0x000000008000ad84: 00 f7 07 b3 add	a5, a4, a5
0x000000008000ad88: 80 00 07 37 lui	a4, 524288
0x000000008000ad8c: 00 17 07 1b addiw	a4, a4, 1
0x000000008000ad90: 8a e7 a4 23 sw	a4, -1880(a5)
0x000000008000ad94: 00 10 07 13 addi	a4, zero, 1
0x000000008000ad98: 8a e7 a6 23 sw	a4, -1876(a5)
0x000000008000ad9c: 8a 87 a6 03 lw	a2, -1880(a5)
0x000000008000ada0: 8a c7 a6 83 lw	a3, -1876(a5)
0x000000008000ada4: 00 20 07 13 addi	a4, zero, 2
0x000000008000ada8: 00 d6 16 bb sllw	a3, a2, a3
0x000000008000adac: 08 e6 80 63 beq	a3, a4, 128
0x000000008000ae2c: 00 00 57 37 lui	a4, 5
0x000000008000ae30: 01 01 06 93 addi	a3, sp, 16
0x000000008000ae34: 19 07 07 13 addi	a4, a4, 400
0x000000008000ae38: 00 d7 07 33 add	a4, a4, a3
0x000000008000ae3c: ff ff e7 b7 lui	a5, 1048574
0x000000008000ae40: 00 f7 07 b3 add	a5, a4, a5
0x000000008000ae44: 80 00 07 37 lui	a4, 524288
0x000000008000ae48: 00 17 07 1b addiw	a4, a4, 1
0x000000008000ae4c: 8a e7 a8 23 sw	a4, -1872(a5)
0x000000008000ae50: 00 20 07 13 addi	a4, zero, 2
0x000000008000ae54: 8a e7 aa 23 sw	a4, -1868(a5)
0x000000008000ae58: 8b 07 a6 03 lw	a2, -1872(a5)
0x000000008000ae5c: 8b 47 a6 83 lw	a3, -1868(a5)
0x000000008000ae60: 00 40 07 13 addi	a4, zero, 4
0x000000008000ae64: 00 d6 16 bb sllw	a3, a2, a3
0x000000008000ae68: 08 e6 80 63 beq	a3, a4, 128
0x000000008000aee8: 00 00 57 37 lui	a4, 5
0x000000008000aeec: 01 01 06 93 addi	a3, sp, 16
0x000000008000aef0: 19 07 07 13 addi	a4, a4, 400
0x000000008000aef4: 00 d7 07 33 add	a4, a4, a3
0x000000008000aef8: ff ff e7 b7 lui	a5, 1048574
0x000000008000aefc: 00 f7 07 b3 add	a5, a4, a5
0x000000008000af00: ff e0 07 13 addi	a4, zero, -2
0x000000008000af04: 8a e7 ac 23 sw	a4, -1864(a5)
0x000000008000af08: 8a 07 ae 23 sw	zero, -1860(a5)
0x000000008000af0c: 8b 87 a6 03 lw	a2, -1864(a5)
0x000000008000af10: 8b c7 a6 83 lw	a3, -1860(a5)
0x000000008000af14: ff e0 07 13 addi	a4, zero, -2
0x000000008000af18: 00 d6 16 bb sllw	a3, a2, a3
0x000000008000af1c: 06 e6 8e 63 beq	a3, a4, 124
0x000000008000af98: 00 00 57 37 lui	a4, 5
0x000000008000af9c: 01 01 06 93 addi	a3, sp, 16
0x000000008000afa0: 19 07 07 13 addi	a4, a4, 400
0x000000008000afa4: 00 d7 07 33 add	a4, a4, a3
0x000000008000afa8: ff ff e7 b7 lui	a5, 1048574
0x000000008000afac: 00 f7 07 b3 add	a5, a4, a5
0x000000008000afb0: ff e0 07 13 addi	a4, zero, -2
0x000000008000afb4: 8c e7 a0 23 sw	a4, -1856(a5)
0x000000008000afb8: 00 10 07 13 addi	a4, zero, 1
0x000000008000afbc: 8c e7 a2 23 sw	a4, -1852(a5)
0x000000008000afc0: 8c 07 a6 03 lw	a2, -1856(a5)
0x000000008000afc4: 8c 47 a6 83 lw	a3, -1852(a5)
0x000000008000afc8: ff c0 07 13 addi	a4, zero, -4
0x000000008000afcc: 00 d6 16 bb sllw	a3, a2, a3
0x000000008000afd0: 06 e6 8e 63 beq	a3, a4, 124
0x000000008000b04c: 00 00 57 37 lui	a4, 5
0x000000008000b050: 01 01 06 93 addi	a3, sp, 16
0x000000008000b054: 19 07 07 13 addi	a4, a4, 400
0x000000008000b058: 00 d7 07 33 add	a4, a4, a3
0x000000008000b05c: ff ff e7 b7 lui	a5, 1048574
0x000000008000b060: 00 f7 07 b3 add	a5, a4, a5
0x000000008000b064: ff e0 07 13 addi	a4, zero, -2
0x000000008000b068: 8c e7 a4 23 sw	a4, -1848(a5)
0x000000008000b06c: 00 20 07 13 addi	a4, zero, 2
0x000000008000b070: 8c e7 a6 23 sw	a4, -1844(a5)
0x000000008000b074: 8c 87 a6 03 lw	a2, -1848(a5)
0x000000008000b078: 8c c7 a6 83 lw	a3, -1844(a5)
0x000000008000b07c: ff 80 07 13 addi	a4, zero, -8
0x000000008000b080: 00 d6 16 bb sllw	a3, a2, a3
0x000000008000b084: 06 e6 8e 63 beq	a3, a4, 124
0x000000008000b100: 00 00 57 37 lui	a4, 5
0x000000008000b104: 01 01 06 93 addi	a3, sp, 16
0x000000008000b108: 19 07 07 13 addi	a4, a4, 400
0x000000008000b10c: 00 d7 07 33 add	a4, a4, a3
0x000000008000b110: ff ff e7 b7 lui	a5, 1048574
0x000000008000b114: 00 f7 07 b3 add	a5, a4, a5
0x000000008000b118: ff f0 07 13 addi	a4, zero, -1
0x000000008000b11c: 8c e7 a8 23 sw	a4, -1840(a5)
0x000000008000b120: 8c 07 aa 23 sw	zero, -1836(a5)
0x000000008000b124: 8d 07 a6 03 lw	a2, -1840(a5)
0x000000008000b128: 8d 47 a6 83 lw	a3, -1836(a5)
0x000000008000b12c: ff f0 07 13 addi	a4, zero, -1
0x000000008000b130: 00 d6 16 bb sllw	a3, a2, a3
0x000000008000b134: 06 e6 8e 63 beq	a3, a4, 124
0x000000008000b1b0: 00 00 57 37 lui	a4, 5
0x000000008000b1b4: 01 01 06 93 addi	a3, sp, 16
0x000000008000b1b8: 19 07 07 13 addi	a4, a4, 400
0x000000008000b1bc: 00 d7 07 33 add	a4, a4, a3
0x000000008000b1c0: ff ff e7 b7 lui	a5, 1048574
0x000000008000b1c4: 00 f7 07 b3 add	a5, a4, a5
0x000000008000b1c8: ff f0 07 13 addi	a4, zero, -1
0x000000008000b1cc: 8c e7 ac 23 sw	a4, -1832(a5)
0x000000008000b1d0: 00 10 07 13 addi	a4, zero, 1
0x000000008000b1d4: 8c e7 ae 23 sw	a4, -1828(a5)
0x000000008000b1d8: 8d 87 a6 03 lw	a2, -1832(a5)
0x000000008000b1dc: 8d c7 a6 83 lw	a3, -1828(a5)
0x000000008000b1e0: ff e0 07 13 addi	a4, zero, -2
0x000000008000b1e4: 00 d6 16 bb sllw	a3, a2, a3
0x000000008000b1e8: 06 e6 8e 63 beq	a3, a4, 124
0x000000008000b264: 00 00 57 37 lui	a4, 5
0x000000008000b268: 01 01 06 93 addi	a3, sp, 16
0x000000008000b26c: 19 07 07 13 addi	a4, a4, 400
0x000000008000b270: 00 d7 07 33 add	a4, a4, a3
0x000000008000b274: ff ff e7 b7 lui	a5, 1048574
0x000000008000b278: 00 f7 07 b3 add	a5, a4, a5
0x000000008000b27c: ff f0 07 13 addi	a4, zero, -1
0x000000008000b280: 8e e7 a0 23 sw	a4, -1824(a5)
0x000000008000b284: 00 20 07 13 addi	a4, zero, 2
0x000000008000b288: 8e e7 a2 23 sw	a4, -1820(a5)
0x000000008000b28c: 8e 07 a6 03 lw	a2, -1824(a5)
0x000000008000b290: 8e 47 a6 83 lw	a3, -1820(a5)
0x000000008000b294: ff c0 07 13 addi	a4, zero, -4
0x000000008000b298: 00 d6 16 bb sllw	a3, a2, a3
0x000000008000b29c: 06 e6 8e 63 beq	a3, a4, 124
0x000000008000b318: 00 00 57 37 lui	a4, 5
0x000000008000b31c: 01 01 06 93 addi	a3, sp, 16
0x000000008000b320: 19 07 07 13 addi	a4, a4, 400
0x000000008000b324: 00 d7 07 33 add	a4, a4, a3
0x000000008000b328: ff ff e7 b7 lui	a5, 1048574
0x000000008000b32c: 00 f7 07 b3 add	a5, a4, a5
0x000000008000b330: 8e 07 a4 23 sw	zero, -1816(a5)
0x000000008000b334: 8e 07 a6 23 sw	zero, -1812(a5)
0x000000008000b338: 8e 87 a6 83 lw	a3, -1816(a5)
0x000000008000b33c: 8e c7 a7 03 lw	a4, -1812(a5)
0x000000008000b340: 00 e6 97 3b sllw	a4, a3, a4
0x000000008000b344: 06 07 0e 63 beqz	a4, 124
0x000000008000b3c0: 00 00 57 37 lui	a4, 5
0x000000008000b3c4: 01 01 06 93 addi	a3, sp, 16
0x000000008000b3c8: 19 07 07 13 addi	a4, a4, 400
0x000000008000b3cc: 00 d7 07 33 add	a4, a4, a3
0x000000008000b3d0: ff ff e7 b7 lui	a5, 1048574
0x000000008000b3d4: 00 f7 07 b3 add	a5, a4, a5
0x000000008000b3d8: 8e 07 a8 23 sw	zero, -1808(a5)
0x000000008000b3dc: 00 10 07 13 addi	a4, zero, 1
0x000000008000b3e0: 8e e7 aa 23 sw	a4, -1804(a5)
0x000000008000b3e4: 8f 07 a6 83 lw	a3, -1808(a5)
0x000000008000b3e8: 8f 47 a7 03 lw	a4, -1804(a5)
0x000000008000b3ec: 00 e6 97 3b sllw	a4, a3, a4
0x000000008000b3f0: 06 07 0e 63 beqz	a4, 124
0x000000008000b46c: 00 00 57 37 lui	a4, 5
0x000000008000b470: 01 01 06 93 addi	a3, sp, 16
0x000000008000b474: 19 07 07 13 addi	a4, a4, 400
0x000000008000b478: 00 d7 07 33 add	a4, a4, a3
0x000000008000b47c: ff ff e7 b7 lui	a5, 1048574
0x000000008000b480: 00 f7 07 b3 add	a5, a4, a5
0x000000008000b484: 8e 07 ac 23 sw	zero, -1800(a5)
0x000000008000b488: 00 20 07 13 addi	a4, zero, 2
0x000000008000b48c: 8e e7 ae 23 sw	a4, -1796(a5)
0x000000008000b490: 8f 87 a6 83 lw	a3, -1800(a5)
0x000000008000b494: 8f c7 a7 03 lw	a4, -1796(a5)
0x000000008000b498: 00 e6 97 3b sllw	a4, a3, a4
0x000000008000b49c: 06 07 0e 63 beqz	a4, 124
0x000000008000b518: 00 00 57 37 lui	a4, 5
0x000000008000b51c: 01 01 06 93 addi	a3, sp, 16
0x000000008000b520: 19 07 07 13 addi	a4, a4, 400
0x000000008000b524: 00 d7 07 33 add	a4, a4, a3
0x000000008000b528: ff ff e7 b7 lui	a5, 1048574
0x000000008000b52c: 00 f7 07 b3 add	a5, a4, a5
0x000000008000b530: 00 10 07 13 addi	a4, zero, 1
0x000000008000b534: 90 e7 a0 23 sw	a4, -1792(a5)
0x000000008000b538: 90 e7 a2 23 sw	a4, -1788(a5)
0x000000008000b53c: 90 07 a6 03 lw	a2, -1792(a5)
0x000000008000b540: 90 47 a6 83 lw	a3, -1788(a5)
0x000000008000b544: 00 20 07 13 addi	a4, zero, 2
0x000000008000b548: 00 d6 16 bb sllw	a3, a2, a3
0x000000008000b54c: 06 e6 8e 63 beq	a3, a4, 124
0x000000008000b5c8: 00 00 57 37 lui	a4, 5
0x000000008000b5cc: 01 01 06 93 addi	a3, sp, 16
0x000000008000b5d0: 19 07 07 13 addi	a4, a4, 400
0x000000008000b5d4: 00 d7 07 33 add	a4, a4, a3
0x000000008000b5d8: ff ff e7 b7 lui	a5, 1048574
0x000000008000b5dc: 00 f7 07 b3 add	a5, a4, a5
0x000000008000b5e0: 00 10 07 13 addi	a4, zero, 1
0x000000008000b5e4: 90 e7 a4 23 sw	a4, -1784(a5)
0x000000008000b5e8: 00 20 07 13 addi	a4, zero, 2
0x000000008000b5ec: 90 e7 a6 23 sw	a4, -1780(a5)
0x000000008000b5f0: 90 87 a6 03 lw	a2, -1784(a5)
0x000000008000b5f4: 90 c7 a6 83 lw	a3, -1780(a5)
0x000000008000b5f8: 00 40 07 13 addi	a4, zero, 4
0x000000008000b5fc: 00 d6 16 bb sllw	a3, a2, a3
0x000000008000b600: 06 e6 8e 63 beq	a3, a4, 124
0x000000008000b67c: 00 00 57 37 lui	a4, 5
0x000000008000b680: 01 01 06 93 addi	a3, sp, 16
0x000000008000b684: 19 07 07 13 addi	a4, a4, 400
0x000000008000b688: 00 d7 07 33 add	a4, a4, a3
0x000000008000b68c: ff ff e7 b7 lui	a5, 1048574
0x000000008000b690: 00 f7 07 b3 add	a5, a4, a5
0x000000008000b694: 00 20 07 13 addi	a4, zero, 2
0x000000008000b698: 90 e7 a8 23 sw	a4, -1776(a5)
0x000000008000b69c: 90 e7 aa 23 sw	a4, -1772(a5)
0x000000008000b6a0: 91 07 a6 03 lw	a2, -1776(a5)
0x000000008000b6a4: 91 47 a6 83 lw	a3, -1772(a5)
0x000000008000b6a8: 00 80 07 13 addi	a4, zero, 8
0x000000008000b6ac: 00 d6 16 bb sllw	a3, a2, a3
0x000000008000b6b0: 06 e6 8e 63 beq	a3, a4, 124
0x000000008000b72c: 00 00 57 37 lui	a4, 5
0x000000008000b730: 01 01 06 93 addi	a3, sp, 16
0x000000008000b734: 19 07 07 13 addi	a4, a4, 400
0x000000008000b738: 00 d7 07 33 add	a4, a4, a3
0x000000008000b73c: ff ff e7 b7 lui	a5, 1048574
0x000000008000b740: 00 f7 07 b3 add	a5, a4, a5
0x000000008000b744: 80 00 07 37 lui	a4, 524288
0x000000008000b748: 90 e7 ac 23 sw	a4, -1768(a5)
0x000000008000b74c: 90 07 ae 23 sw	zero, -1764(a5)
0x000000008000b750: 91 87 a6 03 lw	a2, -1768(a5)
0x000000008000b754: 91 c7 a6 83 lw	a3, -1764(a5)
0x000000008000b758: 80 00 07 37 lui	a4, 524288
0x000000008000b75c: 40 d6 56 bb sraw	a3, a2, a3
0x000000008000b760: 06 e6 8e 63 beq	a3, a4, 124
0x000000008000b7dc: 00 00 57 37 lui	a4, 5
0x000000008000b7e0: 01 01 06 93 addi	a3, sp, 16
0x000000008000b7e4: 19 07 07 13 addi	a4, a4, 400
0x000000008000b7e8: 00 d7 07 33 add	a4, a4, a3
0x000000008000b7ec: ff ff e7 b7 lui	a5, 1048574
0x000000008000b7f0: 00 f7 07 b3 add	a5, a4, a5
0x000000008000b7f4: 80 00 07 37 lui	a4, 524288
0x000000008000b7f8: 92 e7 a0 23 sw	a4, -1760(a5)
0x000000008000b7fc: 00 10 07 13 addi	a4, zero, 1
0x000000008000b800: 92 e7 a2 23 sw	a4, -1756(a5)
0x000000008000b804: 92 07 a6 03 lw	a2, -1760(a5)
0x000000008000b808: 92 47 a6 83 lw	a3, -1756(a5)
0x000000008000b80c: c0 00 07 37 lui	a4, 786432
0x000000008000b810: 40 d6 56 bb sraw	a3, a2, a3
0x000000008000b814: 06 e6 8e 63 beq	a3, a4, 124
0x000000008000b890: 00 00 57 37 lui	a4, 5
0x000000008000b894: 01 01 06 93 addi	a3, sp, 16
0x000000008000b898: 19 07 07 13 addi	a4, a4, 400
0x000000008000b89c: 00 d7 07 33 add	a4, a4, a3
0x000000008000b8a0: ff ff e7 b7 lui	a5, 1048574
0x000000008000b8a4: 00 f7 07 b3 add	a5, a4, a5
0x000000008000b8a8: 80 00 07 37 lui	a4, 524288
0x000000008000b8ac: 92 e7 a4 23 sw	a4, -1752(a5)
0x000000008000b8b0: 00 20 07 13 addi	a4, zero, 2
0x000000008000b8b4: 92 e7 a6 23 sw	a4, -1748(a5)
0x000000008000b8b8: 92 87 a6 03 lw	a2, -1752(a5)
0x000000008000b8bc: 92 c7 a6 83 lw	a3, -1748(a5)
0x000000008000b8c0: e0 00 07 37 lui	a4, 917504
0x000000008000b8c4: 40 d6 56 bb sraw	a3, a2, a3
0x000000008000b8c8: 06 e6 8e 63 beq	a3, a4, 124
0x000000008000b944: 00 00 57 37 lui	a4, 5
0x000000008000b948: 01 01 06 93 addi	a3, sp, 16
0x000000008000b94c: 19 07 07 13 addi	a4, a4, 400
0x000000008000b950: 00 d7 07 33 add	a4, a4, a3
0x000000008000b954: ff ff e7 b7 lui	a5, 1048574
0x000000008000b958: 00 f7 07 b3 add	a5, a4, a5
0x000000008000b95c: 80 00 07 37 lui	a4, 524288
0x000000008000b960: 00 17 07 1b addiw	a4, a4, 1
0x000000008000b964: 92 e7 a8 23 sw	a4, -1744(a5)
0x000000008000b968: 92 07 aa 23 sw	zero, -1740(a5)
0x000000008000b96c: 93 07 a6 03 lw	a2, -1744(a5)
0x000000008000b970: 93 47 a6 83 lw	a3, -1740(a5)
0x000000008000b974: 80 00 07 37 lui	a4, 524288
0x000000008000b978: 00 17 07 13 addi	a4, a4, 1
0x000000008000b97c: 40 d6 56 bb sraw	a3, a2, a3
0x000000008000b980: 08 e6 80 63 beq	a3, a4, 128
0x000000008000ba00: 00 00 57 37 lui	a4, 5
0x000000008000ba04: 01 01 06 93 addi	a3, sp, 16
0x000000008000ba08: 19 07 07 13 addi	a4, a4, 400
0x000000008000ba0c: 00 d7 07 33 add	a4, a4, a3
0x000000008000ba10: ff ff e7 b7 lui	a5, 1048574
0x000000008000ba14: 00 f7 07 b3 add	a5, a4, a5
0x000000008000ba18: 80 00 07 37 lui	a4, 524288
0x000000008000ba1c: 00 17 07 1b addiw	a4, a4, 1
0x000000008000ba20: 92 e7 ac 23 sw	a4, -1736(a5)
0x000000008000ba24: 00 10 07 13 addi	a4, zero, 1
0x000000008000ba28: 92 e7 ae 23 sw	a4, -1732(a5)
0x000000008000ba2c: 93 87 a6 03 lw	a2, -1736(a5)
0x000000008000ba30: 93 c7 a6 83 lw	a3, -1732(a5)
0x000000008000ba34: c0 00 07 37 lui	a4, 786432
0x000000008000ba38: 40 d6 56 bb sraw	a3, a2, a3
0x000000008000ba3c: 08 e6 80 63 beq	a3, a4, 128
0x000000008000babc: 00 00 57 37 lui	a4, 5
0x000000008000bac0: 01 01 06 93 addi	a3, sp, 16
0x000000008000bac4: 19 07 07 13 addi	a4, a4, 400
0x000000008000bac8: 00 d7 07 33 add	a4, a4, a3
0x000000008000bacc: ff ff e7 b7 lui	a5, 1048574
0x000000008000bad0: 00 f7 07 b3 add	a5, a4, a5
0x000000008000bad4: 80 00 07 37 lui	a4, 524288
0x000000008000bad8: 00 17 07 1b addiw	a4, a4, 1
0x000000008000badc: 94 e7 a0 23 sw	a4, -1728(a5)
0x000000008000bae0: 00 20 07 13 addi	a4, zero, 2
0x000000008000bae4: 94 e7 a2 23 sw	a4, -1724(a5)
0x000000008000bae8: 94 07 a6 03 lw	a2, -1728(a5)
0x000000008000baec: 94 47 a6 83 lw	a3, -1724(a5)
0x000000008000baf0: e0 00 07 37 lui	a4, 917504
0x000000008000baf4: 40 d6 56 bb sraw	a3, a2, a3
0x000000008000baf8: 08 e6 80 63 beq	a3, a4, 128
0x000000008000bb78: 00 00 57 37 lui	a4, 5
0x000000008000bb7c: 01 01 06 93 addi	a3, sp, 16
0x000000008000bb80: 19 07 07 13 addi	a4, a4, 400
0x000000008000bb84: 00 d7 07 33 add	a4, a4, a3
0x000000008000bb88: ff ff e7 b7 lui	a5, 1048574
0x000000008000bb8c: 00 f7 07 b3 add	a5, a4, a5
0x000000008000bb90: ff e0 07 13 addi	a4, zero, -2
0x000000008000bb94: 94 e7 a4 23 sw	a4, -1720(a5)
0x000000008000bb98: 94 07 a6 23 sw	zero, -1716(a5)
0x000000008000bb9c: 94 87 a6 03 lw	a2, -1720(a5)
0x000000008000bba0: 94 c7 a6 83 lw	a3, -1716(a5)
0x000000008000bba4: ff e0 07 13 addi	a4, zero, -2
0x000000008000bba8: 40 d6 56 bb sraw	a3, a2, a3
0x000000008000bbac: 06 e6 8e 63 beq	a3, a4, 124
0x000000008000bc28: 00 00 57 37 lui	a4, 5
0x000000008000bc2c: 01 01 06 93 addi	a3, sp, 16
0x000000008000bc30: 19 07 07 13 addi	a4, a4, 400
0x000000008000bc34: 00 d7 07 33 add	a4, a4, a3
0x000000008000bc38: ff ff e7 b7 lui	a5, 1048574
0x000000008000bc3c: 00 f7 07 b3 add	a5, a4, a5
0x000000008000bc40: ff e0 07 13 addi	a4, zero, -2
0x000000008000bc44: 94 e7 a8 23 sw	a4, -1712(a5)
0x000000008000bc48: 00 10 07 13 addi	a4, zero, 1
0x000000008000bc4c: 94 e7 aa 23 sw	a4, -1708(a5)
0x000000008000bc50: 95 07 a6 03 lw	a2, -1712(a5)
0x000000008000bc54: 95 47 a6 83 lw	a3, -1708(a5)
0x000000008000bc58: ff f0 07 13 addi	a4, zero, -1
0x000000008000bc5c: 40 d6 56 bb sraw	a3, a2, a3
0x000000008000bc60: 06 e6 8e 63 beq	a3, a4, 124
0x000000008000bcdc: 00 00 57 37 lui	a4, 5
0x000000008000bce0: 01 01 06 93 addi	a3, sp, 16
0x000000008000bce4: 19 07 07 13 addi	a4, a4, 400
0x000000008000bce8: 00 d7 07 33 add	a4, a4, a3
0x000000008000bcec: ff ff e7 b7 lui	a5, 1048574
0x000000008000bcf0: 00 f7 07 b3 add	a5, a4, a5
0x000000008000bcf4: ff e0 07 13 addi	a4, zero, -2
0x000000008000bcf8: 94 e7 ac 23 sw	a4, -1704(a5)
0x000000008000bcfc: 00 20 07 13 addi	a4, zero, 2
0x000000008000bd00: 94 e7 ae 23 sw	a4, -1700(a5)
0x000000008000bd04: 95 87 a6 03 lw	a2, -1704(a5)
0x000000008000bd08: 95 c7 a6 83 lw	a3, -1700(a5)
0x000000008000bd0c: ff f0 07 13 addi	a4, zero, -1
0x000000008000bd10: 40 d6 56 bb sraw	a3, a2, a3
0x000000008000bd14: 06 e6 8e 63 beq	a3, a4, 124
0x000000008000bd90: 00 00 57 37 lui	a4, 5
0x000000008000bd94: 01 01 06 93 addi	a3, sp, 16
0x000000008000bd98: 19 07 07 13 addi	a4, a4, 400
0x000000008000bd9c: 00 d7 07 33 add	a4, a4, a3
0x000000008000bda0: ff ff e7 b7 lui	a5, 1048574
0x000000008000bda4: 00 f7 07 b3 add	a5, a4, a5
0x000000008000bda8: ff f0 07 13 addi	a4, zero, -1
0x000000008000bdac: 96 e7 a0 23 sw	a4, -1696(a5)
0x000000008000bdb0: 96 07 a2 23 sw	zero, -1692(a5)
0x000000008000bdb4: 96 07 a6 03 lw	a2, -1696(a5)
0x000000008000bdb8: 96 47 a6 83 lw	a3, -1692(a5)
0x000000008000bdbc: ff f0 07 13 addi	a4, zero, -1
0x000000008000bdc0: 40 d6 56 bb sraw	a3, a2, a3
0x000000008000bdc4: 06 e6 8e 63 beq	a3, a4, 124
0x000000008000be40: 00 00 57 37 lui	a4, 5
0x000000008000be44: 01 01 06 93 addi	a3, sp, 16
0x000000008000be48: 19 07 07 13 addi	a4, a4, 400
0x000000008000be4c: 00 d7 07 33 add	a4, a4, a3
0x000000008000be50: ff ff e7 b7 lui	a5, 1048574
0x000000008000be54: 00 f7 07 b3 add	a5, a4, a5
0x000000008000be58: ff f0 07 13 addi	a4, zero, -1
0x000000008000be5c: 96 e7 a4 23 sw	a4, -1688(a5)
0x000000008000be60: 00 10 07 13 addi	a4, zero, 1
0x000000008000be64: 96 e7 a6 23 sw	a4, -1684(a5)
0x000000008000be68: 96 87 a6 03 lw	a2, -1688(a5)
0x000000008000be6c: 96 c7 a6 83 lw	a3, -1684(a5)
0x000000008000be70: ff f0 07 13 addi	a4, zero, -1
0x000000008000be74: 40 d6 56 bb sraw	a3, a2, a3
0x000000008000be78: 06 e6 8e 63 beq	a3, a4, 124
0x000000008000bef4: 00 00 57 37 lui	a4, 5
0x000000008000bef8: 01 01 06 93 addi	a3, sp, 16
0x000000008000befc: 19 07 07 13 addi	a4, a4, 400
0x000000008000bf00: 00 d7 07 33 add	a4, a4, a3
0x000000008000bf04: ff ff e7 b7 lui	a5, 1048574
0x000000008000bf08: 00 f7 07 b3 add	a5, a4, a5
0x000000008000bf0c: ff f0 07 13 addi	a4, zero, -1
0x000000008000bf10: 96 e7 a8 23 sw	a4, -1680(a5)
0x000000008000bf14: 00 20 07 13 addi	a4, zero, 2
0x000000008000bf18: 96 e7 aa 23 sw	a4, -1676(a5)
0x000000008000bf1c: 97 07 a6 03 lw	a2, -1680(a5)
0x000000008000bf20: 97 47 a6 83 lw	a3, -1676(a5)
0x000000008000bf24: ff f0 07 13 addi	a4, zero, -1
0x000000008000bf28: 40 d6 56 bb sraw	a3, a2, a3
0x000000008000bf2c: 06 e6 8e 63 beq	a3, a4, 124
0x000000008000bfa8: 00 00 57 37 lui	a4, 5
0x000000008000bfac: 01 01 06 93 addi	a3, sp, 16
0x000000008000bfb0: 19 07 07 13 addi	a4, a4, 400
0x000000008000bfb4: 00 d7 07 33 add	a4, a4, a3
0x000000008000bfb8: ff ff e7 b7 lui	a5, 1048574
0x000000008000bfbc: 00 f7 07 b3 add	a5, a4, a5
0x000000008000bfc0: 96 07 ac 23 sw	zero, -1672(a5)
0x000000008000bfc4: 96 07 ae 23 sw	zero, -1668(a5)
0x000000008000bfc8: 97 87 a6 83 lw	a3, -1672(a5)
0x000000008000bfcc: 97 c7 a7 03 lw	a4, -1668(a5)
0x000000008000bfd0: 40 e6 d7 3b sraw	a4, a3, a4
0x000000008000bfd4: 06 07 0e 63 beqz	a4, 124
0x000000008000c050: 00 00 57 37 lui	a4, 5
0x000000008000c054: 01 01 06 93 addi	a3, sp, 16
0x000000008000c058: 19 07 07 13 addi	a4, a4, 400
0x000000008000c05c: 00 d7 07 33 add	a4, a4, a3
0x000000008000c060: ff ff e7 b7 lui	a5, 1048574
0x000000008000c064: 00 f7 07 b3 add	a5, a4, a5
0x000000008000c068: 98 07 a0 23 sw	zero, -1664(a5)
0x000000008000c06c: 00 10 07 13 addi	a4, zero, 1
0x000000008000c070: 98 e7 a2 23 sw	a4, -1660(a5)
0x000000008000c074: 98 07 a6 83 lw	a3, -1664(a5)
0x000000008000c078: 98 47 a7 03 lw	a4, -1660(a5)
0x000000008000c07c: 40 e6 d7 3b sraw	a4, a3, a4
0x000000008000c080: 06 07 0e 63 beqz	a4, 124
0x000000008000c0fc: 00 00 57 37 lui	a4, 5
0x000000008000c100: 01 01 06 93 addi	a3, sp, 16
0x000000008000c104: 19 07 07 13 addi	a4, a4, 400
0x000000008000c108: 00 d7 07 33 add	a4, a4, a3
0x000000008000c10c: ff ff e7 b7 lui	a5, 1048574
0x000000008000c110: 00 f7 07 b3 add	a5, a4, a5
0x000000008000c114: 98 07 a4 23 sw	zero, -1656(a5)
0x000000008000c118: 00 20 07 13 addi	a4, zero, 2
0x000000008000c11c: 98 e7 a6 23 sw	a4, -1652(a5)
0x000000008000c120: 98 87 a6 83 lw	a3, -1656(a5)
0x000000008000c124: 98 c7 a7 03 lw	a4, -1652(a5)
0x000000008000c128: 40 e6 d7 3b sraw	a4, a3, a4
0x000000008000c12c: 06 07 0e 63 beqz	a4, 124
0x000000008000c1a8: 00 00 57 37 lui	a4, 5
0x000000008000c1ac: 01 01 06 93 addi	a3, sp, 16
0x000000008000c1b0: 19 07 07 13 addi	a4, a4, 400
0x000000008000c1b4: 00 d7 07 33 add	a4, a4, a3
0x000000008000c1b8: ff ff e7 b7 lui	a5, 1048574
0x000000008000c1bc: 00 f7 07 b3 add	a5, a4, a5
0x000000008000c1c0: 00 10 07 13 addi	a4, zero, 1
0x000000008000c1c4: 98 e7 a8 23 sw	a4, -1648(a5)
0x000000008000c1c8: 98 e7 aa 23 sw	a4, -1644(a5)
0x000000008000c1cc: 99 07 a6 83 lw	a3, -1648(a5)
0x000000008000c1d0: 99 47 a7 03 lw	a4, -1644(a5)
0x000000008000c1d4: 40 e6 d7 3b sraw	a4, a3, a4
0x000000008000c1d8: 06 07 0e 63 beqz	a4, 124
0x000000008000c254: 00 00 57 37 lui	a4, 5
0x000000008000c258: 01 01 06 93 addi	a3, sp, 16
0x000000008000c25c: 19 07 07 13 addi	a4, a4, 400
0x000000008000c260: 00 d7 07 33 add	a4, a4, a3
0x000000008000c264: ff ff e7 b7 lui	a5, 1048574
0x000000008000c268: 00 f7 07 b3 add	a5, a4, a5
0x000000008000c26c: 00 10 07 13 addi	a4, zero, 1
0x000000008000c270: 98 e7 ac 23 sw	a4, -1640(a5)
0x000000008000c274: 00 20 07 13 addi	a4, zero, 2
0x000000008000c278: 98 e7 ae 23 sw	a4, -1636(a5)
0x000000008000c27c: 99 87 a6 83 lw	a3, -1640(a5)
0x000000008000c280: 99 c7 a7 03 lw	a4, -1636(a5)
0x000000008000c284: 40 e6 d7 3b sraw	a4, a3, a4
0x000000008000c288: 06 07 0e 63 beqz	a4, 124
0x000000008000c304: 00 00 57 37 lui	a4, 5
0x000000008000c308: 01 01 06 93 addi	a3, sp, 16
0x000000008000c30c: 19 07 07 13 addi	a4, a4, 400
0x000000008000c310: 00 d7 07 33 add	a4, a4, a3
0x000000008000c314: ff ff e7 b7 lui	a5, 1048574
0x000000008000c318: 00 f7 07 b3 add	a5, a4, a5
0x000000008000c31c: 00 20 07 13 addi	a4, zero, 2
0x000000008000c320: 9a e7 a0 23 sw	a4, -1632(a5)
0x000000008000c324: 9a e7 a2 23 sw	a4, -1628(a5)
0x000000008000c328: 9a 07 a6 83 lw	a3, -1632(a5)
0x000000008000c32c: 9a 47 a7 03 lw	a4, -1628(a5)
0x000000008000c330: 40 e6 d7 3b sraw	a4, a3, a4
0x000000008000c334: 06 07 0e 63 beqz	a4, 124
0x000000008000c3b0: 00 00 57 37 lui	a4, 5
0x000000008000c3b4: 19 07 07 13 addi	a4, a4, 400
0x000000008000c3b8: 01 01 06 93 addi	a3, sp, 16
0x000000008000c3bc: 00 d7 07 33 add	a4, a4, a3
0x000000008000c3c0: ff ff e7 b7 lui	a5, 1048574
0x000000008000c3c4: 00 f7 07 b3 add	a5, a4, a5
0x000000008000c3c8: 80 00 07 37 lui	a4, 524288
0x000000008000c3cc: 9a e7 a4 23 sw	a4, -1624(a5)
0x000000008000c3d0: 9a e7 a6 23 sw	a4, -1620(a5)
0x000000008000c3d4: 9a 87 a7 03 lw	a4, -1624(a5)
0x000000008000c3d8: 00 07 07 1b sext.w	a4, a4
0x000000008000c3dc: 00 07 14 63 bnez	a4, 8
0x000000008000c3e4: 9a c7 a7 83 lw	a5, -1620(a5)
0x000000008000c3e8: 00 07 87 9b sext.w	a5, a5
0x000000008000c3ec: 00 07 94 63 bnez	a5, 8
0x000000008000c3f4: 00 00 57 37 lui	a4, 5
0x000000008000c3f8: 19 07 07 13 addi	a4, a4, 400
0x000000008000c3fc: 01 01 06 93 addi	a3, sp, 16
0x000000008000c400: 00 d7 07 33 add	a4, a4, a3
0x000000008000c404: ff ff e7 b7 lui	a5, 1048574
0x000000008000c408: 00 f7 07 b3 add	a5, a4, a5
0x000000008000c40c: 80 00 07 37 lui	a4, 524288
0x000000008000c410: 9a e7 a8 23 sw	a4, -1616(a5)
0x000000008000c414: 00 17 07 1b addiw	a4, a4, 1
0x000000008000c418: 9a e7 aa 23 sw	a4, -1612(a5)
0x000000008000c41c: 9b 07 a7 03 lw	a4, -1616(a5)
0x000000008000c420: 00 07 07 1b sext.w	a4, a4
0x000000008000c424: 00 07 14 63 bnez	a4, 8
0x000000008000c42c: 9b 47 a7 83 lw	a5, -1612(a5)
0x000000008000c430: 00 07 87 9b sext.w	a5, a5
0x000000008000c434: 00 07 94 63 bnez	a5, 8
0x000000008000c43c: 00 00 57 37 lui	a4, 5
0x000000008000c440: 19 07 07 13 addi	a4, a4, 400
0x000000008000c444: 01 01 06 93 addi	a3, sp, 16
0x000000008000c448: 00 d7 07 33 add	a4, a4, a3
0x000000008000c44c: ff ff e7 b7 lui	a5, 1048574
0x000000008000c450: 00 f7 07 b3 add	a5, a4, a5
0x000000008000c454: 80 00 07 37 lui	a4, 524288
0x000000008000c458: 9a e7 ac 23 sw	a4, -1608(a5)
0x000000008000c45c: ff e0 07 13 addi	a4, zero, -2
0x000000008000c460: 9a e7 ae 23 sw	a4, -1604(a5)
0x000000008000c464: 9b 87 a7 03 lw	a4, -1608(a5)
0x000000008000c468: 00 07 07 1b sext.w	a4, a4
0x000000008000c46c: 00 07 14 63 bnez	a4, 8
0x000000008000c474: 9b c7 a7 83 lw	a5, -1604(a5)
0x000000008000c478: 00 07 87 9b sext.w	a5, a5
0x000000008000c47c: 00 07 94 63 bnez	a5, 8
0x000000008000c484: 00 00 57 37 lui	a4, 5
0x000000008000c488: 19 07 07 13 addi	a4, a4, 400
0x000000008000c48c: 01 01 06 93 addi	a3, sp, 16
0x000000008000c490: 00 d7 07 33 add	a4, a4, a3
0x000000008000c494: ff ff e7 b7 lui	a5, 1048574
0x000000008000c498: 00 f7 07 b3 add	a5, a4, a5
0x000000008000c49c: 80 00 07 37 lui	a4, 524288
0x000000008000c4a0: 9c e7 a0 23 sw	a4, -1600(a5)
0x000000008000c4a4: ff f0 07 13 addi	a4, zero, -1
0x000000008000c4a8: 9c e7 a2 23 sw	a4, -1596(a5)
0x000000008000c4ac: 9c 07 a7 03 lw	a4, -1600(a5)
0x000000008000c4b0: 00 07 07 1b sext.w	a4, a4
0x000000008000c4b4: 00 07 14 63 bnez	a4, 8
0x000000008000c4bc: 9c 47 a7 83 lw	a5, -1596(a5)
0x000000008000c4c0: 00 07 87 9b sext.w	a5, a5
0x000000008000c4c4: 00 07 94 63 bnez	a5, 8
0x000000008000c4cc: 00 00 57 37 lui	a4, 5
0x000000008000c4d0: 19 07 07 13 addi	a4, a4, 400
0x000000008000c4d4: 01 01 06 93 addi	a3, sp, 16
0x000000008000c4d8: 00 d7 07 33 add	a4, a4, a3
0x000000008000c4dc: ff ff e7 b7 lui	a5, 1048574
0x000000008000c4e0: 00 f7 07 b3 add	a5, a4, a5
0x000000008000c4e4: 80 00 07 37 lui	a4, 524288
0x000000008000c4e8: 9c e7 a4 23 sw	a4, -1592(a5)
0x000000008000c4ec: 9c 07 a6 23 sw	zero, -1588(a5)
0x000000008000c4f0: 9c 87 a7 03 lw	a4, -1592(a5)
0x000000008000c4f4: 00 07 07 1b sext.w	a4, a4
0x000000008000c4f8: 00 07 0a 63 beqz	a4, 20
0x000000008000c4fc: 9c c7 a7 03 lw	a4, -1588(a5)
0x000000008000c500: 00 07 07 1b sext.w	a4, a4
0x000000008000c504: 00 07 04 63 beqz	a4, 8
0x000000008000c50c: 00 00 57 37 lui	a4, 5
0x000000008000c510: 19 07 07 13 addi	a4, a4, 400
0x000000008000c514: 01 01 06 93 addi	a3, sp, 16
0x000000008000c518: 00 d7 07 33 add	a4, a4, a3
0x000000008000c51c: ff ff e7 b7 lui	a5, 1048574
0x000000008000c520: 00 f7 07 b3 add	a5, a4, a5
0x000000008000c524: 80 00 07 37 lui	a4, 524288
0x000000008000c528: 9c e7 a8 23 sw	a4, -1584(a5)
0x000000008000c52c: 00 10 07 13 addi	a4, zero, 1
0x000000008000c530: 9c e7 aa 23 sw	a4, -1580(a5)
0x000000008000c534: 9d 07 a7 03 lw	a4, -1584(a5)
0x000000008000c538: 00 07 07 1b sext.w	a4, a4
0x000000008000c53c: 00 07 14 63 bnez	a4, 8
0x000000008000c544: 9d 47 a7 83 lw	a5, -1580(a5)
0x000000008000c548: 00 07 87 9b sext.w	a5, a5
0x000000008000c54c: 00 07 94 63 bnez	a5, 8
0x000000008000c554: 00 00 57 37 lui	a4, 5
0x000000008000c558: 19 07 07 13 addi	a4, a4, 400
0x000000008000c55c: 01 01 06 93 addi	a3, sp, 16
0x000000008000c560: 00 d7 07 33 add	a4, a4, a3
0x000000008000c564: ff ff e7 b7 lui	a5, 1048574
0x000000008000c568: 00 f7 07 b3 add	a5, a4, a5
0x000000008000c56c: 80 00 07 37 lui	a4, 524288
0x000000008000c570: 9c e7 ac 23 sw	a4, -1576(a5)
0x000000008000c574: 00 20 07 13 addi	a4, zero, 2
0x000000008000c578: 9c e7 ae 23 sw	a4, -1572(a5)
0x000000008000c57c: 9d 87 a7 03 lw	a4, -1576(a5)
0x000000008000c580: 00 07 07 1b sext.w	a4, a4
0x000000008000c584: 00 07 14 63 bnez	a4, 8
0x000000008000c58c: 9d c7 a7 83 lw	a5, -1572(a5)
0x000000008000c590: 00 07 87 9b sext.w	a5, a5
0x000000008000c594: 00 07 94 63 bnez	a5, 8
0x000000008000c59c: 00 00 57 37 lui	a4, 5
0x000000008000c5a0: 19 07 07 13 addi	a4, a4, 400
0x000000008000c5a4: 01 01 06 93 addi	a3, sp, 16
0x000000008000c5a8: 00 d7 07 33 add	a4, a4, a3
0x000000008000c5ac: ff ff e7 b7 lui	a5, 1048574
0x000000008000c5b0: 00 f7 07 b3 add	a5, a4, a5
0x000000008000c5b4: 80 00 07 37 lui	a4, 524288
0x000000008000c5b8: 9e e7 a0 23 sw	a4, -1568(a5)
0x000000008000c5bc: ff e7 47 13 xori	a4, a4, -2
0x000000008000c5c0: 9e e7 a2 23 sw	a4, -1564(a5)
0x000000008000c5c4: 9e 07 a7 03 lw	a4, -1568(a5)
0x000000008000c5c8: 00 07 07 1b sext.w	a4, a4
0x000000008000c5cc: 00 07 14 63 bnez	a4, 8
0x000000008000c5d4: 9e 47 a7 83 lw	a5, -1564(a5)
0x000000008000c5d8: 00 07 87 9b sext.w	a5, a5
0x000000008000c5dc: 00 07 94 63 bnez	a5, 8
0x000000008000c5e4: 00 00 57 37 lui	a4, 5
0x000000008000c5e8: 19 07 07 13 addi	a4, a4, 400
0x000000008000c5ec: 01 01 06 93 addi	a3, sp, 16
0x000000008000c5f0: 00 d7 07 33 add	a4, a4, a3
0x000000008000c5f4: ff ff e7 b7 lui	a5, 1048574
0x000000008000c5f8: 00 f7 07 b3 add	a5, a4, a5
0x000000008000c5fc: 80 00 07 37 lui	a4, 524288
0x000000008000c600: 9e e7 a4 23 sw	a4, -1560(a5)
0x000000008000c604: ff f7 47 13 not	a4, a4
0x000000008000c608: 9e e7 a6 23 sw	a4, -1556(a5)
0x000000008000c60c: 9e 87 a7 03 lw	a4, -1560(a5)
0x000000008000c610: 00 07 07 1b sext.w	a4, a4
0x000000008000c614: 00 07 14 63 bnez	a4, 8
0x000000008000c61c: 9e c7 a7 83 lw	a5, -1556(a5)
0x000000008000c620: 00 07 87 9b sext.w	a5, a5
0x000000008000c624: 00 07 94 63 bnez	a5, 8
0x000000008000c62c: 00 00 57 37 lui	a4, 5
0x000000008000c630: 19 07 07 13 addi	a4, a4, 400
0x000000008000c634: 01 01 06 93 addi	a3, sp, 16
0x000000008000c638: 00 d7 07 33 add	a4, a4, a3
0x000000008000c63c: ff ff e7 b7 lui	a5, 1048574
0x000000008000c640: 00 f7 07 b3 add	a5, a4, a5
0x000000008000c644: 80 00 07 37 lui	a4, 524288
0x000000008000c648: 00 17 07 1b addiw	a4, a4, 1
0x000000008000c64c: 9e e7 a8 23 sw	a4, -1552(a5)
0x000000008000c650: 9e e7 aa 23 sw	a4, -1548(a5)
0x000000008000c654: 9f 07 a7 03 lw	a4, -1552(a5)
0x000000008000c658: 00 07 07 1b sext.w	a4, a4
0x000000008000c65c: 00 07 14 63 bnez	a4, 8
0x000000008000c664: 9f 47 a7 83 lw	a5, -1548(a5)
0x000000008000c668: 00 07 87 9b sext.w	a5, a5
0x000000008000c66c: 00 07 94 63 bnez	a5, 8
0x000000008000c674: 00 00 57 37 lui	a4, 5
0x000000008000c678: 19 07 07 13 addi	a4, a4, 400
0x000000008000c67c: 01 01 06 93 addi	a3, sp, 16
0x000000008000c680: 00 d7 07 33 add	a4, a4, a3
0x000000008000c684: ff ff e7 b7 lui	a5, 1048574
0x000000008000c688: 00 f7 07 b3 add	a5, a4, a5
0x000000008000c68c: 80 00 07 37 lui	a4, 524288
0x000000008000c690: 00 17 07 1b addiw	a4, a4, 1
0x000000008000c694: 9e e7 ac 23 sw	a4, -1544(a5)
0x000000008000c698: ff e0 07 13 addi	a4, zero, -2
0x000000008000c69c: 9e e7 ae 23 sw	a4, -1540(a5)
0x000000008000c6a0: 9f 87 a7 03 lw	a4, -1544(a5)
0x000000008000c6a4: 00 07 07 1b sext.w	a4, a4
0x000000008000c6a8: 00 07 14 63 bnez	a4, 8
0x000000008000c6b0: 9f c7 a7 83 lw	a5, -1540(a5)
0x000000008000c6b4: 00 07 87 9b sext.w	a5, a5
0x000000008000c6b8: 00 07 94 63 bnez	a5, 8
0x000000008000c6c0: 00 00 57 37 lui	a4, 5
0x000000008000c6c4: 19 07 07 13 addi	a4, a4, 400
0x000000008000c6c8: 01 01 06 93 addi	a3, sp, 16
0x000000008000c6cc: 00 d7 07 33 add	a4, a4, a3
0x000000008000c6d0: ff ff e7 b7 lui	a5, 1048574
0x000000008000c6d4: 00 f7 07 b3 add	a5, a4, a5
0x000000008000c6d8: 80 00 07 37 lui	a4, 524288
0x000000008000c6dc: 00 17 07 1b addiw	a4, a4, 1
0x000000008000c6e0: a0 e7 a0 23 sw	a4, -1536(a5)
0x000000008000c6e4: ff f0 07 13 addi	a4, zero, -1
0x000000008000c6e8: a0 e7 a2 23 sw	a4, -1532(a5)
0x000000008000c6ec: a0 07 a7 03 lw	a4, -1536(a5)
0x000000008000c6f0: 00 07 07 1b sext.w	a4, a4
0x000000008000c6f4: 00 07 14 63 bnez	a4, 8
0x000000008000c6fc: a0 47 a7 83 lw	a5, -1532(a5)
0x000000008000c700: 00 07 87 9b sext.w	a5, a5
0x000000008000c704: 00 07 94 63 bnez	a5, 8
0x000000008000c70c: 00 00 57 37 lui	a4, 5
0x000000008000c710: 19 07 07 13 addi	a4, a4, 400
0x000000008000c714: 01 01 06 93 addi	a3, sp, 16
0x000000008000c718: 00 d7 07 33 add	a4, a4, a3
0x000000008000c71c: ff ff e7 b7 lui	a5, 1048574
0x000000008000c720: 00 f7 07 b3 add	a5, a4, a5
0x000000008000c724: 80 00 07 37 lui	a4, 524288
0x000000008000c728: 00 17 07 1b addiw	a4, a4, 1
0x000000008000c72c: a0 e7 a4 23 sw	a4, -1528(a5)
0x000000008000c730: a0 07 a6 23 sw	zero, -1524(a5)
0x000000008000c734: a0 87 a7 03 lw	a4, -1528(a5)
0x000000008000c738: 00 07 07 1b sext.w	a4, a4
0x000000008000c73c: 00 07 0a 63 beqz	a4, 20
0x000000008000c740: a0 c7 a7 03 lw	a4, -1524(a5)
0x000000008000c744: 00 07 07 1b sext.w	a4, a4
0x000000008000c748: 00 07 04 63 beqz	a4, 8
0x000000008000c750: 00 00 57 37 lui	a4, 5
0x000000008000c754: 19 07 07 13 addi	a4, a4, 400
0x000000008000c758: 01 01 06 93 addi	a3, sp, 16
0x000000008000c75c: 00 d7 07 33 add	a4, a4, a3
0x000000008000c760: ff ff e7 b7 lui	a5, 1048574
0x000000008000c764: 00 f7 07 b3 add	a5, a4, a5
0x000000008000c768: 80 00 07 37 lui	a4, 524288
0x000000008000c76c: 00 17 07 1b addiw	a4, a4, 1
0x000000008000c770: a0 e7 a8 23 sw	a4, -1520(a5)
0x000000008000c774: 00 10 07 13 addi	a4, zero, 1
0x000000008000c778: a0 e7 aa 23 sw	a4, -1516(a5)
0x000000008000c77c: a1 07 a7 03 lw	a4, -1520(a5)
0x000000008000c780: 00 07 07 1b sext.w	a4, a4
0x000000008000c784: 00 07 14 63 bnez	a4, 8
0x000000008000c78c: a1 47 a7 83 lw	a5, -1516(a5)
0x000000008000c790: 00 07 87 9b sext.w	a5, a5
0x000000008000c794: 00 07 94 63 bnez	a5, 8
0x000000008000c79c: 00 00 57 37 lui	a4, 5
0x000000008000c7a0: 19 07 07 13 addi	a4, a4, 400
0x000000008000c7a4: 01 01 06 93 addi	a3, sp, 16
0x000000008000c7a8: 00 d7 07 33 add	a4, a4, a3
0x000000008000c7ac: ff ff e7 b7 lui	a5, 1048574
0x000000008000c7b0: 00 f7 07 b3 add	a5, a4, a5
0x000000008000c7b4: 80 00 07 37 lui	a4, 524288
0x000000008000c7b8: 00 17 07 1b addiw	a4, a4, 1
0x000000008000c7bc: a0 e7 ac 23 sw	a4, -1512(a5)
0x000000008000c7c0: 00 20 07 13 addi	a4, zero, 2
0x000000008000c7c4: a0 e7 ae 23 sw	a4, -1508(a5)
0x000000008000c7c8: a1 87 a7 03 lw	a4, -1512(a5)
0x000000008000c7cc: 00 07 07 1b sext.w	a4, a4
0x000000008000c7d0: 00 07 14 63 bnez	a4, 8
0x000000008000c7d8: a1 c7 a7 83 lw	a5, -1508(a5)
0x000000008000c7dc: 00 07 87 9b sext.w	a5, a5
0x000000008000c7e0: 00 07 94 63 bnez	a5, 8
0x000000008000c7e8: 00 00 56 b7 lui	a3, 5
0x000000008000c7ec: 19 06 86 93 addi	a3, a3, 400
0x000000008000c7f0: 01 01 06 13 addi	a2, sp, 16
0x000000008000c7f4: 80 00 07 37 lui	a4, 524288
0x000000008000c7f8: 00 c6 86 b3 add	a3, a3, a2
0x000000008000c7fc: ff ff e7 b7 lui	a5, 1048574
0x000000008000c800: 00 f6 87 b3 add	a5, a3, a5
0x000000008000c804: 00 17 06 9b addiw	a3, a4, 1
0x000000008000c808: a2 d7 a0 23 sw	a3, -1504(a5)
0x000000008000c80c: ff e7 47 13 xori	a4, a4, -2
0x000000008000c810: a2 e7 a2 23 sw	a4, -1500(a5)
0x000000008000c814: a2 07 a7 03 lw	a4, -1504(a5)
0x000000008000c818: 00 07 07 1b sext.w	a4, a4
0x000000008000c81c: 00 07 14 63 bnez	a4, 8
0x000000008000c824: a2 47 a7 83 lw	a5, -1500(a5)
0x000000008000c828: 00 07 87 9b sext.w	a5, a5
0x000000008000c82c: 00 07 94 63 bnez	a5, 8
0x000000008000c834: 00 00 56 b7 lui	a3, 5
0x000000008000c838: 19 06 86 93 addi	a3, a3, 400
0x000000008000c83c: 01 01 06 13 addi	a2, sp, 16
0x000000008000c840: 80 00 07 37 lui	a4, 524288
0x000000008000c844: 00 c6 86 b3 add	a3, a3, a2
0x000000008000c848: ff ff e7 b7 lui	a5, 1048574
0x000000008000c84c: 00 f6 87 b3 add	a5, a3, a5
0x000000008000c850: 00 17 06 9b addiw	a3, a4, 1
0x000000008000c854: a2 d7 a4 23 sw	a3, -1496(a5)
0x000000008000c858: ff f7 47 13 not	a4, a4
0x000000008000c85c: a2 e7 a6 23 sw	a4, -1492(a5)
0x000000008000c860: a2 87 a7 03 lw	a4, -1496(a5)
0x000000008000c864: 00 07 07 1b sext.w	a4, a4
0x000000008000c868: 00 07 14 63 bnez	a4, 8
0x000000008000c870: a2 c7 a7 83 lw	a5, -1492(a5)
0x000000008000c874: 00 07 87 9b sext.w	a5, a5
0x000000008000c878: 00 07 94 63 bnez	a5, 8
0x000000008000c880: 00 00 57 37 lui	a4, 5
0x000000008000c884: 19 07 07 13 addi	a4, a4, 400
0x000000008000c888: 01 01 06 93 addi	a3, sp, 16
0x000000008000c88c: 00 d7 07 33 add	a4, a4, a3
0x000000008000c890: ff ff e7 b7 lui	a5, 1048574
0x000000008000c894: 00 f7 07 b3 add	a5, a4, a5
0x000000008000c898: ff e0 07 13 addi	a4, zero, -2
0x000000008000c89c: a2 e7 a8 23 sw	a4, -1488(a5)
0x000000008000c8a0: a2 e7 aa 23 sw	a4, -1484(a5)
0x000000008000c8a4: a3 07 a7 03 lw	a4, -1488(a5)
0x000000008000c8a8: 00 07 07 1b sext.w	a4, a4
0x000000008000c8ac: 00 07 14 63 bnez	a4, 8
0x000000008000c8b4: a3 47 a7 83 lw	a5, -1484(a5)
0x000000008000c8b8: 00 07 87 9b sext.w	a5, a5
0x000000008000c8bc: 00 07 94 63 bnez	a5, 8
0x000000008000c8c4: 00 00 57 37 lui	a4, 5
0x000000008000c8c8: 19 07 07 13 addi	a4, a4, 400
0x000000008000c8cc: 01 01 06 93 addi	a3, sp, 16
0x000000008000c8d0: 00 d7 07 33 add	a4, a4, a3
0x000000008000c8d4: ff ff e7 b7 lui	a5, 1048574
0x000000008000c8d8: 00 f7 07 b3 add	a5, a4, a5
0x000000008000c8dc: ff e0 07 13 addi	a4, zero, -2
0x000000008000c8e0: a2 e7 ac 23 sw	a4, -1480(a5)
0x000000008000c8e4: ff f0 07 13 addi	a4, zero, -1
0x000000008000c8e8: a2 e7 ae 23 sw	a4, -1476(a5)
0x000000008000c8ec: a3 87 a7 03 lw	a4, -1480(a5)
0x000000008000c8f0: 00 07 07 1b sext.w	a4, a4
0x000000008000c8f4: 00 07 14 63 bnez	a4, 8
0x000000008000c8fc: a3 c7 a7 83 lw	a5, -1476(a5)
0x000000008000c900: 00 07 87 9b sext.w	a5, a5
0x000000008000c904: 00 07 94 63 bnez	a5, 8
0x000000008000c90c: 00 00 57 37 lui	a4, 5
0x000000008000c910: 19 07 07 13 addi	a4, a4, 400
0x000000008000c914: 01 01 06 93 addi	a3, sp, 16
0x000000008000c918: 00 d7 07 33 add	a4, a4, a3
0x000000008000c91c: ff ff e7 b7 lui	a5, 1048574
0x000000008000c920: 00 f7 07 b3 add	a5, a4, a5
0x000000008000c924: ff e0 07 13 addi	a4, zero, -2
0x000000008000c928: a4 e7 a0 23 sw	a4, -1472(a5)
0x000000008000c92c: a4 07 a2 23 sw	zero, -1468(a5)
0x000000008000c930: a4 07 a7 03 lw	a4, -1472(a5)
0x000000008000c934: 00 07 07 1b sext.w	a4, a4
0x000000008000c938: 00 07 0a 63 beqz	a4, 20
0x000000008000c93c: a4 47 a7 03 lw	a4, -1468(a5)
0x000000008000c940: 00 07 07 1b sext.w	a4, a4
0x000000008000c944: 00 07 04 63 beqz	a4, 8
0x000000008000c94c: 00 00 57 37 lui	a4, 5
0x000000008000c950: 19 07 07 13 addi	a4, a4, 400
0x000000008000c954: 01 01 06 93 addi	a3, sp, 16
0x000000008000c958: 00 d7 07 33 add	a4, a4, a3
0x000000008000c95c: ff ff e7 b7 lui	a5, 1048574
0x000000008000c960: 00 f7 07 b3 add	a5, a4, a5
0x000000008000c964: ff e0 07 13 addi	a4, zero, -2
0x000000008000c968: a4 e7 a4 23 sw	a4, -1464(a5)
0x000000008000c96c: 00 10 07 13 addi	a4, zero, 1
0x000000008000c970: a4 e7 a6 23 sw	a4, -1460(a5)
0x000000008000c974: a4 87 a7 03 lw	a4, -1464(a5)
0x000000008000c978: 00 07 07 1b sext.w	a4, a4
0x000000008000c97c: 00 07 14 63 bnez	a4, 8
0x000000008000c984: a4 c7 a7 83 lw	a5, -1460(a5)
0x000000008000c988: 00 07 87 9b sext.w	a5, a5
0x000000008000c98c: 00 07 94 63 bnez	a5, 8
0x000000008000c994: 00 00 57 37 lui	a4, 5
0x000000008000c998: 19 07 07 13 addi	a4, a4, 400
0x000000008000c99c: 01 01 06 93 addi	a3, sp, 16
0x000000008000c9a0: 00 d7 07 33 add	a4, a4, a3
0x000000008000c9a4: ff ff e7 b7 lui	a5, 1048574
0x000000008000c9a8: 00 f7 07 b3 add	a5, a4, a5
0x000000008000c9ac: ff e0 07 13 addi	a4, zero, -2
0x000000008000c9b0: a4 e7 a8 23 sw	a4, -1456(a5)
0x000000008000c9b4: 00 20 07 13 addi	a4, zero, 2
0x000000008000c9b8: a4 e7 aa 23 sw	a4, -1452(a5)
0x000000008000c9bc: a5 07 a7 03 lw	a4, -1456(a5)
0x000000008000c9c0: 00 07 07 1b sext.w	a4, a4
0x000000008000c9c4: 00 07 14 63 bnez	a4, 8
0x000000008000c9cc: a5 47 a7 83 lw	a5, -1452(a5)
0x000000008000c9d0: 00 07 87 9b sext.w	a5, a5
0x000000008000c9d4: 00 07 94 63 bnez	a5, 8
0x000000008000c9dc: 00 00 57 37 lui	a4, 5
0x000000008000c9e0: 19 07 07 13 addi	a4, a4, 400
0x000000008000c9e4: 01 01 06 93 addi	a3, sp, 16
0x000000008000c9e8: 00 d7 07 33 add	a4, a4, a3
0x000000008000c9ec: ff ff e7 b7 lui	a5, 1048574
0x000000008000c9f0: 00 f7 07 b3 add	a5, a4, a5
0x000000008000c9f4: ff e0 07 13 addi	a4, zero, -2
0x000000008000c9f8: a4 e7 ac 23 sw	a4, -1448(a5)
0x000000008000c9fc: 80 00 07 37 lui	a4, 524288
0x000000008000ca00: ff e7 47 13 xori	a4, a4, -2
0x000000008000ca04: a4 e7 ae 23 sw	a4, -1444(a5)
0x000000008000ca08: a5 87 a7 03 lw	a4, -1448(a5)
0x000000008000ca0c: 00 07 07 1b sext.w	a4, a4
0x000000008000ca10: 00 07 14 63 bnez	a4, 8
0x000000008000ca18: a5 c7 a7 83 lw	a5, -1444(a5)
0x000000008000ca1c: 00 07 87 9b sext.w	a5, a5
0x000000008000ca20: 00 07 94 63 bnez	a5, 8
0x000000008000ca28: 00 00 57 37 lui	a4, 5
0x000000008000ca2c: 19 07 07 13 addi	a4, a4, 400
0x000000008000ca30: 01 01 06 93 addi	a3, sp, 16
0x000000008000ca34: 00 d7 07 33 add	a4, a4, a3
0x000000008000ca38: ff ff e7 b7 lui	a5, 1048574
0x000000008000ca3c: 00 f7 07 b3 add	a5, a4, a5
0x000000008000ca40: ff e0 07 13 addi	a4, zero, -2
0x000000008000ca44: a6 e7 a0 23 sw	a4, -1440(a5)
0x000000008000ca48: 80 00 07 37 lui	a4, 524288
0x000000008000ca4c: ff f7 47 13 not	a4, a4
0x000000008000ca50: a6 e7 a2 23 sw	a4, -1436(a5)
0x000000008000ca54: a6 07 a7 03 lw	a4, -1440(a5)
0x000000008000ca58: 00 07 07 1b sext.w	a4, a4
0x000000008000ca5c: 00 07 14 63 bnez	a4, 8
0x000000008000ca64: a6 47 a7 83 lw	a5, -1436(a5)
0x000000008000ca68: 00 07 87 9b sext.w	a5, a5
0x000000008000ca6c: 00 07 94 63 bnez	a5, 8
0x000000008000ca74: 00 00 57 37 lui	a4, 5
0x000000008000ca78: 19 07 07 13 addi	a4, a4, 400
0x000000008000ca7c: 01 01 06 93 addi	a3, sp, 16
0x000000008000ca80: 00 d7 07 33 add	a4, a4, a3
0x000000008000ca84: ff ff e7 b7 lui	a5, 1048574
0x000000008000ca88: 00 f7 07 b3 add	a5, a4, a5
0x000000008000ca8c: ff f0 07 13 addi	a4, zero, -1
0x000000008000ca90: a6 e7 a4 23 sw	a4, -1432(a5)
0x000000008000ca94: a6 e7 a6 23 sw	a4, -1428(a5)
0x000000008000ca98: a6 87 a7 03 lw	a4, -1432(a5)
0x000000008000ca9c: 00 07 07 1b sext.w	a4, a4
0x000000008000caa0: 00 07 14 63 bnez	a4, 8
0x000000008000caa8: a6 c7 a7 83 lw	a5, -1428(a5)
0x000000008000caac: 00 07 87 9b sext.w	a5, a5
0x000000008000cab0: 00 07 94 63 bnez	a5, 8
0x000000008000cab8: 00 00 57 37 lui	a4, 5
0x000000008000cabc: 19 07 07 13 addi	a4, a4, 400
0x000000008000cac0: 01 01 06 93 addi	a3, sp, 16
0x000000008000cac4: 00 d7 07 33 add	a4, a4, a3
0x000000008000cac8: ff ff e7 b7 lui	a5, 1048574
0x000000008000cacc: 00 f7 07 b3 add	a5, a4, a5
0x000000008000cad0: ff f0 07 13 addi	a4, zero, -1
0x000000008000cad4: a6 e7 a8 23 sw	a4, -1424(a5)
0x000000008000cad8: a6 07 aa 23 sw	zero, -1420(a5)
0x000000008000cadc: a7 07 a7 03 lw	a4, -1424(a5)
0x000000008000cae0: 00 07 07 1b sext.w	a4, a4
0x000000008000cae4: 00 07 0a 63 beqz	a4, 20
0x000000008000cae8: a7 47 a7 03 lw	a4, -1420(a5)
0x000000008000caec: 00 07 07 1b sext.w	a4, a4
0x000000008000caf0: 00 07 04 63 beqz	a4, 8
0x000000008000caf8: 00 00 57 37 lui	a4, 5
0x000000008000cafc: 19 07 07 13 addi	a4, a4, 400
0x000000008000cb00: 01 01 06 93 addi	a3, sp, 16
0x000000008000cb04: 00 d7 07 33 add	a4, a4, a3
0x000000008000cb08: ff ff e7 b7 lui	a5, 1048574
0x000000008000cb0c: 00 f7 07 b3 add	a5, a4, a5
0x000000008000cb10: ff f0 07 13 addi	a4, zero, -1
0x000000008000cb14: a6 e7 ac 23 sw	a4, -1416(a5)
0x000000008000cb18: 00 10 07 13 addi	a4, zero, 1
0x000000008000cb1c: a6 e7 ae 23 sw	a4, -1412(a5)
0x000000008000cb20: a7 87 a7 03 lw	a4, -1416(a5)
0x000000008000cb24: 00 07 07 1b sext.w	a4, a4
0x000000008000cb28: 00 07 14 63 bnez	a4, 8
0x000000008000cb30: a7 c7 a7 83 lw	a5, -1412(a5)
0x000000008000cb34: 00 07 87 9b sext.w	a5, a5
0x000000008000cb38: 00 07 94 63 bnez	a5, 8
0x000000008000cb40: 00 00 57 37 lui	a4, 5
0x000000008000cb44: 19 07 07 13 addi	a4, a4, 400
0x000000008000cb48: 01 01 06 93 addi	a3, sp, 16
0x000000008000cb4c: 00 d7 07 33 add	a4, a4, a3
0x000000008000cb50: ff ff e7 b7 lui	a5, 1048574
0x000000008000cb54: 00 f7 07 b3 add	a5, a4, a5
0x000000008000cb58: ff f0 07 13 addi	a4, zero, -1
0x000000008000cb5c: a8 e7 a0 23 sw	a4, -1408(a5)
0x000000008000cb60: 00 20 07 13 addi	a4, zero, 2
0x000000008000cb64: a8 e7 a2 23 sw	a4, -1404(a5)
0x000000008000cb68: a8 07 a7 03 lw	a4, -1408(a5)
0x000000008000cb6c: 00 07 07 1b sext.w	a4, a4
0x000000008000cb70: 00 07 14 63 bnez	a4, 8
0x000000008000cb78: a8 47 a7 83 lw	a5, -1404(a5)
0x000000008000cb7c: 00 07 87 9b sext.w	a5, a5
0x000000008000cb80: 00 07 94 63 bnez	a5, 8
0x000000008000cb88: 00 00 57 37 lui	a4, 5
0x000000008000cb8c: 19 07 07 13 addi	a4, a4, 400
0x000000008000cb90: 01 01 06 93 addi	a3, sp, 16
0x000000008000cb94: 00 d7 07 33 add	a4, a4, a3
0x000000008000cb98: ff ff e7 b7 lui	a5, 1048574
0x000000008000cb9c: 00 f7 07 b3 add	a5, a4, a5
0x000000008000cba0: ff f0 07 13 addi	a4, zero, -1
0x000000008000cba4: a8 e7 a4 23 sw	a4, -1400(a5)
0x000000008000cba8: 80 00 07 37 lui	a4, 524288
0x000000008000cbac: ff e7 47 13 xori	a4, a4, -2
0x000000008000cbb0: a8 e7 a6 23 sw	a4, -1396(a5)
0x000000008000cbb4: a8 87 a7 03 lw	a4, -1400(a5)
0x000000008000cbb8: 00 07 07 1b sext.w	a4, a4
0x000000008000cbbc: 00 07 14 63 bnez	a4, 8
0x000000008000cbc4: a8 c7 a7 83 lw	a5, -1396(a5)
0x000000008000cbc8: 00 07 87 9b sext.w	a5, a5
0x000000008000cbcc: 00 07 94 63 bnez	a5, 8
0x000000008000cbd4: 00 00 57 37 lui	a4, 5
0x000000008000cbd8: 19 07 07 13 addi	a4, a4, 400
0x000000008000cbdc: 01 01 06 93 addi	a3, sp, 16
0x000000008000cbe0: 00 d7 07 33 add	a4, a4, a3
0x000000008000cbe4: ff ff e7 b7 lui	a5, 1048574
0x000000008000cbe8: 00 f7 07 b3 add	a5, a4, a5
0x000000008000cbec: ff f0 07 13 addi	a4, zero, -1
0x000000008000cbf0: a8 e7 a8 23 sw	a4, -1392(a5)
0x000000008000cbf4: 80 00 07 37 lui	a4, 524288
0x000000008000cbf8: ff f7 47 13 not	a4, a4
0x000000008000cbfc: a8 e7 aa 23 sw	a4, -1388(a5)
0x000000008000cc00: a9 07 a7 03 lw	a4, -1392(a5)
0x000000008000cc04: 00 07 07 1b sext.w	a4, a4
0x000000008000cc08: 00 07 14 63 bnez	a4, 8
0x000000008000cc10: a9 47 a7 83 lw	a5, -1388(a5)
0x000000008000cc14: 00 07 87 9b sext.w	a5, a5
0x000000008000cc18: 00 07 94 63 bnez	a5, 8
0x000000008000cc20: 00 00 57 37 lui	a4, 5
0x000000008000cc24: 19 07 07 13 addi	a4, a4, 400
0x000000008000cc28: 01 01 06 93 addi	a3, sp, 16
0x000000008000cc2c: 00 d7 07 33 add	a4, a4, a3
0x000000008000cc30: ff ff e7 b7 lui	a5, 1048574
0x000000008000cc34: 00 f7 07 b3 add	a5, a4, a5
0x000000008000cc38: a8 07 ac 23 sw	zero, -1384(a5)
0x000000008000cc3c: a8 07 ae 23 sw	zero, -1380(a5)
0x000000008000cc40: a9 87 a7 03 lw	a4, -1384(a5)
0x000000008000cc44: 00 07 07 1b sext.w	a4, a4
0x000000008000cc48: 00 07 0a 63 beqz	a4, 20
0x000000008000cc5c: 00 00 57 37 lui	a4, 5
0x000000008000cc60: 19 07 07 13 addi	a4, a4, 400
0x000000008000cc64: 01 01 06 93 addi	a3, sp, 16
0x000000008000cc68: 00 d7 07 33 add	a4, a4, a3
0x000000008000cc6c: ff ff e7 b7 lui	a5, 1048574
0x000000008000cc70: 00 f7 07 b3 add	a5, a4, a5
0x000000008000cc74: aa 07 a0 23 sw	zero, -1376(a5)
0x000000008000cc78: 00 10 07 13 addi	a4, zero, 1
0x000000008000cc7c: aa e7 a2 23 sw	a4, -1372(a5)
0x000000008000cc80: aa 07 a7 03 lw	a4, -1376(a5)
0x000000008000cc84: 00 07 07 1b sext.w	a4, a4
0x000000008000cc88: 00 07 0a 63 beqz	a4, 20
0x000000008000cc9c: 00 00 57 37 lui	a4, 5
0x000000008000cca0: 19 07 07 13 addi	a4, a4, 400
0x000000008000cca4: 01 01 06 93 addi	a3, sp, 16
0x000000008000cca8: 00 d7 07 33 add	a4, a4, a3
0x000000008000ccac: ff ff e7 b7 lui	a5, 1048574
0x000000008000ccb0: 00 f7 07 b3 add	a5, a4, a5
0x000000008000ccb4: aa 07 a4 23 sw	zero, -1368(a5)
0x000000008000ccb8: 00 20 07 13 addi	a4, zero, 2
0x000000008000ccbc: aa e7 a6 23 sw	a4, -1364(a5)
0x000000008000ccc0: aa 87 a7 03 lw	a4, -1368(a5)
0x000000008000ccc4: 00 07 07 1b sext.w	a4, a4
0x000000008000ccc8: 00 07 0a 63 beqz	a4, 20
0x000000008000ccdc: 00 00 57 37 lui	a4, 5
0x000000008000cce0: 19 07 07 13 addi	a4, a4, 400
0x000000008000cce4: 01 01 06 93 addi	a3, sp, 16
0x000000008000cce8: 00 d7 07 33 add	a4, a4, a3
0x000000008000ccec: ff ff e7 b7 lui	a5, 1048574
0x000000008000ccf0: 00 f7 07 b3 add	a5, a4, a5
0x000000008000ccf4: 80 00 07 37 lui	a4, 524288
0x000000008000ccf8: aa 07 a8 23 sw	zero, -1360(a5)
0x000000008000ccfc: ff e7 47 13 xori	a4, a4, -2
0x000000008000cd00: aa e7 aa 23 sw	a4, -1356(a5)
0x000000008000cd04: ab 07 a7 03 lw	a4, -1360(a5)
0x000000008000cd08: 00 07 07 1b sext.w	a4, a4
0x000000008000cd0c: 00 07 0a 63 beqz	a4, 20
0x000000008000cd20: 00 00 57 37 lui	a4, 5
0x000000008000cd24: 19 07 07 13 addi	a4, a4, 400
0x000000008000cd28: 01 01 06 93 addi	a3, sp, 16
0x000000008000cd2c: 00 d7 07 33 add	a4, a4, a3
0x000000008000cd30: ff ff e7 b7 lui	a5, 1048574
0x000000008000cd34: 00 f7 07 b3 add	a5, a4, a5
0x000000008000cd38: 80 00 07 37 lui	a4, 524288
0x000000008000cd3c: aa 07 ac 23 sw	zero, -1352(a5)
0x000000008000cd40: ff f7 47 13 not	a4, a4
0x000000008000cd44: aa e7 ae 23 sw	a4, -1348(a5)
0x000000008000cd48: ab 87 a7 03 lw	a4, -1352(a5)
0x000000008000cd4c: 00 07 07 1b sext.w	a4, a4
0x000000008000cd50: 00 07 0a 63 beqz	a4, 20
0x000000008000cd64: 00 00 57 37 lui	a4, 5
0x000000008000cd68: 19 07 07 13 addi	a4, a4, 400
0x000000008000cd6c: 01 01 06 93 addi	a3, sp, 16
0x000000008000cd70: 00 d7 07 33 add	a4, a4, a3
0x000000008000cd74: ff ff e7 b7 lui	a5, 1048574
0x000000008000cd78: 00 f7 07 b3 add	a5, a4, a5
0x000000008000cd7c: 00 10 07 13 addi	a4, zero, 1
0x000000008000cd80: ac e7 a0 23 sw	a4, -1344(a5)
0x000000008000cd84: ac e7 a2 23 sw	a4, -1340(a5)
0x000000008000cd88: ac 07 a7 03 lw	a4, -1344(a5)
0x000000008000cd8c: 00 07 07 1b sext.w	a4, a4
0x000000008000cd90: 00 07 14 63 bnez	a4, 8
0x000000008000cd98: ac 47 a7 83 lw	a5, -1340(a5)
0x000000008000cd9c: 00 07 87 9b sext.w	a5, a5
0x000000008000cda0: 00 07 94 63 bnez	a5, 8
0x000000008000cda8: 00 00 57 37 lui	a4, 5
0x000000008000cdac: 19 07 07 13 addi	a4, a4, 400
0x000000008000cdb0: 01 01 06 93 addi	a3, sp, 16
0x000000008000cdb4: 00 d7 07 33 add	a4, a4, a3
0x000000008000cdb8: ff ff e7 b7 lui	a5, 1048574
0x000000008000cdbc: 00 f7 07 b3 add	a5, a4, a5
0x000000008000cdc0: 00 10 07 13 addi	a4, zero, 1
0x000000008000cdc4: ac e7 a4 23 sw	a4, -1336(a5)
0x000000008000cdc8: 00 20 07 13 addi	a4, zero, 2
0x000000008000cdcc: ac e7 a6 23 sw	a4, -1332(a5)
0x000000008000cdd0: ac 87 a7 03 lw	a4, -1336(a5)
0x000000008000cdd4: 00 07 07 1b sext.w	a4, a4
0x000000008000cdd8: 00 07 14 63 bnez	a4, 8
0x000000008000cde0: ac c7 a7 83 lw	a5, -1332(a5)
0x000000008000cde4: 00 07 87 9b sext.w	a5, a5
0x000000008000cde8: 00 07 94 63 bnez	a5, 8
0x000000008000cdf0: 00 00 57 37 lui	a4, 5
0x000000008000cdf4: 19 07 07 13 addi	a4, a4, 400
0x000000008000cdf8: 01 01 06 93 addi	a3, sp, 16
0x000000008000cdfc: 00 d7 07 33 add	a4, a4, a3
0x000000008000ce00: ff ff e7 b7 lui	a5, 1048574
0x000000008000ce04: 00 f7 07 b3 add	a5, a4, a5
0x000000008000ce08: 00 10 07 13 addi	a4, zero, 1
0x000000008000ce0c: ac e7 a8 23 sw	a4, -1328(a5)
0x000000008000ce10: 80 00 07 37 lui	a4, 524288
0x000000008000ce14: ff e7 47 13 xori	a4, a4, -2
0x000000008000ce18: ac e7 aa 23 sw	a4, -1324(a5)
0x000000008000ce1c: ad 07 a7 03 lw	a4, -1328(a5)
0x000000008000ce20: 00 07 07 1b sext.w	a4, a4
0x000000008000ce24: 00 07 14 63 bnez	a4, 8
0x000000008000ce2c: ad 47 a7 83 lw	a5, -1324(a5)
0x000000008000ce30: 00 07 87 9b sext.w	a5, a5
0x000000008000ce34: 00 07 94 63 bnez	a5, 8
0x000000008000ce3c: 00 00 57 37 lui	a4, 5
0x000000008000ce40: 19 07 07 13 addi	a4, a4, 400
0x000000008000ce44: 01 01 06 93 addi	a3, sp, 16
0x000000008000ce48: 00 d7 07 33 add	a4, a4, a3
0x000000008000ce4c: ff ff e7 b7 lui	a5, 1048574
0x000000008000ce50: 00 f7 07 b3 add	a5, a4, a5
0x000000008000ce54: 00 10 07 13 addi	a4, zero, 1
0x000000008000ce58: ac e7 ac 23 sw	a4, -1320(a5)
0x000000008000ce5c: 80 00 07 37 lui	a4, 524288
0x000000008000ce60: ff f7 47 13 not	a4, a4
0x000000008000ce64: ac e7 ae 23 sw	a4, -1316(a5)
0x000000008000ce68: ad 87 a7 03 lw	a4, -1320(a5)
0x000000008000ce6c: 00 07 07 1b sext.w	a4, a4
0x000000008000ce70: 00 07 14 63 bnez	a4, 8
0x000000008000ce78: ad c7 a7 83 lw	a5, -1316(a5)
0x000000008000ce7c: 00 07 87 9b sext.w	a5, a5
0x000000008000ce80: 00 07 94 63 bnez	a5, 8
0x000000008000ce88: 00 00 57 37 lui	a4, 5
0x000000008000ce8c: 19 07 07 13 addi	a4, a4, 400
0x000000008000ce90: 01 01 06 93 addi	a3, sp, 16
0x000000008000ce94: 00 d7 07 33 add	a4, a4, a3
0x000000008000ce98: ff ff e7 b7 lui	a5, 1048574
0x000000008000ce9c: 00 f7 07 b3 add	a5, a4, a5
0x000000008000cea0: 00 20 07 13 addi	a4, zero, 2
0x000000008000cea4: ae e7 a0 23 sw	a4, -1312(a5)
0x000000008000cea8: ae e7 a2 23 sw	a4, -1308(a5)
0x000000008000ceac: ae 07 a7 03 lw	a4, -1312(a5)
0x000000008000ceb0: 00 07 07 1b sext.w	a4, a4
0x000000008000ceb4: 00 07 14 63 bnez	a4, 8
0x000000008000cebc: ae 47 a7 83 lw	a5, -1308(a5)
0x000000008000cec0: 00 07 87 9b sext.w	a5, a5
0x000000008000cec4: 00 07 94 63 bnez	a5, 8
0x000000008000cecc: 00 00 57 37 lui	a4, 5
0x000000008000ced0: 19 07 07 13 addi	a4, a4, 400
0x000000008000ced4: 01 01 06 93 addi	a3, sp, 16
0x000000008000ced8: 00 d7 07 33 add	a4, a4, a3
0x000000008000cedc: ff ff e7 b7 lui	a5, 1048574
0x000000008000cee0: 00 f7 07 b3 add	a5, a4, a5
0x000000008000cee4: 00 20 07 13 addi	a4, zero, 2
0x000000008000cee8: ae e7 a4 23 sw	a4, -1304(a5)
0x000000008000ceec: 80 00 07 37 lui	a4, 524288
0x000000008000cef0: ff e7 47 13 xori	a4, a4, -2
0x000000008000cef4: ae e7 a6 23 sw	a4, -1300(a5)
0x000000008000cef8: ae 87 a7 03 lw	a4, -1304(a5)
0x000000008000cefc: 00 07 07 1b sext.w	a4, a4
0x000000008000cf00: 00 07 14 63 bnez	a4, 8
0x000000008000cf08: ae c7 a7 83 lw	a5, -1300(a5)
0x000000008000cf0c: 00 07 87 9b sext.w	a5, a5
0x000000008000cf10: 00 07 94 63 bnez	a5, 8
0x000000008000cf18: 00 00 57 37 lui	a4, 5
0x000000008000cf1c: 19 07 07 13 addi	a4, a4, 400
0x000000008000cf20: 01 01 06 93 addi	a3, sp, 16
0x000000008000cf24: 00 d7 07 33 add	a4, a4, a3
0x000000008000cf28: ff ff e7 b7 lui	a5, 1048574
0x000000008000cf2c: 00 f7 07 b3 add	a5, a4, a5
0x000000008000cf30: 00 20 07 13 addi	a4, zero, 2
0x000000008000cf34: ae e7 a8 23 sw	a4, -1296(a5)
0x000000008000cf38: 80 00 07 37 lui	a4, 524288
0x000000008000cf3c: ff f7 47 13 not	a4, a4
0x000000008000cf40: ae e7 aa 23 sw	a4, -1292(a5)
0x000000008000cf44: af 07 a7 03 lw	a4, -1296(a5)
0x000000008000cf48: 00 07 07 1b sext.w	a4, a4
0x000000008000cf4c: 00 07 14 63 bnez	a4, 8
0x000000008000cf54: af 47 a7 83 lw	a5, -1292(a5)
0x000000008000cf58: 00 07 87 9b sext.w	a5, a5
0x000000008000cf5c: 00 07 94 63 bnez	a5, 8
0x000000008000cf64: 00 00 57 37 lui	a4, 5
0x000000008000cf68: 19 07 07 13 addi	a4, a4, 400
0x000000008000cf6c: 01 01 06 93 addi	a3, sp, 16
0x000000008000cf70: 00 d7 07 33 add	a4, a4, a3
0x000000008000cf74: ff ff e7 b7 lui	a5, 1048574
0x000000008000cf78: 00 f7 07 b3 add	a5, a4, a5
0x000000008000cf7c: 80 00 07 37 lui	a4, 524288
0x000000008000cf80: ff e7 47 13 xori	a4, a4, -2
0x000000008000cf84: ae e7 ac 23 sw	a4, -1288(a5)
0x000000008000cf88: ae e7 ae 23 sw	a4, -1284(a5)
0x000000008000cf8c: af 87 a7 03 lw	a4, -1288(a5)
0x000000008000cf90: 00 07 07 1b sext.w	a4, a4
0x000000008000cf94: 00 07 14 63 bnez	a4, 8
0x000000008000cf9c: af c7 a7 83 lw	a5, -1284(a5)
0x000000008000cfa0: 00 07 87 9b sext.w	a5, a5
0x000000008000cfa4: 00 07 94 63 bnez	a5, 8
0x000000008000cfac: 00 00 56 b7 lui	a3, 5
0x000000008000cfb0: 19 06 86 93 addi	a3, a3, 400
0x000000008000cfb4: 01 01 06 13 addi	a2, sp, 16
0x000000008000cfb8: 80 00 07 37 lui	a4, 524288
0x000000008000cfbc: 00 c6 86 b3 add	a3, a3, a2
0x000000008000cfc0: ff ff e7 b7 lui	a5, 1048574
0x000000008000cfc4: 00 f6 87 b3 add	a5, a3, a5
0x000000008000cfc8: ff e7 46 93 xori	a3, a4, -2
0x000000008000cfcc: b0 d7 a0 23 sw	a3, -1280(a5)
0x000000008000cfd0: ff f7 47 13 not	a4, a4
0x000000008000cfd4: b0 e7 a2 23 sw	a4, -1276(a5)
0x000000008000cfd8: b0 07 a7 03 lw	a4, -1280(a5)
0x000000008000cfdc: 00 07 07 1b sext.w	a4, a4
0x000000008000cfe0: 00 07 14 63 bnez	a4, 8
0x000000008000cfe8: b0 47 a7 83 lw	a5, -1276(a5)
0x000000008000cfec: 00 07 87 9b sext.w	a5, a5
0x000000008000cff0: 00 07 94 63 bnez	a5, 8
0x000000008000cff8: 00 00 57 37 lui	a4, 5
0x000000008000cffc: 19 07 07 13 addi	a4, a4, 400
0x000000008000d000: 01 01 06 93 addi	a3, sp, 16
0x000000008000d004: 00 d7 07 33 add	a4, a4, a3
0x000000008000d008: ff ff e7 b7 lui	a5, 1048574
0x000000008000d00c: 00 f7 07 b3 add	a5, a4, a5
0x000000008000d010: 80 00 07 37 lui	a4, 524288
0x000000008000d014: ff f7 47 13 not	a4, a4
0x000000008000d018: b0 e7 a4 23 sw	a4, -1272(a5)
0x000000008000d01c: b0 e7 a6 23 sw	a4, -1268(a5)
0x000000008000d020: b0 87 a7 03 lw	a4, -1272(a5)
0x000000008000d024: 00 07 07 1b sext.w	a4, a4
0x000000008000d028: 00 07 14 63 bnez	a4, 8
0x000000008000d030: b0 c7 a7 83 lw	a5, -1268(a5)
0x000000008000d034: 00 07 87 9b sext.w	a5, a5
0x000000008000d038: 00 07 94 63 bnez	a5, 8
0x000000008000d040: 00 00 57 37 lui	a4, 5
0x000000008000d044: 19 07 07 13 addi	a4, a4, 400
0x000000008000d048: 01 01 06 93 addi	a3, sp, 16
0x000000008000d04c: 00 d7 07 33 add	a4, a4, a3
0x000000008000d050: ff ff e7 b7 lui	a5, 1048574
0x000000008000d054: 00 f7 07 b3 add	a5, a4, a5
0x000000008000d058: 80 00 07 37 lui	a4, 524288
0x000000008000d05c: b0 e7 a8 23 sw	a4, -1264(a5)
0x000000008000d060: b0 e7 aa 23 sw	a4, -1260(a5)
0x000000008000d064: b1 07 a7 03 lw	a4, -1264(a5)
0x000000008000d068: 00 07 07 1b sext.w	a4, a4
0x000000008000d06c: 00 07 1a 63 bnez	a4, 20
0x000000008000d080: 00 00 57 37 lui	a4, 5
0x000000008000d084: 19 07 07 13 addi	a4, a4, 400
0x000000008000d088: 01 01 06 93 addi	a3, sp, 16
0x000000008000d08c: 00 d7 07 33 add	a4, a4, a3
0x000000008000d090: ff ff e7 b7 lui	a5, 1048574
0x000000008000d094: 00 f7 07 b3 add	a5, a4, a5
0x000000008000d098: 80 00 07 37 lui	a4, 524288
0x000000008000d09c: b0 e7 ac 23 sw	a4, -1256(a5)
0x000000008000d0a0: 00 17 07 1b addiw	a4, a4, 1
0x000000008000d0a4: b0 e7 ae 23 sw	a4, -1252(a5)
0x000000008000d0a8: b1 87 a7 03 lw	a4, -1256(a5)
0x000000008000d0ac: 00 07 07 1b sext.w	a4, a4
0x000000008000d0b0: 00 07 1a 63 bnez	a4, 20
0x000000008000d0c4: 00 00 57 37 lui	a4, 5
0x000000008000d0c8: 19 07 07 13 addi	a4, a4, 400
0x000000008000d0cc: 01 01 06 93 addi	a3, sp, 16
0x000000008000d0d0: 00 d7 07 33 add	a4, a4, a3
0x000000008000d0d4: ff ff e7 b7 lui	a5, 1048574
0x000000008000d0d8: 00 f7 07 b3 add	a5, a4, a5
0x000000008000d0dc: 80 00 07 37 lui	a4, 524288
0x000000008000d0e0: b2 e7 a0 23 sw	a4, -1248(a5)
0x000000008000d0e4: ff e0 07 13 addi	a4, zero, -2
0x000000008000d0e8: b2 e7 a2 23 sw	a4, -1244(a5)
0x000000008000d0ec: b2 07 a7 03 lw	a4, -1248(a5)
0x000000008000d0f0: 00 07 07 1b sext.w	a4, a4
0x000000008000d0f4: 00 07 1a 63 bnez	a4, 20
0x000000008000d108: 00 00 57 37 lui	a4, 5
0x000000008000d10c: 19 07 07 13 addi	a4, a4, 400
0x000000008000d110: 01 01 06 93 addi	a3, sp, 16
0x000000008000d114: 00 d7 07 33 add	a4, a4, a3
0x000000008000d118: ff ff e7 b7 lui	a5, 1048574
0x000000008000d11c: 00 f7 07 b3 add	a5, a4, a5
0x000000008000d120: 80 00 07 37 lui	a4, 524288
0x000000008000d124: b2 e7 a4 23 sw	a4, -1240(a5)
0x000000008000d128: ff f0 07 13 addi	a4, zero, -1
0x000000008000d12c: b2 e7 a6 23 sw	a4, -1236(a5)
0x000000008000d130: b2 87 a7 03 lw	a4, -1240(a5)
0x000000008000d134: 00 07 07 1b sext.w	a4, a4
0x000000008000d138: 00 07 1a 63 bnez	a4, 20
0x000000008000d14c: 00 00 57 37 lui	a4, 5
0x000000008000d150: 19 07 07 13 addi	a4, a4, 400
0x000000008000d154: 01 01 06 93 addi	a3, sp, 16
0x000000008000d158: 00 d7 07 33 add	a4, a4, a3
0x000000008000d15c: ff ff e7 b7 lui	a5, 1048574
0x000000008000d160: 00 f7 07 b3 add	a5, a4, a5
0x000000008000d164: 80 00 07 37 lui	a4, 524288
0x000000008000d168: b2 e7 a8 23 sw	a4, -1232(a5)
0x000000008000d16c: b2 07 aa 23 sw	zero, -1228(a5)
0x000000008000d170: b3 07 a7 03 lw	a4, -1232(a5)
0x000000008000d174: 00 07 07 1b sext.w	a4, a4
0x000000008000d178: 00 07 1a 63 bnez	a4, 20
0x000000008000d18c: 00 00 57 37 lui	a4, 5
0x000000008000d190: 19 07 07 13 addi	a4, a4, 400
0x000000008000d194: 01 01 06 93 addi	a3, sp, 16
0x000000008000d198: 00 d7 07 33 add	a4, a4, a3
0x000000008000d19c: ff ff e7 b7 lui	a5, 1048574
0x000000008000d1a0: 00 f7 07 b3 add	a5, a4, a5
0x000000008000d1a4: 80 00 07 37 lui	a4, 524288
0x000000008000d1a8: b2 e7 ac 23 sw	a4, -1224(a5)
0x000000008000d1ac: 00 10 07 13 addi	a4, zero, 1
0x000000008000d1b0: b2 e7 ae 23 sw	a4, -1220(a5)
0x000000008000d1b4: b3 87 a7 03 lw	a4, -1224(a5)
0x000000008000d1b8: 00 07 07 1b sext.w	a4, a4
0x000000008000d1bc: 00 07 1a 63 bnez	a4, 20
0x000000008000d1d0: 00 00 57 37 lui	a4, 5
0x000000008000d1d4: 19 07 07 13 addi	a4, a4, 400
0x000000008000d1d8: 01 01 06 93 addi	a3, sp, 16
0x000000008000d1dc: 00 d7 07 33 add	a4, a4, a3
0x000000008000d1e0: ff ff e7 b7 lui	a5, 1048574
0x000000008000d1e4: 00 f7 07 b3 add	a5, a4, a5
0x000000008000d1e8: 80 00 07 37 lui	a4, 524288
0x000000008000d1ec: b4 e7 a0 23 sw	a4, -1216(a5)
0x000000008000d1f0: 00 20 07 13 addi	a4, zero, 2
0x000000008000d1f4: b4 e7 a2 23 sw	a4, -1212(a5)
0x000000008000d1f8: b4 07 a7 03 lw	a4, -1216(a5)
0x000000008000d1fc: 00 07 07 1b sext.w	a4, a4
0x000000008000d200: 00 07 1a 63 bnez	a4, 20
0x000000008000d214: 00 00 57 37 lui	a4, 5
0x000000008000d218: 19 07 07 13 addi	a4, a4, 400
0x000000008000d21c: 01 01 06 93 addi	a3, sp, 16
0x000000008000d220: 00 d7 07 33 add	a4, a4, a3
0x000000008000d224: ff ff e7 b7 lui	a5, 1048574
0x000000008000d228: 00 f7 07 b3 add	a5, a4, a5
0x000000008000d22c: 80 00 07 37 lui	a4, 524288
0x000000008000d230: b4 e7 a4 23 sw	a4, -1208(a5)
0x000000008000d234: ff e7 47 13 xori	a4, a4, -2
0x000000008000d238: b4 e7 a6 23 sw	a4, -1204(a5)
0x000000008000d23c: b4 87 a7 03 lw	a4, -1208(a5)
0x000000008000d240: 00 07 07 1b sext.w	a4, a4
0x000000008000d244: 00 07 1a 63 bnez	a4, 20
0x000000008000d258: 00 00 57 37 lui	a4, 5
0x000000008000d25c: 19 07 07 13 addi	a4, a4, 400
0x000000008000d260: 01 01 06 93 addi	a3, sp, 16
0x000000008000d264: 00 d7 07 33 add	a4, a4, a3
0x000000008000d268: ff ff e7 b7 lui	a5, 1048574
0x000000008000d26c: 00 f7 07 b3 add	a5, a4, a5
0x000000008000d270: 80 00 07 37 lui	a4, 524288
0x000000008000d274: b4 e7 a8 23 sw	a4, -1200(a5)
0x000000008000d278: ff f7 47 13 not	a4, a4
0x000000008000d27c: b4 e7 aa 23 sw	a4, -1196(a5)
0x000000008000d280: b5 07 a7 03 lw	a4, -1200(a5)
0x000000008000d284: 00 07 07 1b sext.w	a4, a4
0x000000008000d288: 00 07 1a 63 bnez	a4, 20
0x000000008000d29c: 00 00 57 37 lui	a4, 5
0x000000008000d2a0: 19 07 07 13 addi	a4, a4, 400
0x000000008000d2a4: 01 01 06 93 addi	a3, sp, 16
0x000000008000d2a8: 00 d7 07 33 add	a4, a4, a3
0x000000008000d2ac: ff ff e7 b7 lui	a5, 1048574
0x000000008000d2b0: 00 f7 07 b3 add	a5, a4, a5
0x000000008000d2b4: 80 00 07 37 lui	a4, 524288
0x000000008000d2b8: 00 17 07 1b addiw	a4, a4, 1
0x000000008000d2bc: b4 e7 ac 23 sw	a4, -1192(a5)
0x000000008000d2c0: b4 e7 ae 23 sw	a4, -1188(a5)
0x000000008000d2c4: b5 87 a7 03 lw	a4, -1192(a5)
0x000000008000d2c8: 00 07 07 1b sext.w	a4, a4
0x000000008000d2cc: 00 07 1a 63 bnez	a4, 20
0x000000008000d2e0: 00 00 57 37 lui	a4, 5
0x000000008000d2e4: 19 07 07 13 addi	a4, a4, 400
0x000000008000d2e8: 01 01 06 93 addi	a3, sp, 16
0x000000008000d2ec: 00 d7 07 33 add	a4, a4, a3
0x000000008000d2f0: ff ff e7 b7 lui	a5, 1048574
0x000000008000d2f4: 00 f7 07 b3 add	a5, a4, a5
0x000000008000d2f8: 80 00 07 37 lui	a4, 524288
0x000000008000d2fc: 00 17 07 1b addiw	a4, a4, 1
0x000000008000d300: b6 e7 a0 23 sw	a4, -1184(a5)
0x000000008000d304: ff e0 07 13 addi	a4, zero, -2
0x000000008000d308: b6 e7 a2 23 sw	a4, -1180(a5)
0x000000008000d30c: b6 07 a7 03 lw	a4, -1184(a5)
0x000000008000d310: 00 07 07 1b sext.w	a4, a4
0x000000008000d314: 00 07 1a 63 bnez	a4, 20
0x000000008000d328: 00 00 57 37 lui	a4, 5
0x000000008000d32c: 19 07 07 13 addi	a4, a4, 400
0x000000008000d330: 01 01 06 93 addi	a3, sp, 16
0x000000008000d334: 00 d7 07 33 add	a4, a4, a3
0x000000008000d338: ff ff e7 b7 lui	a5, 1048574
0x000000008000d33c: 00 f7 07 b3 add	a5, a4, a5
0x000000008000d340: 80 00 07 37 lui	a4, 524288
0x000000008000d344: 00 17 07 1b addiw	a4, a4, 1
0x000000008000d348: b6 e7 a4 23 sw	a4, -1176(a5)
0x000000008000d34c: ff f0 07 13 addi	a4, zero, -1
0x000000008000d350: b6 e7 a6 23 sw	a4, -1172(a5)
0x000000008000d354: b6 87 a7 03 lw	a4, -1176(a5)
0x000000008000d358: 00 07 07 1b sext.w	a4, a4
0x000000008000d35c: 00 07 1a 63 bnez	a4, 20
0x000000008000d370: 00 00 57 37 lui	a4, 5
0x000000008000d374: 19 07 07 13 addi	a4, a4, 400
0x000000008000d378: 01 01 06 93 addi	a3, sp, 16
0x000000008000d37c: 00 d7 07 33 add	a4, a4, a3
0x000000008000d380: ff ff e7 b7 lui	a5, 1048574
0x000000008000d384: 00 f7 07 b3 add	a5, a4, a5
0x000000008000d388: 80 00 07 37 lui	a4, 524288
0x000000008000d38c: 00 17 07 1b addiw	a4, a4, 1
0x000000008000d390: b6 e7 a8 23 sw	a4, -1168(a5)
0x000000008000d394: b6 07 aa 23 sw	zero, -1164(a5)
0x000000008000d398: b7 07 a7 03 lw	a4, -1168(a5)
0x000000008000d39c: 00 07 07 1b sext.w	a4, a4
0x000000008000d3a0: 00 07 1a 63 bnez	a4, 20
0x000000008000d3b4: 00 00 57 37 lui	a4, 5
0x000000008000d3b8: 19 07 07 13 addi	a4, a4, 400
0x000000008000d3bc: 01 01 06 93 addi	a3, sp, 16
0x000000008000d3c0: 00 d7 07 33 add	a4, a4, a3
0x000000008000d3c4: ff ff e7 b7 lui	a5, 1048574
0x000000008000d3c8: 00 f7 07 b3 add	a5, a4, a5
0x000000008000d3cc: 80 00 07 37 lui	a4, 524288
0x000000008000d3d0: 00 17 07 1b addiw	a4, a4, 1
0x000000008000d3d4: b6 e7 ac 23 sw	a4, -1160(a5)
0x000000008000d3d8: 00 10 07 13 addi	a4, zero, 1
0x000000008000d3dc: b6 e7 ae 23 sw	a4, -1156(a5)
0x000000008000d3e0: b7 87 a7 03 lw	a4, -1160(a5)
0x000000008000d3e4: 00 07 07 1b sext.w	a4, a4
0x000000008000d3e8: 00 07 1a 63 bnez	a4, 20
0x000000008000d3fc: 00 00 57 37 lui	a4, 5
0x000000008000d400: 19 07 07 13 addi	a4, a4, 400
0x000000008000d404: 01 01 06 93 addi	a3, sp, 16
0x000000008000d408: 00 d7 07 33 add	a4, a4, a3
0x000000008000d40c: ff ff e7 b7 lui	a5, 1048574
0x000000008000d410: 00 f7 07 b3 add	a5, a4, a5
0x000000008000d414: 80 00 07 37 lui	a4, 524288
0x000000008000d418: 00 17 07 1b addiw	a4, a4, 1
0x000000008000d41c: b8 e7 a0 23 sw	a4, -1152(a5)
0x000000008000d420: 00 20 07 13 addi	a4, zero, 2
0x000000008000d424: b8 e7 a2 23 sw	a4, -1148(a5)
0x000000008000d428: b8 07 a7 03 lw	a4, -1152(a5)
0x000000008000d42c: 00 07 07 1b sext.w	a4, a4
0x000000008000d430: 00 07 1a 63 bnez	a4, 20
0x000000008000d444: 00 00 56 b7 lui	a3, 5
0x000000008000d448: 19 06 86 93 addi	a3, a3, 400
0x000000008000d44c: 01 01 06 13 addi	a2, sp, 16
0x000000008000d450: 80 00 07 37 lui	a4, 524288
0x000000008000d454: 00 c6 86 b3 add	a3, a3, a2
0x000000008000d458: ff ff e7 b7 lui	a5, 1048574
0x000000008000d45c: 00 f6 87 b3 add	a5, a3, a5
0x000000008000d460: 00 17 06 9b addiw	a3, a4, 1
0x000000008000d464: b8 d7 a4 23 sw	a3, -1144(a5)
0x000000008000d468: ff e7 47 13 xori	a4, a4, -2
0x000000008000d46c: b8 e7 a6 23 sw	a4, -1140(a5)
0x000000008000d470: b8 87 a7 03 lw	a4, -1144(a5)
0x000000008000d474: 00 07 07 1b sext.w	a4, a4
0x000000008000d478: 00 07 1a 63 bnez	a4, 20
0x000000008000d48c: 00 00 56 b7 lui	a3, 5
0x000000008000d490: 19 06 86 93 addi	a3, a3, 400
0x000000008000d494: 01 01 06 13 addi	a2, sp, 16
0x000000008000d498: 80 00 07 37 lui	a4, 524288
0x000000008000d49c: 00 c6 86 b3 add	a3, a3, a2
0x000000008000d4a0: ff ff e7 b7 lui	a5, 1048574
0x000000008000d4a4: 00 f6 87 b3 add	a5, a3, a5
0x000000008000d4a8: 00 17 06 9b addiw	a3, a4, 1
0x000000008000d4ac: b8 d7 a8 23 sw	a3, -1136(a5)
0x000000008000d4b0: ff f7 47 13 not	a4, a4
0x000000008000d4b4: b8 e7 aa 23 sw	a4, -1132(a5)
0x000000008000d4b8: b9 07 a7 03 lw	a4, -1136(a5)
0x000000008000d4bc: 00 07 07 1b sext.w	a4, a4
0x000000008000d4c0: 00 07 1a 63 bnez	a4, 20
0x000000008000d4d4: 00 00 57 37 lui	a4, 5
0x000000008000d4d8: 19 07 07 13 addi	a4, a4, 400
0x000000008000d4dc: 01 01 06 93 addi	a3, sp, 16
0x000000008000d4e0: 00 d7 07 33 add	a4, a4, a3
0x000000008000d4e4: ff ff e7 b7 lui	a5, 1048574
0x000000008000d4e8: 00 f7 07 b3 add	a5, a4, a5
0x000000008000d4ec: ff e0 07 13 addi	a4, zero, -2
0x000000008000d4f0: b8 e7 ac 23 sw	a4, -1128(a5)
0x000000008000d4f4: b8 e7 ae 23 sw	a4, -1124(a5)
0x000000008000d4f8: b9 87 a7 03 lw	a4, -1128(a5)
0x000000008000d4fc: 00 07 07 1b sext.w	a4, a4
0x000000008000d500: 00 07 1a 63 bnez	a4, 20
0x000000008000d514: 00 00 57 37 lui	a4, 5
0x000000008000d518: 19 07 07 13 addi	a4, a4, 400
0x000000008000d51c: 01 01 06 93 addi	a3, sp, 16
0x000000008000d520: 00 d7 07 33 add	a4, a4, a3
0x000000008000d524: ff ff e7 b7 lui	a5, 1048574
0x000000008000d528: 00 f7 07 b3 add	a5, a4, a5
0x000000008000d52c: ff e0 07 13 addi	a4, zero, -2
0x000000008000d530: ba e7 a0 23 sw	a4, -1120(a5)
0x000000008000d534: ff f0 07 13 addi	a4, zero, -1
0x000000008000d538: ba e7 a2 23 sw	a4, -1116(a5)
0x000000008000d53c: ba 07 a7 03 lw	a4, -1120(a5)
0x000000008000d540: 00 07 07 1b sext.w	a4, a4
0x000000008000d544: 00 07 1a 63 bnez	a4, 20
0x000000008000d558: 00 00 57 37 lui	a4, 5
0x000000008000d55c: 19 07 07 13 addi	a4, a4, 400
0x000000008000d560: 01 01 06 93 addi	a3, sp, 16
0x000000008000d564: 00 d7 07 33 add	a4, a4, a3
0x000000008000d568: ff ff e7 b7 lui	a5, 1048574
0x000000008000d56c: 00 f7 07 b3 add	a5, a4, a5
0x000000008000d570: ff e0 07 13 addi	a4, zero, -2
0x000000008000d574: ba e7 a4 23 sw	a4, -1112(a5)
0x000000008000d578: ba 07 a6 23 sw	zero, -1108(a5)
0x000000008000d57c: ba 87 a7 03 lw	a4, -1112(a5)
0x000000008000d580: 00 07 07 1b sext.w	a4, a4
0x000000008000d584: 00 07 1a 63 bnez	a4, 20
0x000000008000d598: 00 00 57 37 lui	a4, 5
0x000000008000d59c: 19 07 07 13 addi	a4, a4, 400
0x000000008000d5a0: 01 01 06 93 addi	a3, sp, 16
0x000000008000d5a4: 00 d7 07 33 add	a4, a4, a3
0x000000008000d5a8: ff ff e7 b7 lui	a5, 1048574
0x000000008000d5ac: 00 f7 07 b3 add	a5, a4, a5
0x000000008000d5b0: ff e0 07 13 addi	a4, zero, -2
0x000000008000d5b4: ba e7 a8 23 sw	a4, -1104(a5)
0x000000008000d5b8: 00 10 07 13 addi	a4, zero, 1
0x000000008000d5bc: ba e7 aa 23 sw	a4, -1100(a5)
0x000000008000d5c0: bb 07 a7 03 lw	a4, -1104(a5)
0x000000008000d5c4: 00 07 07 1b sext.w	a4, a4
0x000000008000d5c8: 00 07 1a 63 bnez	a4, 20
0x000000008000d5dc: 00 00 57 37 lui	a4, 5
0x000000008000d5e0: 19 07 07 13 addi	a4, a4, 400
0x000000008000d5e4: 01 01 06 93 addi	a3, sp, 16
0x000000008000d5e8: 00 d7 07 33 add	a4, a4, a3
0x000000008000d5ec: ff ff e7 b7 lui	a5, 1048574
0x000000008000d5f0: 00 f7 07 b3 add	a5, a4, a5
0x000000008000d5f4: ff e0 07 13 addi	a4, zero, -2
0x000000008000d5f8: ba e7 ac 23 sw	a4, -1096(a5)
0x000000008000d5fc: 00 20 07 13 addi	a4, zero, 2
0x000000008000d600: ba e7 ae 23 sw	a4, -1092(a5)
0x000000008000d604: bb 87 a7 03 lw	a4, -1096(a5)
0x000000008000d608: 00 07 07 1b sext.w	a4, a4
0x000000008000d60c: 00 07 1a 63 bnez	a4, 20
0x000000008000d620: 00 00 57 37 lui	a4, 5
0x000000008000d624: 19 07 07 13 addi	a4, a4, 400
0x000000008000d628: 01 01 06 93 addi	a3, sp, 16
0x000000008000d62c: 00 d7 07 33 add	a4, a4, a3
0x000000008000d630: ff ff e7 b7 lui	a5, 1048574
0x000000008000d634: 00 f7 07 b3 add	a5, a4, a5
0x000000008000d638: ff e0 07 13 addi	a4, zero, -2
0x000000008000d63c: bc e7 a0 23 sw	a4, -1088(a5)
0x000000008000d640: 80 00 07 37 lui	a4, 524288
0x000000008000d644: ff e7 47 13 xori	a4, a4, -2
0x000000008000d648: bc e7 a2 23 sw	a4, -1084(a5)
0x000000008000d64c: bc 07 a7 03 lw	a4, -1088(a5)
0x000000008000d650: 00 07 07 1b sext.w	a4, a4
0x000000008000d654: 00 07 1a 63 bnez	a4, 20
0x000000008000d668: 00 00 57 37 lui	a4, 5
0x000000008000d66c: 19 07 07 13 addi	a4, a4, 400
0x000000008000d670: 01 01 06 93 addi	a3, sp, 16
0x000000008000d674: 00 d7 07 33 add	a4, a4, a3
0x000000008000d678: ff ff e7 b7 lui	a5, 1048574
0x000000008000d67c: 00 f7 07 b3 add	a5, a4, a5
0x000000008000d680: ff e0 07 13 addi	a4, zero, -2
0x000000008000d684: bc e7 a4 23 sw	a4, -1080(a5)
0x000000008000d688: 80 00 07 37 lui	a4, 524288
0x000000008000d68c: ff f7 47 13 not	a4, a4
0x000000008000d690: bc e7 a6 23 sw	a4, -1076(a5)
0x000000008000d694: bc 87 a7 03 lw	a4, -1080(a5)
0x000000008000d698: 00 07 07 1b sext.w	a4, a4
0x000000008000d69c: 00 07 1a 63 bnez	a4, 20
0x000000008000d6b0: 00 00 57 37 lui	a4, 5
0x000000008000d6b4: 19 07 07 13 addi	a4, a4, 400
0x000000008000d6b8: 01 01 06 93 addi	a3, sp, 16
0x000000008000d6bc: 00 d7 07 33 add	a4, a4, a3
0x000000008000d6c0: ff ff e7 b7 lui	a5, 1048574
0x000000008000d6c4: 00 f7 07 b3 add	a5, a4, a5
0x000000008000d6c8: ff f0 07 13 addi	a4, zero, -1
0x000000008000d6cc: bc e7 a8 23 sw	a4, -1072(a5)
0x000000008000d6d0: bc e7 aa 23 sw	a4, -1068(a5)
0x000000008000d6d4: bd 07 a7 03 lw	a4, -1072(a5)
0x000000008000d6d8: 00 07 07 1b sext.w	a4, a4
0x000000008000d6dc: 00 07 1a 63 bnez	a4, 20
0x000000008000d6f0: 00 00 57 37 lui	a4, 5
0x000000008000d6f4: 19 07 07 13 addi	a4, a4, 400
0x000000008000d6f8: 01 01 06 93 addi	a3, sp, 16
0x000000008000d6fc: 00 d7 07 33 add	a4, a4, a3
0x000000008000d700: ff ff e7 b7 lui	a5, 1048574
0x000000008000d704: 00 f7 07 b3 add	a5, a4, a5
0x000000008000d708: ff f0 07 13 addi	a4, zero, -1
0x000000008000d70c: bc e7 ac 23 sw	a4, -1064(a5)
0x000000008000d710: bc 07 ae 23 sw	zero, -1060(a5)
0x000000008000d714: bd 87 a7 03 lw	a4, -1064(a5)
0x000000008000d718: 00 07 07 1b sext.w	a4, a4
0x000000008000d71c: 00 07 1a 63 bnez	a4, 20
0x000000008000d730: 00 00 57 37 lui	a4, 5
0x000000008000d734: 19 07 07 13 addi	a4, a4, 400
0x000000008000d738: 01 01 06 93 addi	a3, sp, 16
0x000000008000d73c: 00 d7 07 33 add	a4, a4, a3
0x000000008000d740: ff ff e7 b7 lui	a5, 1048574
0x000000008000d744: 00 f7 07 b3 add	a5, a4, a5
0x000000008000d748: ff f0 07 13 addi	a4, zero, -1
0x000000008000d74c: be e7 a0 23 sw	a4, -1056(a5)
0x000000008000d750: 00 10 07 13 addi	a4, zero, 1
0x000000008000d754: be e7 a2 23 sw	a4, -1052(a5)
0x000000008000d758: be 07 a7 03 lw	a4, -1056(a5)
0x000000008000d75c: 00 07 07 1b sext.w	a4, a4
0x000000008000d760: 00 07 1a 63 bnez	a4, 20
0x000000008000d774: 00 00 57 37 lui	a4, 5
0x000000008000d778: 19 07 07 13 addi	a4, a4, 400
0x000000008000d77c: 01 01 06 93 addi	a3, sp, 16
0x000000008000d780: 00 d7 07 33 add	a4, a4, a3
0x000000008000d784: ff ff e7 b7 lui	a5, 1048574
0x000000008000d788: 00 f7 07 b3 add	a5, a4, a5
0x000000008000d78c: ff f0 07 13 addi	a4, zero, -1
0x000000008000d790: be e7 a4 23 sw	a4, -1048(a5)
0x000000008000d794: 00 20 07 13 addi	a4, zero, 2
0x000000008000d798: be e7 a6 23 sw	a4, -1044(a5)
0x000000008000d79c: be 87 a7 03 lw	a4, -1048(a5)
0x000000008000d7a0: 00 07 07 1b sext.w	a4, a4
0x000000008000d7a4: 00 07 1a 63 bnez	a4, 20
0x000000008000d7b8: 00 00 57 37 lui	a4, 5
0x000000008000d7bc: 19 07 07 13 addi	a4, a4, 400
0x000000008000d7c0: 01 01 06 93 addi	a3, sp, 16
0x000000008000d7c4: 00 d7 07 33 add	a4, a4, a3
0x000000008000d7c8: ff ff e7 b7 lui	a5, 1048574
0x000000008000d7cc: 00 f7 07 b3 add	a5, a4, a5
0x000000008000d7d0: ff f0 07 13 addi	a4, zero, -1
0x000000008000d7d4: be e7 a8 23 sw	a4, -1040(a5)
0x000000008000d7d8: 80 00 07 37 lui	a4, 524288
0x000000008000d7dc: ff e7 47 13 xori	a4, a4, -2
0x000000008000d7e0: be e7 aa 23 sw	a4, -1036(a5)
0x000000008000d7e4: bf 07 a7 03 lw	a4, -1040(a5)
0x000000008000d7e8: 00 07 07 1b sext.w	a4, a4
0x000000008000d7ec: 00 07 1a 63 bnez	a4, 20
0x000000008000d800: 00 00 57 37 lui	a4, 5
0x000000008000d804: 19 07 07 13 addi	a4, a4, 400
0x000000008000d808: 01 01 06 93 addi	a3, sp, 16
0x000000008000d80c: 00 d7 07 33 add	a4, a4, a3
0x000000008000d810: ff ff e7 b7 lui	a5, 1048574
0x000000008000d814: 00 f7 07 b3 add	a5, a4, a5
0x000000008000d818: ff f0 07 13 addi	a4, zero, -1
0x000000008000d81c: be e7 ac 23 sw	a4, -1032(a5)
0x000000008000d820: 80 00 07 37 lui	a4, 524288
0x000000008000d824: ff f7 47 13 not	a4, a4
0x000000008000d828: be e7 ae 23 sw	a4, -1028(a5)
0x000000008000d82c: bf 87 a7 03 lw	a4, -1032(a5)
0x000000008000d830: 00 07 07 1b sext.w	a4, a4
0x000000008000d834: 00 07 1a 63 bnez	a4, 20
0x000000008000d848: 00 00 57 37 lui	a4, 5
0x000000008000d84c: 19 07 07 13 addi	a4, a4, 400
0x000000008000d850: 01 01 06 93 addi	a3, sp, 16
0x000000008000d854: 00 d7 07 33 add	a4, a4, a3
0x000000008000d858: ff ff e7 b7 lui	a5, 1048574
0x000000008000d85c: 00 f7 07 b3 add	a5, a4, a5
0x000000008000d860: c0 07 a0 23 sw	zero, -1024(a5)
0x000000008000d864: c0 07 a2 23 sw	zero, -1020(a5)
0x000000008000d868: c0 07 a7 03 lw	a4, -1024(a5)
0x000000008000d86c: 00 07 07 1b sext.w	a4, a4
0x000000008000d870: 00 07 04 63 beqz	a4, 8
0x000000008000d878: c0 47 a7 83 lw	a5, -1020(a5)
0x000000008000d87c: 00 07 87 9b sext.w	a5, a5
0x000000008000d880: 00 07 84 63 beqz	a5, 8
0x000000008000d888: 00 00 57 37 lui	a4, 5
0x000000008000d88c: 19 07 07 13 addi	a4, a4, 400
0x000000008000d890: 01 01 06 93 addi	a3, sp, 16
0x000000008000d894: 00 d7 07 33 add	a4, a4, a3
0x000000008000d898: ff ff e7 b7 lui	a5, 1048574
0x000000008000d89c: 00 f7 07 b3 add	a5, a4, a5
0x000000008000d8a0: c0 07 a4 23 sw	zero, -1016(a5)
0x000000008000d8a4: 00 10 07 13 addi	a4, zero, 1
0x000000008000d8a8: c0 e7 a6 23 sw	a4, -1012(a5)
0x000000008000d8ac: c0 87 a7 03 lw	a4, -1016(a5)
0x000000008000d8b0: 00 07 07 1b sext.w	a4, a4
0x000000008000d8b4: 00 07 1a 63 bnez	a4, 20
0x000000008000d8b8: c0 c7 a7 03 lw	a4, -1012(a5)
0x000000008000d8bc: 00 07 07 1b sext.w	a4, a4
0x000000008000d8c0: 00 07 14 63 bnez	a4, 8
0x000000008000d8c8: 00 00 57 37 lui	a4, 5
0x000000008000d8cc: 19 07 07 13 addi	a4, a4, 400
0x000000008000d8d0: 01 01 06 93 addi	a3, sp, 16
0x000000008000d8d4: 00 d7 07 33 add	a4, a4, a3
0x000000008000d8d8: ff ff e7 b7 lui	a5, 1048574
0x000000008000d8dc: 00 f7 07 b3 add	a5, a4, a5
0x000000008000d8e0: c0 07 a8 23 sw	zero, -1008(a5)
0x000000008000d8e4: 00 20 07 13 addi	a4, zero, 2
0x000000008000d8e8: c0 e7 aa 23 sw	a4, -1004(a5)
0x000000008000d8ec: c1 07 a7 03 lw	a4, -1008(a5)
0x000000008000d8f0: 00 07 07 1b sext.w	a4, a4
0x000000008000d8f4: 00 07 1a 63 bnez	a4, 20
0x000000008000d8f8: c1 47 a7 03 lw	a4, -1004(a5)
0x000000008000d8fc: 00 07 07 1b sext.w	a4, a4
0x000000008000d900: 00 07 14 63 bnez	a4, 8
0x000000008000d908: 00 00 57 37 lui	a4, 5
0x000000008000d90c: 19 07 07 13 addi	a4, a4, 400
0x000000008000d910: 01 01 06 93 addi	a3, sp, 16
0x000000008000d914: 00 d7 07 33 add	a4, a4, a3
0x000000008000d918: ff ff e7 b7 lui	a5, 1048574
0x000000008000d91c: 00 f7 07 b3 add	a5, a4, a5
0x000000008000d920: 80 00 07 37 lui	a4, 524288
0x000000008000d924: c0 07 ac 23 sw	zero, -1000(a5)
0x000000008000d928: ff e7 47 13 xori	a4, a4, -2
0x000000008000d92c: c0 e7 ae 23 sw	a4, -996(a5)
0x000000008000d930: c1 87 a7 03 lw	a4, -1000(a5)
0x000000008000d934: 00 07 07 1b sext.w	a4, a4
0x000000008000d938: 00 07 1a 63 bnez	a4, 20
0x000000008000d93c: c1 c7 a7 03 lw	a4, -996(a5)
0x000000008000d940: 00 07 07 1b sext.w	a4, a4
0x000000008000d944: 00 07 14 63 bnez	a4, 8
0x000000008000d94c: 00 00 57 37 lui	a4, 5
0x000000008000d950: 19 07 07 13 addi	a4, a4, 400
0x000000008000d954: 01 01 06 93 addi	a3, sp, 16
0x000000008000d958: 00 d7 07 33 add	a4, a4, a3
0x000000008000d95c: ff ff e7 b7 lui	a5, 1048574
0x000000008000d960: 00 f7 07 b3 add	a5, a4, a5
0x000000008000d964: 80 00 07 37 lui	a4, 524288
0x000000008000d968: c2 07 a0 23 sw	zero, -992(a5)
0x000000008000d96c: ff f7 47 13 not	a4, a4
0x000000008000d970: c2 e7 a2 23 sw	a4, -988(a5)
0x000000008000d974: c2 07 a7 03 lw	a4, -992(a5)
0x000000008000d978: 00 07 07 1b sext.w	a4, a4
0x000000008000d97c: 00 07 1a 63 bnez	a4, 20
0x000000008000d980: c2 47 a7 03 lw	a4, -988(a5)
0x000000008000d984: 00 07 07 1b sext.w	a4, a4
0x000000008000d988: 00 07 14 63 bnez	a4, 8
0x000000008000d990: 00 00 57 37 lui	a4, 5
0x000000008000d994: 19 07 07 13 addi	a4, a4, 400
0x000000008000d998: 01 01 06 93 addi	a3, sp, 16
0x000000008000d99c: 00 d7 07 33 add	a4, a4, a3
0x000000008000d9a0: ff ff e7 b7 lui	a5, 1048574
0x000000008000d9a4: 00 f7 07 b3 add	a5, a4, a5
0x000000008000d9a8: 00 10 07 13 addi	a4, zero, 1
0x000000008000d9ac: c2 e7 a4 23 sw	a4, -984(a5)
0x000000008000d9b0: c2 e7 a6 23 sw	a4, -980(a5)
0x000000008000d9b4: c2 87 a7 03 lw	a4, -984(a5)
0x000000008000d9b8: 00 07 07 1b sext.w	a4, a4
0x000000008000d9bc: 00 07 1a 63 bnez	a4, 20
0x000000008000d9d0: 00 00 57 37 lui	a4, 5
0x000000008000d9d4: 19 07 07 13 addi	a4, a4, 400
0x000000008000d9d8: 01 01 06 93 addi	a3, sp, 16
0x000000008000d9dc: 00 d7 07 33 add	a4, a4, a3
0x000000008000d9e0: ff ff e7 b7 lui	a5, 1048574
0x000000008000d9e4: 00 f7 07 b3 add	a5, a4, a5
0x000000008000d9e8: 00 10 07 13 addi	a4, zero, 1
0x000000008000d9ec: c2 e7 a8 23 sw	a4, -976(a5)
0x000000008000d9f0: 00 20 07 13 addi	a4, zero, 2
0x000000008000d9f4: c2 e7 aa 23 sw	a4, -972(a5)
0x000000008000d9f8: c3 07 a7 03 lw	a4, -976(a5)
0x000000008000d9fc: 00 07 07 1b sext.w	a4, a4
0x000000008000da00: 00 07 1a 63 bnez	a4, 20
0x000000008000da14: 00 00 57 37 lui	a4, 5
0x000000008000da18: 19 07 07 13 addi	a4, a4, 400
0x000000008000da1c: 01 01 06 93 addi	a3, sp, 16
0x000000008000da20: 00 d7 07 33 add	a4, a4, a3
0x000000008000da24: ff ff e7 b7 lui	a5, 1048574
0x000000008000da28: 00 f7 07 b3 add	a5, a4, a5
0x000000008000da2c: 00 10 07 13 addi	a4, zero, 1
0x000000008000da30: c2 e7 ac 23 sw	a4, -968(a5)
0x000000008000da34: 80 00 07 37 lui	a4, 524288
0x000000008000da38: ff e7 47 13 xori	a4, a4, -2
0x000000008000da3c: c2 e7 ae 23 sw	a4, -964(a5)
0x000000008000da40: c3 87 a7 03 lw	a4, -968(a5)
0x000000008000da44: 00 07 07 1b sext.w	a4, a4
0x000000008000da48: 00 07 1a 63 bnez	a4, 20
0x000000008000da5c: 00 00 57 37 lui	a4, 5
0x000000008000da60: 19 07 07 13 addi	a4, a4, 400
0x000000008000da64: 01 01 06 93 addi	a3, sp, 16
0x000000008000da68: 00 d7 07 33 add	a4, a4, a3
0x000000008000da6c: ff ff e7 b7 lui	a5, 1048574
0x000000008000da70: 00 f7 07 b3 add	a5, a4, a5
0x000000008000da74: 00 10 07 13 addi	a4, zero, 1
0x000000008000da78: c4 e7 a0 23 sw	a4, -960(a5)
0x000000008000da7c: 80 00 07 37 lui	a4, 524288
0x000000008000da80: ff f7 47 13 not	a4, a4
0x000000008000da84: c4 e7 a2 23 sw	a4, -956(a5)
0x000000008000da88: c4 07 a7 03 lw	a4, -960(a5)
0x000000008000da8c: 00 07 07 1b sext.w	a4, a4
0x000000008000da90: 00 07 1a 63 bnez	a4, 20
0x000000008000daa4: 00 00 57 37 lui	a4, 5
0x000000008000daa8: 19 07 07 13 addi	a4, a4, 400
0x000000008000daac: 01 01 06 93 addi	a3, sp, 16
0x000000008000dab0: 00 d7 07 33 add	a4, a4, a3
0x000000008000dab4: ff ff e7 b7 lui	a5, 1048574
0x000000008000dab8: 00 f7 07 b3 add	a5, a4, a5
0x000000008000dabc: 00 20 07 13 addi	a4, zero, 2
0x000000008000dac0: c4 e7 a4 23 sw	a4, -952(a5)
0x000000008000dac4: c4 e7 a6 23 sw	a4, -948(a5)
0x000000008000dac8: c4 87 a7 03 lw	a4, -952(a5)
0x000000008000dacc: 00 07 07 1b sext.w	a4, a4
0x000000008000dad0: 00 07 1a 63 bnez	a4, 20
0x000000008000dae4: 00 00 57 37 lui	a4, 5
0x000000008000dae8: 19 07 07 13 addi	a4, a4, 400
0x000000008000daec: 01 01 06 93 addi	a3, sp, 16
0x000000008000daf0: 00 d7 07 33 add	a4, a4, a3
0x000000008000daf4: ff ff e7 b7 lui	a5, 1048574
0x000000008000daf8: 00 f7 07 b3 add	a5, a4, a5
0x000000008000dafc: 00 20 07 13 addi	a4, zero, 2
0x000000008000db00: c4 e7 a8 23 sw	a4, -944(a5)
0x000000008000db04: 80 00 07 37 lui	a4, 524288
0x000000008000db08: ff e7 47 13 xori	a4, a4, -2
0x000000008000db0c: c4 e7 aa 23 sw	a4, -940(a5)
0x000000008000db10: c5 07 a7 03 lw	a4, -944(a5)
0x000000008000db14: 00 07 07 1b sext.w	a4, a4
0x000000008000db18: 00 07 1a 63 bnez	a4, 20
0x000000008000db2c: 00 00 57 37 lui	a4, 5
0x000000008000db30: 19 07 07 13 addi	a4, a4, 400
0x000000008000db34: 01 01 06 93 addi	a3, sp, 16
0x000000008000db38: 00 d7 07 33 add	a4, a4, a3
0x000000008000db3c: ff ff e7 b7 lui	a5, 1048574
0x000000008000db40: 00 f7 07 b3 add	a5, a4, a5
0x000000008000db44: 00 20 07 13 addi	a4, zero, 2
0x000000008000db48: c4 e7 ac 23 sw	a4, -936(a5)
0x000000008000db4c: 80 00 07 37 lui	a4, 524288
0x000000008000db50: ff f7 47 13 not	a4, a4
0x000000008000db54: c4 e7 ae 23 sw	a4, -932(a5)
0x000000008000db58: c5 87 a7 03 lw	a4, -936(a5)
0x000000008000db5c: 00 07 07 1b sext.w	a4, a4
0x000000008000db60: 00 07 1a 63 bnez	a4, 20
0x000000008000db74: 00 00 57 37 lui	a4, 5
0x000000008000db78: 19 07 07 13 addi	a4, a4, 400
0x000000008000db7c: 01 01 06 93 addi	a3, sp, 16
0x000000008000db80: 00 d7 07 33 add	a4, a4, a3
0x000000008000db84: ff ff e7 b7 lui	a5, 1048574
0x000000008000db88: 00 f7 07 b3 add	a5, a4, a5
0x000000008000db8c: 80 00 07 37 lui	a4, 524288
0x000000008000db90: ff e7 47 13 xori	a4, a4, -2
0x000000008000db94: c6 e7 a0 23 sw	a4, -928(a5)
0x000000008000db98: c6 e7 a2 23 sw	a4, -924(a5)
0x000000008000db9c: c6 07 a7 03 lw	a4, -928(a5)
0x000000008000dba0: 00 07 07 1b sext.w	a4, a4
0x000000008000dba4: 00 07 1a 63 bnez	a4, 20
0x000000008000dbb8: 00 00 56 b7 lui	a3, 5
0x000000008000dbbc: 19 06 86 93 addi	a3, a3, 400
0x000000008000dbc0: 01 01 06 13 addi	a2, sp, 16
0x000000008000dbc4: 80 00 07 37 lui	a4, 524288
0x000000008000dbc8: 00 c6 86 b3 add	a3, a3, a2
0x000000008000dbcc: ff ff e7 b7 lui	a5, 1048574
0x000000008000dbd0: 00 f6 87 b3 add	a5, a3, a5
0x000000008000dbd4: ff e7 46 93 xori	a3, a4, -2
0x000000008000dbd8: c6 d7 a4 23 sw	a3, -920(a5)
0x000000008000dbdc: ff f7 47 13 not	a4, a4
0x000000008000dbe0: c6 e7 a6 23 sw	a4, -916(a5)
0x000000008000dbe4: c6 87 a7 03 lw	a4, -920(a5)
0x000000008000dbe8: 00 07 07 1b sext.w	a4, a4
0x000000008000dbec: 00 07 1a 63 bnez	a4, 20
0x000000008000dc00: 00 00 57 37 lui	a4, 5
0x000000008000dc04: 19 07 07 13 addi	a4, a4, 400
0x000000008000dc08: 01 01 06 93 addi	a3, sp, 16
0x000000008000dc0c: 00 d7 07 33 add	a4, a4, a3
0x000000008000dc10: ff ff e7 b7 lui	a5, 1048574
0x000000008000dc14: 00 f7 07 b3 add	a5, a4, a5
0x000000008000dc18: 80 00 07 37 lui	a4, 524288
0x000000008000dc1c: ff f7 47 13 not	a4, a4
0x000000008000dc20: c6 e7 a8 23 sw	a4, -912(a5)
0x000000008000dc24: c6 e7 aa 23 sw	a4, -908(a5)
0x000000008000dc28: c7 07 a7 03 lw	a4, -912(a5)
0x000000008000dc2c: 00 07 07 1b sext.w	a4, a4
0x000000008000dc30: 00 07 1a 63 bnez	a4, 20
0x000000008000dc44: 00 00 57 37 lui	a4, 5
0x000000008000dc48: 01 01 06 93 addi	a3, sp, 16
0x000000008000dc4c: 19 07 07 13 addi	a4, a4, 400
0x000000008000dc50: 00 d7 07 33 add	a4, a4, a3
0x000000008000dc54: ff ff e7 b7 lui	a5, 1048574
0x000000008000dc58: 00 f7 07 b3 add	a5, a4, a5
0x000000008000dc5c: 80 00 07 37 lui	a4, 524288
0x000000008000dc60: c6 e7 ac 23 sw	a4, -904(a5)
0x000000008000dc64: c6 e7 ae 23 sw	a4, -900(a5)
0x000000008000dc68: c7 87 a6 83 lw	a3, -904(a5)
0x000000008000dc6c: c7 c7 a7 03 lw	a4, -900(a5)
0x000000008000dc70: 00 06 86 9b sext.w	a3, a3
0x000000008000dc74: 00 07 07 1b sext.w	a4, a4
0x000000008000dc78: 08 d7 54 63 bge	a4, a3, 136
0x000000008000dd00: 00 00 57 37 lui	a4, 5
0x000000008000dd04: 01 01 06 93 addi	a3, sp, 16
0x000000008000dd08: 19 07 07 13 addi	a4, a4, 400
0x000000008000dd0c: 00 d7 07 33 add	a4, a4, a3
0x000000008000dd10: ff ff e7 b7 lui	a5, 1048574
0x000000008000dd14: 00 f7 07 b3 add	a5, a4, a5
0x000000008000dd18: 80 00 07 37 lui	a4, 524288
0x000000008000dd1c: c8 e7 a0 23 sw	a4, -896(a5)
0x000000008000dd20: 00 17 07 1b addiw	a4, a4, 1
0x000000008000dd24: c8 e7 a2 23 sw	a4, -892(a5)
0x000000008000dd28: c8 07 a6 83 lw	a3, -896(a5)
0x000000008000dd2c: c8 47 a7 03 lw	a4, -892(a5)
0x000000008000dd30: 00 06 86 9b sext.w	a3, a3
0x000000008000dd34: 00 07 07 1b sext.w	a4, a4
0x000000008000dd38: 08 d7 56 63 bge	a4, a3, 140
0x000000008000ddc4: 00 00 57 37 lui	a4, 5
0x000000008000ddc8: 01 01 06 93 addi	a3, sp, 16
0x000000008000ddcc: 19 07 07 13 addi	a4, a4, 400
0x000000008000ddd0: 00 d7 07 33 add	a4, a4, a3
0x000000008000ddd4: ff ff e7 b7 lui	a5, 1048574
0x000000008000ddd8: 00 f7 07 b3 add	a5, a4, a5
0x000000008000dddc: 80 00 07 37 lui	a4, 524288
0x000000008000dde0: c8 e7 a4 23 sw	a4, -888(a5)
0x000000008000dde4: ff e0 07 13 addi	a4, zero, -2
0x000000008000dde8: c8 e7 a6 23 sw	a4, -884(a5)
0x000000008000ddec: c8 87 a6 83 lw	a3, -888(a5)
0x000000008000ddf0: c8 c7 a7 03 lw	a4, -884(a5)
0x000000008000ddf4: 00 06 86 9b sext.w	a3, a3
0x000000008000ddf8: 00 07 07 1b sext.w	a4, a4
0x000000008000ddfc: 08 d7 54 63 bge	a4, a3, 136
0x000000008000de84: 00 00 57 37 lui	a4, 5
0x000000008000de88: 01 01 06 93 addi	a3, sp, 16
0x000000008000de8c: 19 07 07 13 addi	a4, a4, 400
0x000000008000de90: 00 d7 07 33 add	a4, a4, a3
0x000000008000de94: ff ff e7 b7 lui	a5, 1048574
0x000000008000de98: 00 f7 07 b3 add	a5, a4, a5
0x000000008000de9c: 80 00 07 37 lui	a4, 524288
0x000000008000dea0: c8 e7 a8 23 sw	a4, -880(a5)
0x000000008000dea4: ff f0 07 13 addi	a4, zero, -1
0x000000008000dea8: c8 e7 aa 23 sw	a4, -876(a5)
0x000000008000deac: c9 07 a6 83 lw	a3, -880(a5)
0x000000008000deb0: c9 47 a7 03 lw	a4, -876(a5)
0x000000008000deb4: 00 06 86 9b sext.w	a3, a3
0x000000008000deb8: 00 07 07 1b sext.w	a4, a4
0x000000008000debc: 08 d7 54 63 bge	a4, a3, 136
0x000000008000df44: 00 00 57 37 lui	a4, 5
0x000000008000df48: 01 01 06 93 addi	a3, sp, 16
0x000000008000df4c: 19 07 07 13 addi	a4, a4, 400
0x000000008000df50: 00 d7 07 33 add	a4, a4, a3
0x000000008000df54: ff ff e7 b7 lui	a5, 1048574
0x000000008000df58: 00 f7 07 b3 add	a5, a4, a5
0x000000008000df5c: 80 00 07 37 lui	a4, 524288
0x000000008000df60: c8 e7 ac 23 sw	a4, -872(a5)
0x000000008000df64: c8 07 ae 23 sw	zero, -868(a5)
0x000000008000df68: c9 87 a6 83 lw	a3, -872(a5)
0x000000008000df6c: c9 c7 a7 03 lw	a4, -868(a5)
0x000000008000df70: 00 06 86 9b sext.w	a3, a3
0x000000008000df74: 00 07 07 1b sext.w	a4, a4
0x000000008000df78: 08 d7 54 63 bge	a4, a3, 136
0x000000008000e000: 00 00 57 37 lui	a4, 5
0x000000008000e004: 01 01 06 93 addi	a3, sp, 16
0x000000008000e008: 19 07 07 13 addi	a4, a4, 400
0x000000008000e00c: 00 d7 07 33 add	a4, a4, a3
0x000000008000e010: ff ff e7 b7 lui	a5, 1048574
0x000000008000e014: 00 f7 07 b3 add	a5, a4, a5
0x000000008000e018: 80 00 07 37 lui	a4, 524288
0x000000008000e01c: ca e7 a0 23 sw	a4, -864(a5)
0x000000008000e020: 00 10 07 13 addi	a4, zero, 1
0x000000008000e024: ca e7 a2 23 sw	a4, -860(a5)
0x000000008000e028: ca 07 a6 83 lw	a3, -864(a5)
0x000000008000e02c: ca 47 a7 03 lw	a4, -860(a5)
0x000000008000e030: 00 06 86 9b sext.w	a3, a3
0x000000008000e034: 00 07 07 1b sext.w	a4, a4
0x000000008000e038: 08 d7 54 63 bge	a4, a3, 136
0x000000008000e0c0: 00 00 57 37 lui	a4, 5
0x000000008000e0c4: 01 01 06 93 addi	a3, sp, 16
0x000000008000e0c8: 19 07 07 13 addi	a4, a4, 400
0x000000008000e0cc: 00 d7 07 33 add	a4, a4, a3
0x000000008000e0d0: ff ff e7 b7 lui	a5, 1048574
0x000000008000e0d4: 00 f7 07 b3 add	a5, a4, a5
0x000000008000e0d8: 80 00 07 37 lui	a4, 524288
0x000000008000e0dc: ca e7 a4 23 sw	a4, -856(a5)
0x000000008000e0e0: 00 20 07 13 addi	a4, zero, 2
0x000000008000e0e4: ca e7 a6 23 sw	a4, -852(a5)
0x000000008000e0e8: ca 87 a6 83 lw	a3, -856(a5)
0x000000008000e0ec: ca c7 a7 03 lw	a4, -852(a5)
0x000000008000e0f0: 00 06 86 9b sext.w	a3, a3
0x000000008000e0f4: 00 07 07 1b sext.w	a4, a4
0x000000008000e0f8: 08 d7 54 63 bge	a4, a3, 136
0x000000008000e180: 00 00 57 37 lui	a4, 5
0x000000008000e184: 01 01 06 93 addi	a3, sp, 16
0x000000008000e188: 19 07 07 13 addi	a4, a4, 400
0x000000008000e18c: 00 d7 07 33 add	a4, a4, a3
0x000000008000e190: ff ff e7 b7 lui	a5, 1048574
0x000000008000e194: 00 f7 07 b3 add	a5, a4, a5
0x000000008000e198: 80 00 07 37 lui	a4, 524288
0x000000008000e19c: ca e7 a8 23 sw	a4, -848(a5)
0x000000008000e1a0: ff e7 47 13 xori	a4, a4, -2
0x000000008000e1a4: ca e7 aa 23 sw	a4, -844(a5)
0x000000008000e1a8: cb 07 a6 83 lw	a3, -848(a5)
0x000000008000e1ac: cb 47 a7 03 lw	a4, -844(a5)
0x000000008000e1b0: 00 06 86 9b sext.w	a3, a3
0x000000008000e1b4: 00 07 07 1b sext.w	a4, a4
0x000000008000e1b8: 08 d7 56 63 bge	a4, a3, 140
0x000000008000e244: 00 00 57 37 lui	a4, 5
0x000000008000e248: 01 01 06 93 addi	a3, sp, 16
0x000000008000e24c: 19 07 07 13 addi	a4, a4, 400
0x000000008000e250: 00 d7 07 33 add	a4, a4, a3
0x000000008000e254: ff ff e7 b7 lui	a5, 1048574
0x000000008000e258: 00 f7 07 b3 add	a5, a4, a5
0x000000008000e25c: 80 00 07 37 lui	a4, 524288
0x000000008000e260: ca e7 ac 23 sw	a4, -840(a5)
0x000000008000e264: ff f7 47 13 not	a4, a4
0x000000008000e268: ca e7 ae 23 sw	a4, -836(a5)
0x000000008000e26c: cb 87 a6 83 lw	a3, -840(a5)
0x000000008000e270: cb c7 a7 03 lw	a4, -836(a5)
0x000000008000e274: 00 06 86 9b sext.w	a3, a3
0x000000008000e278: 00 07 07 1b sext.w	a4, a4
0x000000008000e27c: 08 d7 56 63 bge	a4, a3, 140
0x000000008000e308: 00 00 57 37 lui	a4, 5
0x000000008000e30c: 01 01 06 93 addi	a3, sp, 16
0x000000008000e310: 19 07 07 13 addi	a4, a4, 400
0x000000008000e314: 00 d7 07 33 add	a4, a4, a3
0x000000008000e318: ff ff e7 b7 lui	a5, 1048574
0x000000008000e31c: 00 f7 07 b3 add	a5, a4, a5
0x000000008000e320: 80 00 07 37 lui	a4, 524288
0x000000008000e324: 00 17 07 1b addiw	a4, a4, 1
0x000000008000e328: cc e7 a0 23 sw	a4, -832(a5)
0x000000008000e32c: cc e7 a2 23 sw	a4, -828(a5)
0x000000008000e330: cc 07 a6 83 lw	a3, -832(a5)
0x000000008000e334: cc 47 a7 03 lw	a4, -828(a5)
0x000000008000e338: 00 06 86 9b sext.w	a3, a3
0x000000008000e33c: 00 07 07 1b sext.w	a4, a4
0x000000008000e340: 08 d7 56 63 bge	a4, a3, 140
0x000000008000e3cc: 00 00 57 37 lui	a4, 5
0x000000008000e3d0: 01 01 06 93 addi	a3, sp, 16
0x000000008000e3d4: 19 07 07 13 addi	a4, a4, 400
0x000000008000e3d8: 00 d7 07 33 add	a4, a4, a3
0x000000008000e3dc: ff ff e7 b7 lui	a5, 1048574
0x000000008000e3e0: 00 f7 07 b3 add	a5, a4, a5
0x000000008000e3e4: 80 00 07 37 lui	a4, 524288
0x000000008000e3e8: 00 17 07 1b addiw	a4, a4, 1
0x000000008000e3ec: cc e7 a4 23 sw	a4, -824(a5)
0x000000008000e3f0: ff e0 07 13 addi	a4, zero, -2
0x000000008000e3f4: cc e7 a6 23 sw	a4, -820(a5)
0x000000008000e3f8: cc 87 a6 83 lw	a3, -824(a5)
0x000000008000e3fc: cc c7 a7 03 lw	a4, -820(a5)
0x000000008000e400: 00 06 86 9b sext.w	a3, a3
0x000000008000e404: 00 07 07 1b sext.w	a4, a4
0x000000008000e408: 08 d7 56 63 bge	a4, a3, 140
0x000000008000e494: 00 00 57 37 lui	a4, 5
0x000000008000e498: 01 01 06 93 addi	a3, sp, 16
0x000000008000e49c: 19 07 07 13 addi	a4, a4, 400
0x000000008000e4a0: 00 d7 07 33 add	a4, a4, a3
0x000000008000e4a4: ff ff e7 b7 lui	a5, 1048574
0x000000008000e4a8: 00 f7 07 b3 add	a5, a4, a5
0x000000008000e4ac: 80 00 07 37 lui	a4, 524288
0x000000008000e4b0: 00 17 07 1b addiw	a4, a4, 1
0x000000008000e4b4: cc e7 a8 23 sw	a4, -816(a5)
0x000000008000e4b8: ff f0 07 13 addi	a4, zero, -1
0x000000008000e4bc: cc e7 aa 23 sw	a4, -812(a5)
0x000000008000e4c0: cd 07 a6 83 lw	a3, -816(a5)
0x000000008000e4c4: cd 47 a7 03 lw	a4, -812(a5)
0x000000008000e4c8: 00 06 86 9b sext.w	a3, a3
0x000000008000e4cc: 00 07 07 1b sext.w	a4, a4
0x000000008000e4d0: 08 d7 56 63 bge	a4, a3, 140
0x000000008000e55c: 00 00 57 37 lui	a4, 5
0x000000008000e560: 01 01 06 93 addi	a3, sp, 16
0x000000008000e564: 19 07 07 13 addi	a4, a4, 400
0x000000008000e568: 00 d7 07 33 add	a4, a4, a3
0x000000008000e56c: ff ff e7 b7 lui	a5, 1048574
0x000000008000e570: 00 f7 07 b3 add	a5, a4, a5
0x000000008000e574: 80 00 07 37 lui	a4, 524288
0x000000008000e578: 00 17 07 1b addiw	a4, a4, 1
0x000000008000e57c: cc e7 ac 23 sw	a4, -808(a5)
0x000000008000e580: cc 07 ae 23 sw	zero, -804(a5)
0x000000008000e584: cd 87 a6 83 lw	a3, -808(a5)
0x000000008000e588: cd c7 a7 03 lw	a4, -804(a5)
0x000000008000e58c: 00 06 86 9b sext.w	a3, a3
0x000000008000e590: 00 07 07 1b sext.w	a4, a4
0x000000008000e594: 08 d7 56 63 bge	a4, a3, 140
0x000000008000e620: 00 00 57 37 lui	a4, 5
0x000000008000e624: 01 01 06 93 addi	a3, sp, 16
0x000000008000e628: 19 07 07 13 addi	a4, a4, 400
0x000000008000e62c: 00 d7 07 33 add	a4, a4, a3
0x000000008000e630: ff ff e7 b7 lui	a5, 1048574
0x000000008000e634: 00 f7 07 b3 add	a5, a4, a5
0x000000008000e638: 80 00 07 37 lui	a4, 524288
0x000000008000e63c: 00 17 07 1b addiw	a4, a4, 1
0x000000008000e640: ce e7 a0 23 sw	a4, -800(a5)
0x000000008000e644: 00 10 07 13 addi	a4, zero, 1
0x000000008000e648: ce e7 a2 23 sw	a4, -796(a5)
0x000000008000e64c: ce 07 a6 83 lw	a3, -800(a5)
0x000000008000e650: ce 47 a7 03 lw	a4, -796(a5)
0x000000008000e654: 00 06 86 9b sext.w	a3, a3
0x000000008000e658: 00 07 07 1b sext.w	a4, a4
0x000000008000e65c: 08 d7 56 63 bge	a4, a3, 140
0x000000008000e6e8: 00 00 57 37 lui	a4, 5
0x000000008000e6ec: 01 01 06 93 addi	a3, sp, 16
0x000000008000e6f0: 19 07 07 13 addi	a4, a4, 400
0x000000008000e6f4: 00 d7 07 33 add	a4, a4, a3
0x000000008000e6f8: ff ff e7 b7 lui	a5, 1048574
0x000000008000e6fc: 00 f7 07 b3 add	a5, a4, a5
0x000000008000e700: 80 00 07 37 lui	a4, 524288
0x000000008000e704: 00 17 07 1b addiw	a4, a4, 1
0x000000008000e708: ce e7 a4 23 sw	a4, -792(a5)
0x000000008000e70c: 00 20 07 13 addi	a4, zero, 2
0x000000008000e710: ce e7 a6 23 sw	a4, -788(a5)
0x000000008000e714: ce 87 a6 83 lw	a3, -792(a5)
0x000000008000e718: ce c7 a7 03 lw	a4, -788(a5)
0x000000008000e71c: 00 06 86 9b sext.w	a3, a3
0x000000008000e720: 00 07 07 1b sext.w	a4, a4
0x000000008000e724: 08 d7 56 63 bge	a4, a3, 140
0x000000008000e7b0: 00 00 56 b7 lui	a3, 5
0x000000008000e7b4: 19 06 86 93 addi	a3, a3, 400
0x000000008000e7b8: 01 01 06 13 addi	a2, sp, 16
0x000000008000e7bc: 80 00 07 37 lui	a4, 524288
0x000000008000e7c0: 00 c6 86 b3 add	a3, a3, a2
0x000000008000e7c4: ff ff e7 b7 lui	a5, 1048574
0x000000008000e7c8: 00 f6 87 b3 add	a5, a3, a5
0x000000008000e7cc: 00 17 06 9b addiw	a3, a4, 1
0x000000008000e7d0: ce d7 a8 23 sw	a3, -784(a5)
0x000000008000e7d4: ff e7 47 13 xori	a4, a4, -2
0x000000008000e7d8: ce e7 aa 23 sw	a4, -780(a5)
0x000000008000e7dc: cf 07 a6 83 lw	a3, -784(a5)
0x000000008000e7e0: cf 47 a7 03 lw	a4, -780(a5)
0x000000008000e7e4: 00 06 86 9b sext.w	a3, a3
0x000000008000e7e8: 00 07 07 1b sext.w	a4, a4
0x000000008000e7ec: 08 d7 56 63 bge	a4, a3, 140
0x000000008000e878: 00 00 56 b7 lui	a3, 5
0x000000008000e87c: 19 06 86 93 addi	a3, a3, 400
0x000000008000e880: 01 01 06 13 addi	a2, sp, 16
0x000000008000e884: 80 00 07 37 lui	a4, 524288
0x000000008000e888: 00 c6 86 b3 add	a3, a3, a2
0x000000008000e88c: ff ff e7 b7 lui	a5, 1048574
0x000000008000e890: 00 f6 87 b3 add	a5, a3, a5
0x000000008000e894: 00 17 06 9b addiw	a3, a4, 1
0x000000008000e898: ce d7 ac 23 sw	a3, -776(a5)
0x000000008000e89c: ff f7 47 13 not	a4, a4
0x000000008000e8a0: ce e7 ae 23 sw	a4, -772(a5)
0x000000008000e8a4: cf 87 a6 83 lw	a3, -776(a5)
0x000000008000e8a8: cf c7 a7 03 lw	a4, -772(a5)
0x000000008000e8ac: 00 06 86 9b sext.w	a3, a3
0x000000008000e8b0: 00 07 07 1b sext.w	a4, a4
0x000000008000e8b4: 08 d7 56 63 bge	a4, a3, 140
0x000000008000e940: 00 00 57 37 lui	a4, 5
0x000000008000e944: 01 01 06 93 addi	a3, sp, 16
0x000000008000e948: 19 07 07 13 addi	a4, a4, 400
0x000000008000e94c: 00 d7 07 33 add	a4, a4, a3
0x000000008000e950: ff ff e7 b7 lui	a5, 1048574
0x000000008000e954: 00 f7 07 b3 add	a5, a4, a5
0x000000008000e958: ff e0 07 13 addi	a4, zero, -2
0x000000008000e95c: d0 e7 a0 23 sw	a4, -768(a5)
0x000000008000e960: d0 e7 a2 23 sw	a4, -764(a5)
0x000000008000e964: d0 07 a6 83 lw	a3, -768(a5)
0x000000008000e968: d0 47 a7 03 lw	a4, -764(a5)
0x000000008000e96c: 00 06 86 9b sext.w	a3, a3
0x000000008000e970: 00 07 07 1b sext.w	a4, a4
0x000000008000e974: 08 d7 54 63 bge	a4, a3, 136
0x000000008000e9fc: 00 00 57 37 lui	a4, 5
0x000000008000ea00: 01 01 06 93 addi	a3, sp, 16
0x000000008000ea04: 19 07 07 13 addi	a4, a4, 400
0x000000008000ea08: 00 d7 07 33 add	a4, a4, a3
0x000000008000ea0c: ff ff e7 b7 lui	a5, 1048574
0x000000008000ea10: 00 f7 07 b3 add	a5, a4, a5
0x000000008000ea14: ff e0 07 13 addi	a4, zero, -2
0x000000008000ea18: d0 e7 a4 23 sw	a4, -760(a5)
0x000000008000ea1c: ff f0 07 13 addi	a4, zero, -1
0x000000008000ea20: d0 e7 a6 23 sw	a4, -756(a5)
0x000000008000ea24: d0 87 a6 83 lw	a3, -760(a5)
0x000000008000ea28: d0 c7 a7 03 lw	a4, -756(a5)
0x000000008000ea2c: 00 06 86 9b sext.w	a3, a3
0x000000008000ea30: 00 07 07 1b sext.w	a4, a4
0x000000008000ea34: 08 d7 54 63 bge	a4, a3, 136
0x000000008000eabc: 00 00 57 37 lui	a4, 5
0x000000008000eac0: 01 01 06 93 addi	a3, sp, 16
0x000000008000eac4: 19 07 07 13 addi	a4, a4, 400
0x000000008000eac8: 00 d7 07 33 add	a4, a4, a3
0x000000008000eacc: ff ff e7 b7 lui	a5, 1048574
0x000000008000ead0: 00 f7 07 b3 add	a5, a4, a5
0x000000008000ead4: ff e0 07 13 addi	a4, zero, -2
0x000000008000ead8: d0 e7 a8 23 sw	a4, -752(a5)
0x000000008000eadc: d0 07 aa 23 sw	zero, -748(a5)
0x000000008000eae0: d1 07 a6 83 lw	a3, -752(a5)
0x000000008000eae4: d1 47 a7 03 lw	a4, -748(a5)
0x000000008000eae8: 00 06 86 9b sext.w	a3, a3
0x000000008000eaec: 00 07 07 1b sext.w	a4, a4
0x000000008000eaf0: 08 d7 54 63 bge	a4, a3, 136
0x000000008000eb78: 00 00 57 37 lui	a4, 5
0x000000008000eb7c: 01 01 06 93 addi	a3, sp, 16
0x000000008000eb80: 19 07 07 13 addi	a4, a4, 400
0x000000008000eb84: 00 d7 07 33 add	a4, a4, a3
0x000000008000eb88: ff ff e7 b7 lui	a5, 1048574
0x000000008000eb8c: 00 f7 07 b3 add	a5, a4, a5
0x000000008000eb90: ff e0 07 13 addi	a4, zero, -2
0x000000008000eb94: d0 e7 ac 23 sw	a4, -744(a5)
0x000000008000eb98: 00 10 07 13 addi	a4, zero, 1
0x000000008000eb9c: d0 e7 ae 23 sw	a4, -740(a5)
0x000000008000eba0: d1 87 a6 83 lw	a3, -744(a5)
0x000000008000eba4: d1 c7 a7 03 lw	a4, -740(a5)
0x000000008000eba8: 00 06 86 9b sext.w	a3, a3
0x000000008000ebac: 00 07 07 1b sext.w	a4, a4
0x000000008000ebb0: 08 d7 54 63 bge	a4, a3, 136
0x000000008000ec38: 00 00 57 37 lui	a4, 5
0x000000008000ec3c: 01 01 06 93 addi	a3, sp, 16
0x000000008000ec40: 19 07 07 13 addi	a4, a4, 400
0x000000008000ec44: 00 d7 07 33 add	a4, a4, a3
0x000000008000ec48: ff ff e7 b7 lui	a5, 1048574
0x000000008000ec4c: 00 f7 07 b3 add	a5, a4, a5
0x000000008000ec50: ff e0 07 13 addi	a4, zero, -2
0x000000008000ec54: d2 e7 a0 23 sw	a4, -736(a5)
0x000000008000ec58: 00 20 07 13 addi	a4, zero, 2
0x000000008000ec5c: d2 e7 a2 23 sw	a4, -732(a5)
0x000000008000ec60: d2 07 a6 83 lw	a3, -736(a5)
0x000000008000ec64: d2 47 a7 03 lw	a4, -732(a5)
0x000000008000ec68: 00 06 86 9b sext.w	a3, a3
0x000000008000ec6c: 00 07 07 1b sext.w	a4, a4
0x000000008000ec70: 08 d7 54 63 bge	a4, a3, 136
0x000000008000ecf8: 00 00 57 37 lui	a4, 5
0x000000008000ecfc: 01 01 06 93 addi	a3, sp, 16
0x000000008000ed00: 19 07 07 13 addi	a4, a4, 400
0x000000008000ed04: 00 d7 07 33 add	a4, a4, a3
0x000000008000ed08: ff ff e7 b7 lui	a5, 1048574
0x000000008000ed0c: 00 f7 07 b3 add	a5, a4, a5
0x000000008000ed10: ff e0 07 13 addi	a4, zero, -2
0x000000008000ed14: d2 e7 a4 23 sw	a4, -728(a5)
0x000000008000ed18: 80 00 07 37 lui	a4, 524288
0x000000008000ed1c: ff e7 47 13 xori	a4, a4, -2
0x000000008000ed20: d2 e7 a6 23 sw	a4, -724(a5)
0x000000008000ed24: d2 87 a6 83 lw	a3, -728(a5)
0x000000008000ed28: d2 c7 a7 03 lw	a4, -724(a5)
0x000000008000ed2c: 00 06 86 9b sext.w	a3, a3
0x000000008000ed30: 00 07 07 1b sext.w	a4, a4
0x000000008000ed34: 08 d7 56 63 bge	a4, a3, 140
0x000000008000edc0: 00 00 57 37 lui	a4, 5
0x000000008000edc4: 01 01 06 93 addi	a3, sp, 16
0x000000008000edc8: 19 07 07 13 addi	a4, a4, 400
0x000000008000edcc: 00 d7 07 33 add	a4, a4, a3
0x000000008000edd0: ff ff e7 b7 lui	a5, 1048574
0x000000008000edd4: 00 f7 07 b3 add	a5, a4, a5
0x000000008000edd8: ff e0 07 13 addi	a4, zero, -2
0x000000008000eddc: d2 e7 a8 23 sw	a4, -720(a5)
0x000000008000ede0: 80 00 07 37 lui	a4, 524288
0x000000008000ede4: ff f7 47 13 not	a4, a4
0x000000008000ede8: d2 e7 aa 23 sw	a4, -716(a5)
0x000000008000edec: d3 07 a6 83 lw	a3, -720(a5)
0x000000008000edf0: d3 47 a7 03 lw	a4, -716(a5)
0x000000008000edf4: 00 06 86 9b sext.w	a3, a3
0x000000008000edf8: 00 07 07 1b sext.w	a4, a4
0x000000008000edfc: 08 d7 56 63 bge	a4, a3, 140
0x000000008000ee88: 00 00 57 37 lui	a4, 5
0x000000008000ee8c: 01 01 06 93 addi	a3, sp, 16
0x000000008000ee90: 19 07 07 13 addi	a4, a4, 400
0x000000008000ee94: 00 d7 07 33 add	a4, a4, a3
0x000000008000ee98: ff ff e7 b7 lui	a5, 1048574
0x000000008000ee9c: 00 f7 07 b3 add	a5, a4, a5
0x000000008000eea0: ff f0 07 13 addi	a4, zero, -1
0x000000008000eea4: d2 e7 ac 23 sw	a4, -712(a5)
0x000000008000eea8: d2 e7 ae 23 sw	a4, -708(a5)
0x000000008000eeac: d3 87 a6 83 lw	a3, -712(a5)
0x000000008000eeb0: d3 c7 a7 03 lw	a4, -708(a5)
0x000000008000eeb4: 00 06 86 9b sext.w	a3, a3
0x000000008000eeb8: 00 07 07 1b sext.w	a4, a4
0x000000008000eebc: 08 d7 54 63 bge	a4, a3, 136
0x000000008000ef44: 00 00 57 37 lui	a4, 5
0x000000008000ef48: 01 01 06 93 addi	a3, sp, 16
0x000000008000ef4c: 19 07 07 13 addi	a4, a4, 400
0x000000008000ef50: 00 d7 07 33 add	a4, a4, a3
0x000000008000ef54: ff ff e7 b7 lui	a5, 1048574
0x000000008000ef58: 00 f7 07 b3 add	a5, a4, a5
0x000000008000ef5c: ff f0 07 13 addi	a4, zero, -1
0x000000008000ef60: d4 e7 a0 23 sw	a4, -704(a5)
0x000000008000ef64: d4 07 a2 23 sw	zero, -700(a5)
0x000000008000ef68: d4 07 a6 83 lw	a3, -704(a5)
0x000000008000ef6c: d4 47 a7 03 lw	a4, -700(a5)
0x000000008000ef70: 00 06 86 9b sext.w	a3, a3
0x000000008000ef74: 00 07 07 1b sext.w	a4, a4
0x000000008000ef78: 08 d7 54 63 bge	a4, a3, 136
0x000000008000f000: 00 00 57 37 lui	a4, 5
0x000000008000f004: 01 01 06 93 addi	a3, sp, 16
0x000000008000f008: 19 07 07 13 addi	a4, a4, 400
0x000000008000f00c: 00 d7 07 33 add	a4, a4, a3
0x000000008000f010: ff ff e7 b7 lui	a5, 1048574
0x000000008000f014: 00 f7 07 b3 add	a5, a4, a5
0x000000008000f018: ff f0 07 13 addi	a4, zero, -1
0x000000008000f01c: d4 e7 a4 23 sw	a4, -696(a5)
0x000000008000f020: 00 10 07 13 addi	a4, zero, 1
0x000000008000f024: d4 e7 a6 23 sw	a4, -692(a5)
0x000000008000f028: d4 87 a6 83 lw	a3, -696(a5)
0x000000008000f02c: d4 c7 a7 03 lw	a4, -692(a5)
0x000000008000f030: 00 06 86 9b sext.w	a3, a3
0x000000008000f034: 00 07 07 1b sext.w	a4, a4
0x000000008000f038: 08 d7 54 63 bge	a4, a3, 136
0x000000008000f0c0: 00 00 57 37 lui	a4, 5
0x000000008000f0c4: 01 01 06 93 addi	a3, sp, 16
0x000000008000f0c8: 19 07 07 13 addi	a4, a4, 400
0x000000008000f0cc: 00 d7 07 33 add	a4, a4, a3
0x000000008000f0d0: ff ff e7 b7 lui	a5, 1048574
0x000000008000f0d4: 00 f7 07 b3 add	a5, a4, a5
0x000000008000f0d8: ff f0 07 13 addi	a4, zero, -1
0x000000008000f0dc: d4 e7 a8 23 sw	a4, -688(a5)
0x000000008000f0e0: 00 20 07 13 addi	a4, zero, 2
0x000000008000f0e4: d4 e7 aa 23 sw	a4, -684(a5)
0x000000008000f0e8: d5 07 a6 83 lw	a3, -688(a5)
0x000000008000f0ec: d5 47 a7 03 lw	a4, -684(a5)
0x000000008000f0f0: 00 06 86 9b sext.w	a3, a3
0x000000008000f0f4: 00 07 07 1b sext.w	a4, a4
0x000000008000f0f8: 08 d7 54 63 bge	a4, a3, 136
0x000000008000f180: 00 00 57 37 lui	a4, 5
0x000000008000f184: 01 01 06 93 addi	a3, sp, 16
0x000000008000f188: 19 07 07 13 addi	a4, a4, 400
0x000000008000f18c: 00 d7 07 33 add	a4, a4, a3
0x000000008000f190: ff ff e7 b7 lui	a5, 1048574
0x000000008000f194: 00 f7 07 b3 add	a5, a4, a5
0x000000008000f198: ff f0 07 13 addi	a4, zero, -1
0x000000008000f19c: d4 e7 ac 23 sw	a4, -680(a5)
0x000000008000f1a0: 80 00 07 37 lui	a4, 524288
0x000000008000f1a4: ff e7 47 13 xori	a4, a4, -2
0x000000008000f1a8: d4 e7 ae 23 sw	a4, -676(a5)
0x000000008000f1ac: d5 87 a6 83 lw	a3, -680(a5)
0x000000008000f1b0: d5 c7 a7 03 lw	a4, -676(a5)
0x000000008000f1b4: 00 06 86 9b sext.w	a3, a3
0x000000008000f1b8: 00 07 07 1b sext.w	a4, a4
0x000000008000f1bc: 08 d7 56 63 bge	a4, a3, 140
0x000000008000f248: 00 00 57 37 lui	a4, 5
0x000000008000f24c: 01 01 06 93 addi	a3, sp, 16
0x000000008000f250: 19 07 07 13 addi	a4, a4, 400
0x000000008000f254: 00 d7 07 33 add	a4, a4, a3
0x000000008000f258: ff ff e7 b7 lui	a5, 1048574
0x000000008000f25c: 00 f7 07 b3 add	a5, a4, a5
0x000000008000f260: ff f0 07 13 addi	a4, zero, -1
0x000000008000f264: d6 e7 a0 23 sw	a4, -672(a5)
0x000000008000f268: 80 00 07 37 lui	a4, 524288
0x000000008000f26c: ff f7 47 13 not	a4, a4
0x000000008000f270: d6 e7 a2 23 sw	a4, -668(a5)
0x000000008000f274: d6 07 a6 83 lw	a3, -672(a5)
0x000000008000f278: d6 47 a7 03 lw	a4, -668(a5)
0x000000008000f27c: 00 06 86 9b sext.w	a3, a3
0x000000008000f280: 00 07 07 1b sext.w	a4, a4
0x000000008000f284: 08 d7 56 63 bge	a4, a3, 140
0x000000008000f310: 00 00 57 37 lui	a4, 5
0x000000008000f314: 01 01 06 93 addi	a3, sp, 16
0x000000008000f318: 19 07 07 13 addi	a4, a4, 400
0x000000008000f31c: 00 d7 07 33 add	a4, a4, a3
0x000000008000f320: ff ff e7 b7 lui	a5, 1048574
0x000000008000f324: 00 f7 07 b3 add	a5, a4, a5
0x000000008000f328: d6 07 a4 23 sw	zero, -664(a5)
0x000000008000f32c: d6 07 a6 23 sw	zero, -660(a5)
0x000000008000f330: d6 87 a6 83 lw	a3, -664(a5)
0x000000008000f334: d6 c7 a7 03 lw	a4, -660(a5)
0x000000008000f338: 00 06 86 9b sext.w	a3, a3
0x000000008000f33c: 00 07 07 1b sext.w	a4, a4
0x000000008000f340: 08 d7 54 63 bge	a4, a3, 136
0x000000008000f3c8: 00 00 57 37 lui	a4, 5
0x000000008000f3cc: 01 01 06 93 addi	a3, sp, 16
0x000000008000f3d0: 19 07 07 13 addi	a4, a4, 400
0x000000008000f3d4: 00 d7 07 33 add	a4, a4, a3
0x000000008000f3d8: ff ff e7 b7 lui	a5, 1048574
0x000000008000f3dc: 00 f7 07 b3 add	a5, a4, a5
0x000000008000f3e0: d6 07 a8 23 sw	zero, -656(a5)
0x000000008000f3e4: 00 10 07 13 addi	a4, zero, 1
0x000000008000f3e8: d6 e7 aa 23 sw	a4, -652(a5)
0x000000008000f3ec: d7 07 a6 83 lw	a3, -656(a5)
0x000000008000f3f0: d7 47 a7 03 lw	a4, -652(a5)
0x000000008000f3f4: 00 06 86 9b sext.w	a3, a3
0x000000008000f3f8: 00 07 07 1b sext.w	a4, a4
0x000000008000f3fc: 08 d7 54 63 bge	a4, a3, 136
0x000000008000f484: 00 00 57 37 lui	a4, 5
0x000000008000f488: 01 01 06 93 addi	a3, sp, 16
0x000000008000f48c: 19 07 07 13 addi	a4, a4, 400
0x000000008000f490: 00 d7 07 33 add	a4, a4, a3
0x000000008000f494: ff ff e7 b7 lui	a5, 1048574
0x000000008000f498: 00 f7 07 b3 add	a5, a4, a5
0x000000008000f49c: d6 07 ac 23 sw	zero, -648(a5)
0x000000008000f4a0: 00 20 07 13 addi	a4, zero, 2
0x000000008000f4a4: d6 e7 ae 23 sw	a4, -644(a5)
0x000000008000f4a8: d7 87 a6 83 lw	a3, -648(a5)
0x000000008000f4ac: d7 c7 a7 03 lw	a4, -644(a5)
0x000000008000f4b0: 00 06 86 9b sext.w	a3, a3
0x000000008000f4b4: 00 07 07 1b sext.w	a4, a4
0x000000008000f4b8: 08 d7 54 63 bge	a4, a3, 136
0x000000008000f540: 00 00 57 37 lui	a4, 5
0x000000008000f544: 01 01 06 93 addi	a3, sp, 16
0x000000008000f548: 19 07 07 13 addi	a4, a4, 400
0x000000008000f54c: 00 d7 07 33 add	a4, a4, a3
0x000000008000f550: ff ff e7 b7 lui	a5, 1048574
0x000000008000f554: 00 f7 07 b3 add	a5, a4, a5
0x000000008000f558: 80 00 07 37 lui	a4, 524288
0x000000008000f55c: d8 07 a0 23 sw	zero, -640(a5)
0x000000008000f560: ff e7 47 13 xori	a4, a4, -2
0x000000008000f564: d8 e7 a2 23 sw	a4, -636(a5)
0x000000008000f568: d8 07 a6 83 lw	a3, -640(a5)
0x000000008000f56c: d8 47 a7 03 lw	a4, -636(a5)
0x000000008000f570: 00 06 86 9b sext.w	a3, a3
0x000000008000f574: 00 07 07 1b sext.w	a4, a4
0x000000008000f578: 08 d7 56 63 bge	a4, a3, 140
0x000000008000f604: 00 00 57 37 lui	a4, 5
0x000000008000f608: 01 01 06 93 addi	a3, sp, 16
0x000000008000f60c: 19 07 07 13 addi	a4, a4, 400
0x000000008000f610: 00 d7 07 33 add	a4, a4, a3
0x000000008000f614: ff ff e7 b7 lui	a5, 1048574
0x000000008000f618: 00 f7 07 b3 add	a5, a4, a5
0x000000008000f61c: 80 00 07 37 lui	a4, 524288
0x000000008000f620: d8 07 a4 23 sw	zero, -632(a5)
0x000000008000f624: ff f7 47 13 not	a4, a4
0x000000008000f628: d8 e7 a6 23 sw	a4, -628(a5)
0x000000008000f62c: d8 87 a6 83 lw	a3, -632(a5)
0x000000008000f630: d8 c7 a7 03 lw	a4, -628(a5)
0x000000008000f634: 00 06 86 9b sext.w	a3, a3
0x000000008000f638: 00 07 07 1b sext.w	a4, a4
0x000000008000f63c: 08 d7 56 63 bge	a4, a3, 140
0x000000008000f6c8: 00 00 57 37 lui	a4, 5
0x000000008000f6cc: 01 01 06 93 addi	a3, sp, 16
0x000000008000f6d0: 19 07 07 13 addi	a4, a4, 400
0x000000008000f6d4: 00 d7 07 33 add	a4, a4, a3
0x000000008000f6d8: ff ff e7 b7 lui	a5, 1048574
0x000000008000f6dc: 00 f7 07 b3 add	a5, a4, a5
0x000000008000f6e0: 00 10 07 13 addi	a4, zero, 1
0x000000008000f6e4: d8 e7 a8 23 sw	a4, -624(a5)
0x000000008000f6e8: d8 e7 aa 23 sw	a4, -620(a5)
0x000000008000f6ec: d9 07 a6 83 lw	a3, -624(a5)
0x000000008000f6f0: d9 47 a7 03 lw	a4, -620(a5)
0x000000008000f6f4: 00 06 86 9b sext.w	a3, a3
0x000000008000f6f8: 00 07 07 1b sext.w	a4, a4
0x000000008000f6fc: 08 d7 54 63 bge	a4, a3, 136
0x000000008000f784: 00 00 57 37 lui	a4, 5
0x000000008000f788: 01 01 06 93 addi	a3, sp, 16
0x000000008000f78c: 19 07 07 13 addi	a4, a4, 400
0x000000008000f790: 00 d7 07 33 add	a4, a4, a3
0x000000008000f794: ff ff e7 b7 lui	a5, 1048574
0x000000008000f798: 00 f7 07 b3 add	a5, a4, a5
0x000000008000f79c: 00 10 07 13 addi	a4, zero, 1
0x000000008000f7a0: d8 e7 ac 23 sw	a4, -616(a5)
0x000000008000f7a4: 00 20 07 13 addi	a4, zero, 2
0x000000008000f7a8: d8 e7 ae 23 sw	a4, -612(a5)
0x000000008000f7ac: d9 87 a6 83 lw	a3, -616(a5)
0x000000008000f7b0: d9 c7 a7 03 lw	a4, -612(a5)
0x000000008000f7b4: 00 06 86 9b sext.w	a3, a3
0x000000008000f7b8: 00 07 07 1b sext.w	a4, a4
0x000000008000f7bc: 08 d7 54 63 bge	a4, a3, 136
0x000000008000f844: 00 00 57 37 lui	a4, 5
0x000000008000f848: 01 01 06 93 addi	a3, sp, 16
0x000000008000f84c: 19 07 07 13 addi	a4, a4, 400
0x000000008000f850: 00 d7 07 33 add	a4, a4, a3
0x000000008000f854: ff ff e7 b7 lui	a5, 1048574
0x000000008000f858: 00 f7 07 b3 add	a5, a4, a5
0x000000008000f85c: 00 10 07 13 addi	a4, zero, 1
0x000000008000f860: da e7 a0 23 sw	a4, -608(a5)
0x000000008000f864: 80 00 07 37 lui	a4, 524288
0x000000008000f868: ff e7 47 13 xori	a4, a4, -2
0x000000008000f86c: da e7 a2 23 sw	a4, -604(a5)
0x000000008000f870: da 07 a6 83 lw	a3, -608(a5)
0x000000008000f874: da 47 a7 03 lw	a4, -604(a5)
0x000000008000f878: 00 06 86 9b sext.w	a3, a3
0x000000008000f87c: 00 07 07 1b sext.w	a4, a4
0x000000008000f880: 08 d7 56 63 bge	a4, a3, 140
0x000000008000f90c: 00 00 57 37 lui	a4, 5
0x000000008000f910: 01 01 06 93 addi	a3, sp, 16
0x000000008000f914: 19 07 07 13 addi	a4, a4, 400
0x000000008000f918: 00 d7 07 33 add	a4, a4, a3
0x000000008000f91c: ff ff e7 b7 lui	a5, 1048574
0x000000008000f920: 00 f7 07 b3 add	a5, a4, a5
0x000000008000f924: 00 10 07 13 addi	a4, zero, 1
0x000000008000f928: da e7 a4 23 sw	a4, -600(a5)
0x000000008000f92c: 80 00 07 37 lui	a4, 524288
0x000000008000f930: ff f7 47 13 not	a4, a4
0x000000008000f934: da e7 a6 23 sw	a4, -596(a5)
0x000000008000f938: da 87 a6 83 lw	a3, -600(a5)
0x000000008000f93c: da c7 a7 03 lw	a4, -596(a5)
0x000000008000f940: 00 06 86 9b sext.w	a3, a3
0x000000008000f944: 00 07 07 1b sext.w	a4, a4
0x000000008000f948: 08 d7 56 63 bge	a4, a3, 140
0x000000008000f9d4: 00 00 57 37 lui	a4, 5
0x000000008000f9d8: 01 01 06 93 addi	a3, sp, 16
0x000000008000f9dc: 19 07 07 13 addi	a4, a4, 400
0x000000008000f9e0: 00 d7 07 33 add	a4, a4, a3
0x000000008000f9e4: ff ff e7 b7 lui	a5, 1048574
0x000000008000f9e8: 00 f7 07 b3 add	a5, a4, a5
0x000000008000f9ec: 00 20 07 13 addi	a4, zero, 2
0x000000008000f9f0: da e7 a8 23 sw	a4, -592(a5)
0x000000008000f9f4: da e7 aa 23 sw	a4, -588(a5)
0x000000008000f9f8: db 07 a6 83 lw	a3, -592(a5)
0x000000008000f9fc: db 47 a7 03 lw	a4, -588(a5)
0x000000008000fa00: 00 06 86 9b sext.w	a3, a3
0x000000008000fa04: 00 07 07 1b sext.w	a4, a4
0x000000008000fa08: 08 d7 54 63 bge	a4, a3, 136
0x000000008000fa90: 00 00 57 37 lui	a4, 5
0x000000008000fa94: 01 01 06 93 addi	a3, sp, 16
0x000000008000fa98: 19 07 07 13 addi	a4, a4, 400
0x000000008000fa9c: 00 d7 07 33 add	a4, a4, a3
0x000000008000faa0: ff ff e7 b7 lui	a5, 1048574
0x000000008000faa4: 00 f7 07 b3 add	a5, a4, a5
0x000000008000faa8: 00 20 07 13 addi	a4, zero, 2
0x000000008000faac: da e7 ac 23 sw	a4, -584(a5)
0x000000008000fab0: 80 00 07 37 lui	a4, 524288
0x000000008000fab4: ff e7 47 13 xori	a4, a4, -2
0x000000008000fab8: da e7 ae 23 sw	a4, -580(a5)
0x000000008000fabc: db 87 a6 83 lw	a3, -584(a5)
0x000000008000fac0: db c7 a7 03 lw	a4, -580(a5)
0x000000008000fac4: 00 06 86 9b sext.w	a3, a3
0x000000008000fac8: 00 07 07 1b sext.w	a4, a4
0x000000008000facc: 08 d7 56 63 bge	a4, a3, 140
0x000000008000fb58: 00 00 57 37 lui	a4, 5
0x000000008000fb5c: 01 01 06 93 addi	a3, sp, 16
0x000000008000fb60: 19 07 07 13 addi	a4, a4, 400
0x000000008000fb64: 00 d7 07 33 add	a4, a4, a3
0x000000008000fb68: ff ff e7 b7 lui	a5, 1048574
0x000000008000fb6c: 00 f7 07 b3 add	a5, a4, a5
0x000000008000fb70: 00 20 07 13 addi	a4, zero, 2
0x000000008000fb74: dc e7 a0 23 sw	a4, -576(a5)
0x000000008000fb78: 80 00 07 37 lui	a4, 524288
0x000000008000fb7c: ff f7 47 13 not	a4, a4
0x000000008000fb80: dc e7 a2 23 sw	a4, -572(a5)
0x000000008000fb84: dc 07 a6 83 lw	a3, -576(a5)
0x000000008000fb88: dc 47 a7 03 lw	a4, -572(a5)
0x000000008000fb8c: 00 06 86 9b sext.w	a3, a3
0x000000008000fb90: 00 07 07 1b sext.w	a4, a4
0x000000008000fb94: 08 d7 56 63 bge	a4, a3, 140
0x000000008000fc20: 00 00 57 37 lui	a4, 5
0x000000008000fc24: 01 01 06 93 addi	a3, sp, 16
0x000000008000fc28: 19 07 07 13 addi	a4, a4, 400
0x000000008000fc2c: 00 d7 07 33 add	a4, a4, a3
0x000000008000fc30: ff ff e7 b7 lui	a5, 1048574
0x000000008000fc34: 00 f7 07 b3 add	a5, a4, a5
0x000000008000fc38: 80 00 07 37 lui	a4, 524288
0x000000008000fc3c: ff e7 47 13 xori	a4, a4, -2
0x000000008000fc40: dc e7 a4 23 sw	a4, -568(a5)
0x000000008000fc44: dc e7 a6 23 sw	a4, -564(a5)
0x000000008000fc48: dc 87 a6 83 lw	a3, -568(a5)
0x000000008000fc4c: dc c7 a7 03 lw	a4, -564(a5)
0x000000008000fc50: 00 06 86 9b sext.w	a3, a3
0x000000008000fc54: 00 07 07 1b sext.w	a4, a4
0x000000008000fc58: 08 d7 56 63 bge	a4, a3, 140
0x000000008000fce4: 00 00 56 b7 lui	a3, 5
0x000000008000fce8: 19 06 86 93 addi	a3, a3, 400
0x000000008000fcec: 01 01 06 13 addi	a2, sp, 16
0x000000008000fcf0: 80 00 07 37 lui	a4, 524288
0x000000008000fcf4: 00 c6 86 b3 add	a3, a3, a2
0x000000008000fcf8: ff ff e7 b7 lui	a5, 1048574
0x000000008000fcfc: 00 f6 87 b3 add	a5, a3, a5
0x000000008000fd00: ff e7 46 93 xori	a3, a4, -2
0x000000008000fd04: dc d7 a8 23 sw	a3, -560(a5)
0x000000008000fd08: ff f7 47 13 not	a4, a4
0x000000008000fd0c: dc e7 aa 23 sw	a4, -556(a5)
0x000000008000fd10: dd 07 a6 83 lw	a3, -560(a5)
0x000000008000fd14: dd 47 a7 03 lw	a4, -556(a5)
0x000000008000fd18: 00 06 86 9b sext.w	a3, a3
0x000000008000fd1c: 00 07 07 1b sext.w	a4, a4
0x000000008000fd20: 08 d7 56 63 bge	a4, a3, 140
0x000000008000fdac: 00 00 57 37 lui	a4, 5
0x000000008000fdb0: 01 01 06 93 addi	a3, sp, 16
0x000000008000fdb4: 19 07 07 13 addi	a4, a4, 400
0x000000008000fdb8: 00 d7 07 33 add	a4, a4, a3
0x000000008000fdbc: ff ff e7 b7 lui	a5, 1048574
0x000000008000fdc0: 00 f7 07 b3 add	a5, a4, a5
0x000000008000fdc4: 80 00 07 37 lui	a4, 524288
0x000000008000fdc8: ff f7 47 13 not	a4, a4
0x000000008000fdcc: dc e7 ac 23 sw	a4, -552(a5)
0x000000008000fdd0: dc e7 ae 23 sw	a4, -548(a5)
0x000000008000fdd4: dd 87 a6 83 lw	a3, -552(a5)
0x000000008000fdd8: dd c7 a7 03 lw	a4, -548(a5)
0x000000008000fddc: 00 06 86 9b sext.w	a3, a3
0x000000008000fde0: 00 07 07 1b sext.w	a4, a4
0x000000008000fde4: 08 d7 56 63 bge	a4, a3, 140
0x000000008000fe70: 00 00 57 37 lui	a4, 5
0x000000008000fe74: 01 01 06 93 addi	a3, sp, 16
0x000000008000fe78: 19 07 07 13 addi	a4, a4, 400
0x000000008000fe7c: 00 d7 07 33 add	a4, a4, a3
0x000000008000fe80: ff ff e7 b7 lui	a5, 1048574
0x000000008000fe84: 00 f7 07 b3 add	a5, a4, a5
0x000000008000fe88: 80 00 07 37 lui	a4, 524288
0x000000008000fe8c: de e7 a0 23 sw	a4, -544(a5)
0x000000008000fe90: de e7 a2 23 sw	a4, -540(a5)
0x000000008000fe94: de 07 a6 83 lw	a3, -544(a5)
0x000000008000fe98: de 47 a7 03 lw	a4, -540(a5)
0x000000008000fe9c: 00 06 86 9b sext.w	a3, a3
0x000000008000fea0: 00 07 07 1b sext.w	a4, a4
0x000000008000fea4: 08 e6 d4 63 bge	a3, a4, 136
0x000000008000ff2c: 00 00 57 37 lui	a4, 5
0x000000008000ff30: 01 01 06 93 addi	a3, sp, 16
0x000000008000ff34: 19 07 07 13 addi	a4, a4, 400
0x000000008000ff38: 00 d7 07 33 add	a4, a4, a3
0x000000008000ff3c: ff ff e7 b7 lui	a5, 1048574
0x000000008000ff40: 00 f7 07 b3 add	a5, a4, a5
0x000000008000ff44: 80 00 07 37 lui	a4, 524288
0x000000008000ff48: de e7 a4 23 sw	a4, -536(a5)
0x000000008000ff4c: 00 17 07 1b addiw	a4, a4, 1
0x000000008000ff50: de e7 a6 23 sw	a4, -532(a5)
0x000000008000ff54: de 87 a6 83 lw	a3, -536(a5)
0x000000008000ff58: de c7 a7 03 lw	a4, -532(a5)
0x000000008000ff5c: 00 06 86 9b sext.w	a3, a3
0x000000008000ff60: 00 07 07 1b sext.w	a4, a4
0x000000008000ff64: 08 e6 c6 63 blt	a3, a4, 140
0x000000008000fff0: 00 00 57 37 lui	a4, 5
0x000000008000fff4: 01 01 06 93 addi	a3, sp, 16
0x000000008000fff8: 19 07 07 13 addi	a4, a4, 400
0x000000008000fffc: 00 d7 07 33 add	a4, a4, a3
0x0000000080010000: ff ff e7 b7 lui	a5, 1048574
0x0000000080010004: 00 f7 07 b3 add	a5, a4, a5
0x0000000080010008: 80 00 07 37 lui	a4, 524288
0x000000008001000c: de e7 a8 23 sw	a4, -528(a5)
0x0000000080010010: ff e0 07 13 addi	a4, zero, -2
0x0000000080010014: de e7 aa 23 sw	a4, -524(a5)
0x0000000080010018: df 07 a6 83 lw	a3, -528(a5)
0x000000008001001c: df 47 a7 03 lw	a4, -524(a5)
0x0000000080010020: 00 06 86 9b sext.w	a3, a3
0x0000000080010024: 00 07 07 1b sext.w	a4, a4
0x0000000080010028: 08 e6 c4 63 blt	a3, a4, 136
0x00000000800100b0: 00 00 57 37 lui	a4, 5
0x00000000800100b4: 01 01 06 93 addi	a3, sp, 16
0x00000000800100b8: 19 07 07 13 addi	a4, a4, 400
0x00000000800100bc: 00 d7 07 33 add	a4, a4, a3
0x00000000800100c0: ff ff e7 b7 lui	a5, 1048574
0x00000000800100c4: 00 f7 07 b3 add	a5, a4, a5
0x00000000800100c8: 80 00 07 37 lui	a4, 524288
0x00000000800100cc: de e7 ac 23 sw	a4, -520(a5)
0x00000000800100d0: ff f0 07 13 addi	a4, zero, -1
0x00000000800100d4: de e7 ae 23 sw	a4, -516(a5)
0x00000000800100d8: df 87 a6 83 lw	a3, -520(a5)
0x00000000800100dc: df c7 a7 03 lw	a4, -516(a5)
0x00000000800100e0: 00 06 86 9b sext.w	a3, a3
0x00000000800100e4: 00 07 07 1b sext.w	a4, a4
0x00000000800100e8: 08 e6 c4 63 blt	a3, a4, 136
0x0000000080010170: 00 00 57 37 lui	a4, 5
0x0000000080010174: 01 01 06 93 addi	a3, sp, 16
0x0000000080010178: 19 07 07 13 addi	a4, a4, 400
0x000000008001017c: 00 d7 07 33 add	a4, a4, a3
0x0000000080010180: ff ff e7 b7 lui	a5, 1048574
0x0000000080010184: 00 f7 07 b3 add	a5, a4, a5
0x0000000080010188: 80 00 07 37 lui	a4, 524288
0x000000008001018c: e0 e7 a0 23 sw	a4, -512(a5)
0x0000000080010190: e0 07 a2 23 sw	zero, -508(a5)
0x0000000080010194: e0 07 a6 83 lw	a3, -512(a5)
0x0000000080010198: e0 47 a7 03 lw	a4, -508(a5)
0x000000008001019c: 00 06 86 9b sext.w	a3, a3
0x00000000800101a0: 00 07 07 1b sext.w	a4, a4
0x00000000800101a4: 08 e6 c4 63 blt	a3, a4, 136
0x000000008001022c: 00 00 57 37 lui	a4, 5
0x0000000080010230: 01 01 06 93 addi	a3, sp, 16
0x0000000080010234: 19 07 07 13 addi	a4, a4, 400
0x0000000080010238: 00 d7 07 33 add	a4, a4, a3
0x000000008001023c: ff ff e7 b7 lui	a5, 1048574
0x0000000080010240: 00 f7 07 b3 add	a5, a4, a5
0x0000000080010244: 80 00 07 37 lui	a4, 524288
0x0000000080010248: e0 e7 a4 23 sw	a4, -504(a5)
0x000000008001024c: 00 10 07 13 addi	a4, zero, 1
0x0000000080010250: e0 e7 a6 23 sw	a4, -500(a5)
0x0000000080010254: e0 87 a6 83 lw	a3, -504(a5)
0x0000000080010258: e0 c7 a7 03 lw	a4, -500(a5)
0x000000008001025c: 00 06 86 9b sext.w	a3, a3
0x0000000080010260: 00 07 07 1b sext.w	a4, a4
0x0000000080010264: 08 e6 c4 63 blt	a3, a4, 136
0x00000000800102ec: 00 00 57 37 lui	a4, 5
0x00000000800102f0: 01 01 06 93 addi	a3, sp, 16
0x00000000800102f4: 19 07 07 13 addi	a4, a4, 400
0x00000000800102f8: 00 d7 07 33 add	a4, a4, a3
0x00000000800102fc: ff ff e7 b7 lui	a5, 1048574
0x0000000080010300: 00 f7 07 b3 add	a5, a4, a5
0x0000000080010304: 80 00 07 37 lui	a4, 524288
0x0000000080010308: e0 e7 a8 23 sw	a4, -496(a5)
0x000000008001030c: 00 20 07 13 addi	a4, zero, 2
0x0000000080010310: e0 e7 aa 23 sw	a4, -492(a5)
0x0000000080010314: e1 07 a6 83 lw	a3, -496(a5)
0x0000000080010318: e1 47 a7 03 lw	a4, -492(a5)
0x000000008001031c: 00 06 86 9b sext.w	a3, a3
0x0000000080010320: 00 07 07 1b sext.w	a4, a4
0x0000000080010324: 08 e6 c4 63 blt	a3, a4, 136
0x00000000800103ac: 00 00 57 37 lui	a4, 5
0x00000000800103b0: 01 01 06 93 addi	a3, sp, 16
0x00000000800103b4: 19 07 07 13 addi	a4, a4, 400
0x00000000800103b8: 00 d7 07 33 add	a4, a4, a3
0x00000000800103bc: ff ff e7 b7 lui	a5, 1048574
0x00000000800103c0: 00 f7 07 b3 add	a5, a4, a5
0x00000000800103c4: 80 00 07 37 lui	a4, 524288
0x00000000800103c8: e0 e7 ac 23 sw	a4, -488(a5)
0x00000000800103cc: ff e7 47 13 xori	a4, a4, -2
0x00000000800103d0: e0 e7 ae 23 sw	a4, -484(a5)
0x00000000800103d4: e1 87 a6 83 lw	a3, -488(a5)
0x00000000800103d8: e1 c7 a7 03 lw	a4, -484(a5)
0x00000000800103dc: 00 06 86 9b sext.w	a3, a3
0x00000000800103e0: 00 07 07 1b sext.w	a4, a4
0x00000000800103e4: 08 e6 c6 63 blt	a3, a4, 140
0x0000000080010470: 00 00 57 37 lui	a4, 5
0x0000000080010474: 01 01 06 93 addi	a3, sp, 16
0x0000000080010478: 19 07 07 13 addi	a4, a4, 400
0x000000008001047c: 00 d7 07 33 add	a4, a4, a3
0x0000000080010480: ff ff e7 b7 lui	a5, 1048574
0x0000000080010484: 00 f7 07 b3 add	a5, a4, a5
0x0000000080010488: 80 00 07 37 lui	a4, 524288
0x000000008001048c: e2 e7 a0 23 sw	a4, -480(a5)
0x0000000080010490: ff f7 47 13 not	a4, a4
0x0000000080010494: e2 e7 a2 23 sw	a4, -476(a5)
0x0000000080010498: e2 07 a6 83 lw	a3, -480(a5)
0x000000008001049c: e2 47 a7 03 lw	a4, -476(a5)
0x00000000800104a0: 00 06 86 9b sext.w	a3, a3
0x00000000800104a4: 00 07 07 1b sext.w	a4, a4
0x00000000800104a8: 08 e6 c6 63 blt	a3, a4, 140
0x0000000080010534: 00 00 57 37 lui	a4, 5
0x0000000080010538: 01 01 06 93 addi	a3, sp, 16
0x000000008001053c: 19 07 07 13 addi	a4, a4, 400
0x0000000080010540: 00 d7 07 33 add	a4, a4, a3
0x0000000080010544: ff ff e7 b7 lui	a5, 1048574
0x0000000080010548: 00 f7 07 b3 add	a5, a4, a5
0x000000008001054c: 80 00 07 37 lui	a4, 524288
0x0000000080010550: 00 17 07 1b addiw	a4, a4, 1
0x0000000080010554: e2 e7 a4 23 sw	a4, -472(a5)
0x0000000080010558: e2 e7 a6 23 sw	a4, -468(a5)
0x000000008001055c: e2 87 a6 83 lw	a3, -472(a5)
0x0000000080010560: e2 c7 a7 03 lw	a4, -468(a5)
0x0000000080010564: 00 06 86 9b sext.w	a3, a3
0x0000000080010568: 00 07 07 1b sext.w	a4, a4
0x000000008001056c: 08 e6 d6 63 bge	a3, a4, 140
0x00000000800105f8: 00 00 57 37 lui	a4, 5
0x00000000800105fc: 01 01 06 93 addi	a3, sp, 16
0x0000000080010600: 19 07 07 13 addi	a4, a4, 400
0x0000000080010604: 00 d7 07 33 add	a4, a4, a3
0x0000000080010608: ff ff e7 b7 lui	a5, 1048574
0x000000008001060c: 00 f7 07 b3 add	a5, a4, a5
0x0000000080010610: 80 00 07 37 lui	a4, 524288
0x0000000080010614: 00 17 07 1b addiw	a4, a4, 1
0x0000000080010618: e2 e7 a8 23 sw	a4, -464(a5)
0x000000008001061c: ff e0 07 13 addi	a4, zero, -2
0x0000000080010620: e2 e7 aa 23 sw	a4, -460(a5)
0x0000000080010624: e3 07 a6 83 lw	a3, -464(a5)
0x0000000080010628: e3 47 a7 03 lw	a4, -460(a5)
0x000000008001062c: 00 06 86 9b sext.w	a3, a3
0x0000000080010630: 00 07 07 1b sext.w	a4, a4
0x0000000080010634: 08 e6 c6 63 blt	a3, a4, 140
0x00000000800106c0: 00 00 57 37 lui	a4, 5
0x00000000800106c4: 01 01 06 93 addi	a3, sp, 16
0x00000000800106c8: 19 07 07 13 addi	a4, a4, 400
0x00000000800106cc: 00 d7 07 33 add	a4, a4, a3
0x00000000800106d0: ff ff e7 b7 lui	a5, 1048574
0x00000000800106d4: 00 f7 07 b3 add	a5, a4, a5
0x00000000800106d8: 80 00 07 37 lui	a4, 524288
0x00000000800106dc: 00 17 07 1b addiw	a4, a4, 1
0x00000000800106e0: e2 e7 ac 23 sw	a4, -456(a5)
0x00000000800106e4: ff f0 07 13 addi	a4, zero, -1
0x00000000800106e8: e2 e7 ae 23 sw	a4, -452(a5)
0x00000000800106ec: e3 87 a6 83 lw	a3, -456(a5)
0x00000000800106f0: e3 c7 a7 03 lw	a4, -452(a5)
0x00000000800106f4: 00 06 86 9b sext.w	a3, a3
0x00000000800106f8: 00 07 07 1b sext.w	a4, a4
0x00000000800106fc: 08 e6 c6 63 blt	a3, a4, 140
0x0000000080010788: 00 00 57 37 lui	a4, 5
0x000000008001078c: 01 01 06 93 addi	a3, sp, 16
0x0000000080010790: 19 07 07 13 addi	a4, a4, 400
0x0000000080010794: 00 d7 07 33 add	a4, a4, a3
0x0000000080010798: ff ff e7 b7 lui	a5, 1048574
0x000000008001079c: 00 f7 07 b3 add	a5, a4, a5
0x00000000800107a0: 80 00 07 37 lui	a4, 524288
0x00000000800107a4: 00 17 07 1b addiw	a4, a4, 1
0x00000000800107a8: e4 e7 a0 23 sw	a4, -448(a5)
0x00000000800107ac: e4 07 a2 23 sw	zero, -444(a5)
0x00000000800107b0: e4 07 a6 83 lw	a3, -448(a5)
0x00000000800107b4: e4 47 a7 03 lw	a4, -444(a5)
0x00000000800107b8: 00 06 86 9b sext.w	a3, a3
0x00000000800107bc: 00 07 07 1b sext.w	a4, a4
0x00000000800107c0: 08 e6 c6 63 blt	a3, a4, 140
0x000000008001084c: 00 00 57 37 lui	a4, 5
0x0000000080010850: 01 01 06 93 addi	a3, sp, 16
0x0000000080010854: 19 07 07 13 addi	a4, a4, 400
0x0000000080010858: 00 d7 07 33 add	a4, a4, a3
0x000000008001085c: ff ff e7 b7 lui	a5, 1048574
0x0000000080010860: 00 f7 07 b3 add	a5, a4, a5
0x0000000080010864: 80 00 07 37 lui	a4, 524288
0x0000000080010868: 00 17 07 1b addiw	a4, a4, 1
0x000000008001086c: e4 e7 a4 23 sw	a4, -440(a5)
0x0000000080010870: 00 10 07 13 addi	a4, zero, 1
0x0000000080010874: e4 e7 a6 23 sw	a4, -436(a5)
0x0000000080010878: e4 87 a6 83 lw	a3, -440(a5)
0x000000008001087c: e4 c7 a7 03 lw	a4, -436(a5)
0x0000000080010880: 00 06 86 9b sext.w	a3, a3
0x0000000080010884: 00 07 07 1b sext.w	a4, a4
0x0000000080010888: 08 e6 c8 63 blt	a3, a4, 144
0x0000000080010918: 00 00 57 37 lui	a4, 5
0x000000008001091c: 01 01 06 93 addi	a3, sp, 16
0x0000000080010920: 19 07 07 13 addi	a4, a4, 400
0x0000000080010924: 00 d7 07 33 add	a4, a4, a3
0x0000000080010928: ff ff e7 b7 lui	a5, 1048574
0x000000008001092c: 00 f7 07 b3 add	a5, a4, a5
0x0000000080010930: 80 00 07 37 lui	a4, 524288
0x0000000080010934: 00 17 07 1b addiw	a4, a4, 1
0x0000000080010938: e4 e7 a8 23 sw	a4, -432(a5)
0x000000008001093c: 00 20 07 13 addi	a4, zero, 2
0x0000000080010940: e4 e7 aa 23 sw	a4, -428(a5)
0x0000000080010944: e5 07 a6 83 lw	a3, -432(a5)
0x0000000080010948: e5 47 a7 03 lw	a4, -428(a5)
0x000000008001094c: 00 06 86 9b sext.w	a3, a3
0x0000000080010950: 00 07 07 1b sext.w	a4, a4
0x0000000080010954: 08 e6 c8 63 blt	a3, a4, 144
0x00000000800109e4: 00 00 56 b7 lui	a3, 5
0x00000000800109e8: 19 06 86 93 addi	a3, a3, 400
0x00000000800109ec: 01 01 06 13 addi	a2, sp, 16
0x00000000800109f0: 80 00 07 37 lui	a4, 524288
0x00000000800109f4: 00 c6 86 b3 add	a3, a3, a2
0x00000000800109f8: ff ff e7 b7 lui	a5, 1048574
0x00000000800109fc: 00 f6 87 b3 add	a5, a3, a5
0x0000000080010a00: 00 17 06 9b addiw	a3, a4, 1
0x0000000080010a04: e4 d7 ac 23 sw	a3, -424(a5)
0x0000000080010a08: ff e7 47 13 xori	a4, a4, -2
0x0000000080010a0c: e4 e7 ae 23 sw	a4, -420(a5)
0x0000000080010a10: e5 87 a6 83 lw	a3, -424(a5)
0x0000000080010a14: e5 c7 a7 03 lw	a4, -420(a5)
0x0000000080010a18: 00 06 86 9b sext.w	a3, a3
0x0000000080010a1c: 00 07 07 1b sext.w	a4, a4
0x0000000080010a20: 08 e6 c8 63 blt	a3, a4, 144
0x0000000080010ab0: 00 00 56 b7 lui	a3, 5
0x0000000080010ab4: 19 06 86 93 addi	a3, a3, 400
0x0000000080010ab8: 01 01 06 13 addi	a2, sp, 16
0x0000000080010abc: 80 00 07 37 lui	a4, 524288
0x0000000080010ac0: 00 c6 86 b3 add	a3, a3, a2
0x0000000080010ac4: ff ff e7 b7 lui	a5, 1048574
0x0000000080010ac8: 00 f6 87 b3 add	a5, a3, a5
0x0000000080010acc: 00 17 06 9b addiw	a3, a4, 1
0x0000000080010ad0: e6 d7 a0 23 sw	a3, -416(a5)
0x0000000080010ad4: ff f7 47 13 not	a4, a4
0x0000000080010ad8: e6 e7 a2 23 sw	a4, -412(a5)
0x0000000080010adc: e6 07 a6 83 lw	a3, -416(a5)
0x0000000080010ae0: e6 47 a7 03 lw	a4, -412(a5)
0x0000000080010ae4: 00 06 86 9b sext.w	a3, a3
0x0000000080010ae8: 00 07 07 1b sext.w	a4, a4
0x0000000080010aec: 08 e6 c8 63 blt	a3, a4, 144
0x0000000080010b7c: 00 00 57 37 lui	a4, 5
0x0000000080010b80: 01 01 06 93 addi	a3, sp, 16
0x0000000080010b84: 19 07 07 13 addi	a4, a4, 400
0x0000000080010b88: 00 d7 07 33 add	a4, a4, a3
0x0000000080010b8c: ff ff e7 b7 lui	a5, 1048574
0x0000000080010b90: 00 f7 07 b3 add	a5, a4, a5
0x0000000080010b94: ff e0 07 13 addi	a4, zero, -2
0x0000000080010b98: e6 e7 a4 23 sw	a4, -408(a5)
0x0000000080010b9c: e6 e7 a6 23 sw	a4, -404(a5)
0x0000000080010ba0: e6 87 a6 83 lw	a3, -408(a5)
0x0000000080010ba4: e6 c7 a7 03 lw	a4, -404(a5)
0x0000000080010ba8: 00 06 86 9b sext.w	a3, a3
0x0000000080010bac: 00 07 07 1b sext.w	a4, a4
0x0000000080010bb0: 08 e6 d6 63 bge	a3, a4, 140
0x0000000080010c3c: 00 00 57 37 lui	a4, 5
0x0000000080010c40: 01 01 06 93 addi	a3, sp, 16
0x0000000080010c44: 19 07 07 13 addi	a4, a4, 400
0x0000000080010c48: 00 d7 07 33 add	a4, a4, a3
0x0000000080010c4c: ff ff e7 b7 lui	a5, 1048574
0x0000000080010c50: 00 f7 07 b3 add	a5, a4, a5
0x0000000080010c54: ff e0 07 13 addi	a4, zero, -2
0x0000000080010c58: e6 e7 a8 23 sw	a4, -400(a5)
0x0000000080010c5c: ff f0 07 13 addi	a4, zero, -1
0x0000000080010c60: e6 e7 aa 23 sw	a4, -396(a5)
0x0000000080010c64: e7 07 a6 83 lw	a3, -400(a5)
0x0000000080010c68: e7 47 a7 03 lw	a4, -396(a5)
0x0000000080010c6c: 00 06 86 9b sext.w	a3, a3
0x0000000080010c70: 00 07 07 1b sext.w	a4, a4
0x0000000080010c74: 08 e6 c6 63 blt	a3, a4, 140
0x0000000080010d00: 00 00 57 37 lui	a4, 5
0x0000000080010d04: 01 01 06 93 addi	a3, sp, 16
0x0000000080010d08: 19 07 07 13 addi	a4, a4, 400
0x0000000080010d0c: 00 d7 07 33 add	a4, a4, a3
0x0000000080010d10: ff ff e7 b7 lui	a5, 1048574
0x0000000080010d14: 00 f7 07 b3 add	a5, a4, a5
0x0000000080010d18: ff e0 07 13 addi	a4, zero, -2
0x0000000080010d1c: e6 e7 ac 23 sw	a4, -392(a5)
0x0000000080010d20: e6 07 ae 23 sw	zero, -388(a5)
0x0000000080010d24: e7 87 a6 83 lw	a3, -392(a5)
0x0000000080010d28: e7 c7 a7 03 lw	a4, -388(a5)
0x0000000080010d2c: 00 06 86 9b sext.w	a3, a3
0x0000000080010d30: 00 07 07 1b sext.w	a4, a4
0x0000000080010d34: 08 e6 c6 63 blt	a3, a4, 140
0x0000000080010dc0: 00 00 57 37 lui	a4, 5
0x0000000080010dc4: 01 01 06 93 addi	a3, sp, 16
0x0000000080010dc8: 19 07 07 13 addi	a4, a4, 400
0x0000000080010dcc: 00 d7 07 33 add	a4, a4, a3
0x0000000080010dd0: ff ff e7 b7 lui	a5, 1048574
0x0000000080010dd4: 00 f7 07 b3 add	a5, a4, a5
0x0000000080010dd8: ff e0 07 13 addi	a4, zero, -2
0x0000000080010ddc: e8 e7 a0 23 sw	a4, -384(a5)
0x0000000080010de0: 00 10 07 13 addi	a4, zero, 1
0x0000000080010de4: e8 e7 a2 23 sw	a4, -380(a5)
0x0000000080010de8: e8 07 a6 83 lw	a3, -384(a5)
0x0000000080010dec: e8 47 a7 03 lw	a4, -380(a5)
0x0000000080010df0: 00 06 86 9b sext.w	a3, a3
0x0000000080010df4: 00 07 07 1b sext.w	a4, a4
0x0000000080010df8: 08 e6 c6 63 blt	a3, a4, 140
0x0000000080010e84: 00 00 57 37 lui	a4, 5
0x0000000080010e88: 01 01 06 93 addi	a3, sp, 16
0x0000000080010e8c: 19 07 07 13 addi	a4, a4, 400
0x0000000080010e90: 00 d7 07 33 add	a4, a4, a3
0x0000000080010e94: ff ff e7 b7 lui	a5, 1048574
0x0000000080010e98: 00 f7 07 b3 add	a5, a4, a5
0x0000000080010e9c: ff e0 07 13 addi	a4, zero, -2
0x0000000080010ea0: e8 e7 a4 23 sw	a4, -376(a5)
0x0000000080010ea4: 00 20 07 13 addi	a4, zero, 2
0x0000000080010ea8: e8 e7 a6 23 sw	a4, -372(a5)
0x0000000080010eac: e8 87 a6 83 lw	a3, -376(a5)
0x0000000080010eb0: e8 c7 a7 03 lw	a4, -372(a5)
0x0000000080010eb4: 00 06 86 9b sext.w	a3, a3
0x0000000080010eb8: 00 07 07 1b sext.w	a4, a4
0x0000000080010ebc: 08 e6 c6 63 blt	a3, a4, 140
0x0000000080010f48: 00 00 57 37 lui	a4, 5
0x0000000080010f4c: 01 01 06 93 addi	a3, sp, 16
0x0000000080010f50: 19 07 07 13 addi	a4, a4, 400
0x0000000080010f54: 00 d7 07 33 add	a4, a4, a3
0x0000000080010f58: ff ff e7 b7 lui	a5, 1048574
0x0000000080010f5c: 00 f7 07 b3 add	a5, a4, a5
0x0000000080010f60: ff e0 07 13 addi	a4, zero, -2
0x0000000080010f64: e8 e7 a8 23 sw	a4, -368(a5)
0x0000000080010f68: 80 00 07 37 lui	a4, 524288
0x0000000080010f6c: ff e7 47 13 xori	a4, a4, -2
0x0000000080010f70: e8 e7 aa 23 sw	a4, -364(a5)
0x0000000080010f74: e9 07 a6 83 lw	a3, -368(a5)
0x0000000080010f78: e9 47 a7 03 lw	a4, -364(a5)
0x0000000080010f7c: 00 06 86 9b sext.w	a3, a3
0x0000000080010f80: 00 07 07 1b sext.w	a4, a4
0x0000000080010f84: 08 e6 c8 63 blt	a3, a4, 144
0x0000000080011014: 00 00 57 37 lui	a4, 5
0x0000000080011018: 01 01 06 93 addi	a3, sp, 16
0x000000008001101c: 19 07 07 13 addi	a4, a4, 400
0x0000000080011020: 00 d7 07 33 add	a4, a4, a3
0x0000000080011024: ff ff e7 b7 lui	a5, 1048574
0x0000000080011028: 00 f7 07 b3 add	a5, a4, a5
0x000000008001102c: ff e0 07 13 addi	a4, zero, -2
0x0000000080011030: e8 e7 ac 23 sw	a4, -360(a5)
0x0000000080011034: 80 00 07 37 lui	a4, 524288
0x0000000080011038: ff f7 47 13 not	a4, a4
0x000000008001103c: e8 e7 ae 23 sw	a4, -356(a5)
0x0000000080011040: e9 87 a6 83 lw	a3, -360(a5)
0x0000000080011044: e9 c7 a7 03 lw	a4, -356(a5)
0x0000000080011048: 00 06 86 9b sext.w	a3, a3
0x000000008001104c: 00 07 07 1b sext.w	a4, a4
0x0000000080011050: 08 e6 c8 63 blt	a3, a4, 144
0x00000000800110e0: 00 00 57 37 lui	a4, 5
0x00000000800110e4: 01 01 06 93 addi	a3, sp, 16
0x00000000800110e8: 19 07 07 13 addi	a4, a4, 400
0x00000000800110ec: 00 d7 07 33 add	a4, a4, a3
0x00000000800110f0: ff ff e7 b7 lui	a5, 1048574
0x00000000800110f4: 00 f7 07 b3 add	a5, a4, a5
0x00000000800110f8: ff f0 07 13 addi	a4, zero, -1
0x00000000800110fc: ea e7 a0 23 sw	a4, -352(a5)
0x0000000080011100: ea e7 a2 23 sw	a4, -348(a5)
0x0000000080011104: ea 07 a6 83 lw	a3, -352(a5)
0x0000000080011108: ea 47 a7 03 lw	a4, -348(a5)
0x000000008001110c: 00 06 86 9b sext.w	a3, a3
0x0000000080011110: 00 07 07 1b sext.w	a4, a4
0x0000000080011114: 08 e6 d6 63 bge	a3, a4, 140
0x00000000800111a0: 00 00 57 37 lui	a4, 5
0x00000000800111a4: 01 01 06 93 addi	a3, sp, 16
0x00000000800111a8: 19 07 07 13 addi	a4, a4, 400
0x00000000800111ac: 00 d7 07 33 add	a4, a4, a3
0x00000000800111b0: ff ff e7 b7 lui	a5, 1048574
0x00000000800111b4: 00 f7 07 b3 add	a5, a4, a5
0x00000000800111b8: ff f0 07 13 addi	a4, zero, -1
0x00000000800111bc: ea e7 a4 23 sw	a4, -344(a5)
0x00000000800111c0: ea 07 a6 23 sw	zero, -340(a5)
0x00000000800111c4: ea 87 a6 83 lw	a3, -344(a5)
0x00000000800111c8: ea c7 a7 03 lw	a4, -340(a5)
0x00000000800111cc: 00 06 86 9b sext.w	a3, a3
0x00000000800111d0: 00 07 07 1b sext.w	a4, a4
0x00000000800111d4: 08 e6 c6 63 blt	a3, a4, 140
0x0000000080011260: 00 00 57 37 lui	a4, 5
0x0000000080011264: 01 01 06 93 addi	a3, sp, 16
0x0000000080011268: 19 07 07 13 addi	a4, a4, 400
0x000000008001126c: 00 d7 07 33 add	a4, a4, a3
0x0000000080011270: ff ff e7 b7 lui	a5, 1048574
0x0000000080011274: 00 f7 07 b3 add	a5, a4, a5
0x0000000080011278: ff f0 07 13 addi	a4, zero, -1
0x000000008001127c: ea e7 a8 23 sw	a4, -336(a5)
0x0000000080011280: 00 10 07 13 addi	a4, zero, 1
0x0000000080011284: ea e7 aa 23 sw	a4, -332(a5)
0x0000000080011288: eb 07 a6 83 lw	a3, -336(a5)
0x000000008001128c: eb 47 a7 03 lw	a4, -332(a5)
0x0000000080011290: 00 06 86 9b sext.w	a3, a3
0x0000000080011294: 00 07 07 1b sext.w	a4, a4
0x0000000080011298: 08 e6 c6 63 blt	a3, a4, 140
0x0000000080011324: 00 00 57 37 lui	a4, 5
0x0000000080011328: 01 01 06 93 addi	a3, sp, 16
0x000000008001132c: 19 07 07 13 addi	a4, a4, 400
0x0000000080011330: 00 d7 07 33 add	a4, a4, a3
0x0000000080011334: ff ff e7 b7 lui	a5, 1048574
0x0000000080011338: 00 f7 07 b3 add	a5, a4, a5
0x000000008001133c: ff f0 07 13 addi	a4, zero, -1
0x0000000080011340: ea e7 ac 23 sw	a4, -328(a5)
0x0000000080011344: 00 20 07 13 addi	a4, zero, 2
0x0000000080011348: ea e7 ae 23 sw	a4, -324(a5)
0x000000008001134c: eb 87 a6 83 lw	a3, -328(a5)
0x0000000080011350: eb c7 a7 03 lw	a4, -324(a5)
0x0000000080011354: 00 06 86 9b sext.w	a3, a3
0x0000000080011358: 00 07 07 1b sext.w	a4, a4
0x000000008001135c: 08 e6 c6 63 blt	a3, a4, 140
0x00000000800113e8: 00 00 57 37 lui	a4, 5
0x00000000800113ec: 01 01 06 93 addi	a3, sp, 16
0x00000000800113f0: 19 07 07 13 addi	a4, a4, 400
0x00000000800113f4: 00 d7 07 33 add	a4, a4, a3
0x00000000800113f8: ff ff e7 b7 lui	a5, 1048574
0x00000000800113fc: 00 f7 07 b3 add	a5, a4, a5
0x0000000080011400: ff f0 07 13 addi	a4, zero, -1
0x0000000080011404: ec e7 a0 23 sw	a4, -320(a5)
0x0000000080011408: 80 00 07 37 lui	a4, 524288
0x000000008001140c: ff e7 47 13 xori	a4, a4, -2
0x0000000080011410: ec e7 a2 23 sw	a4, -316(a5)
0x0000000080011414: ec 07 a6 83 lw	a3, -320(a5)
0x0000000080011418: ec 47 a7 03 lw	a4, -316(a5)
0x000000008001141c: 00 06 86 9b sext.w	a3, a3
0x0000000080011420: 00 07 07 1b sext.w	a4, a4
0x0000000080011424: 08 e6 c8 63 blt	a3, a4, 144
0x00000000800114b4: 00 00 57 37 lui	a4, 5
0x00000000800114b8: 01 01 06 93 addi	a3, sp, 16
0x00000000800114bc: 19 07 07 13 addi	a4, a4, 400
0x00000000800114c0: 00 d7 07 33 add	a4, a4, a3
0x00000000800114c4: ff ff e7 b7 lui	a5, 1048574
0x00000000800114c8: 00 f7 07 b3 add	a5, a4, a5
0x00000000800114cc: ff f0 07 13 addi	a4, zero, -1
0x00000000800114d0: ec e7 a4 23 sw	a4, -312(a5)
0x00000000800114d4: 80 00 07 37 lui	a4, 524288
0x00000000800114d8: ff f7 47 13 not	a4, a4
0x00000000800114dc: ec e7 a6 23 sw	a4, -308(a5)
0x00000000800114e0: ec 87 a6 83 lw	a3, -312(a5)
0x00000000800114e4: ec c7 a7 03 lw	a4, -308(a5)
0x00000000800114e8: 00 06 86 9b sext.w	a3, a3
0x00000000800114ec: 00 07 07 1b sext.w	a4, a4
0x00000000800114f0: 08 e6 c8 63 blt	a3, a4, 144
0x0000000080011580: 00 00 57 37 lui	a4, 5
0x0000000080011584: 01 01 06 93 addi	a3, sp, 16
0x0000000080011588: 19 07 07 13 addi	a4, a4, 400
0x000000008001158c: 00 d7 07 33 add	a4, a4, a3
0x0000000080011590: ff ff e7 b7 lui	a5, 1048574
0x0000000080011594: 00 f7 07 b3 add	a5, a4, a5
0x0000000080011598: ec 07 a8 23 sw	zero, -304(a5)
0x000000008001159c: ec 07 aa 23 sw	zero, -300(a5)
0x00000000800115a0: ed 07 a6 83 lw	a3, -304(a5)
0x00000000800115a4: ed 47 a7 03 lw	a4, -300(a5)
0x00000000800115a8: 00 06 86 9b sext.w	a3, a3
0x00000000800115ac: 00 07 07 1b sext.w	a4, a4
0x00000000800115b0: 08 e6 d6 63 bge	a3, a4, 140
0x000000008001163c: 00 00 57 37 lui	a4, 5
0x0000000080011640: 01 01 06 93 addi	a3, sp, 16
0x0000000080011644: 19 07 07 13 addi	a4, a4, 400
0x0000000080011648: 00 d7 07 33 add	a4, a4, a3
0x000000008001164c: ff ff e7 b7 lui	a5, 1048574
0x0000000080011650: 00 f7 07 b3 add	a5, a4, a5
0x0000000080011654: ec 07 ac 23 sw	zero, -296(a5)
0x0000000080011658: 00 10 07 13 addi	a4, zero, 1
0x000000008001165c: ec e7 ae 23 sw	a4, -292(a5)
0x0000000080011660: ed 87 a6 83 lw	a3, -296(a5)
0x0000000080011664: ed c7 a7 03 lw	a4, -292(a5)
0x0000000080011668: 00 06 86 9b sext.w	a3, a3
0x000000008001166c: 00 07 07 1b sext.w	a4, a4
0x0000000080011670: 08 e6 c6 63 blt	a3, a4, 140
0x00000000800116fc: 00 00 57 37 lui	a4, 5
0x0000000080011700: 01 01 06 93 addi	a3, sp, 16
0x0000000080011704: 19 07 07 13 addi	a4, a4, 400
0x0000000080011708: 00 d7 07 33 add	a4, a4, a3
0x000000008001170c: ff ff e7 b7 lui	a5, 1048574
0x0000000080011710: 00 f7 07 b3 add	a5, a4, a5
0x0000000080011714: ee 07 a0 23 sw	zero, -288(a5)
0x0000000080011718: 00 20 07 13 addi	a4, zero, 2
0x000000008001171c: ee e7 a2 23 sw	a4, -284(a5)
0x0000000080011720: ee 07 a6 83 lw	a3, -288(a5)
0x0000000080011724: ee 47 a7 03 lw	a4, -284(a5)
0x0000000080011728: 00 06 86 9b sext.w	a3, a3
0x000000008001172c: 00 07 07 1b sext.w	a4, a4
0x0000000080011730: 08 e6 c6 63 blt	a3, a4, 140
0x00000000800117bc: 00 00 57 37 lui	a4, 5
0x00000000800117c0: 01 01 06 93 addi	a3, sp, 16
0x00000000800117c4: 19 07 07 13 addi	a4, a4, 400
0x00000000800117c8: 00 d7 07 33 add	a4, a4, a3
0x00000000800117cc: ff ff e7 b7 lui	a5, 1048574
0x00000000800117d0: 00 f7 07 b3 add	a5, a4, a5
0x00000000800117d4: 80 00 07 37 lui	a4, 524288
0x00000000800117d8: ee 07 a4 23 sw	zero, -280(a5)
0x00000000800117dc: ff e7 47 13 xori	a4, a4, -2
0x00000000800117e0: ee e7 a6 23 sw	a4, -276(a5)
0x00000000800117e4: ee 87 a6 83 lw	a3, -280(a5)
0x00000000800117e8: ee c7 a7 03 lw	a4, -276(a5)
0x00000000800117ec: 00 06 86 9b sext.w	a3, a3
0x00000000800117f0: 00 07 07 1b sext.w	a4, a4
0x00000000800117f4: 08 e6 c8 63 blt	a3, a4, 144
0x0000000080011884: 00 00 57 37 lui	a4, 5
0x0000000080011888: 01 01 06 93 addi	a3, sp, 16
0x000000008001188c: 19 07 07 13 addi	a4, a4, 400
0x0000000080011890: 00 d7 07 33 add	a4, a4, a3
0x0000000080011894: ff ff e7 b7 lui	a5, 1048574
0x0000000080011898: 00 f7 07 b3 add	a5, a4, a5
0x000000008001189c: 80 00 07 37 lui	a4, 524288
0x00000000800118a0: ee 07 a8 23 sw	zero, -272(a5)
0x00000000800118a4: ff f7 47 13 not	a4, a4
0x00000000800118a8: ee e7 aa 23 sw	a4, -268(a5)
0x00000000800118ac: ef 07 a6 83 lw	a3, -272(a5)
0x00000000800118b0: ef 47 a7 03 lw	a4, -268(a5)
0x00000000800118b4: 00 06 86 9b sext.w	a3, a3
0x00000000800118b8: 00 07 07 1b sext.w	a4, a4
0x00000000800118bc: 08 e6 c8 63 blt	a3, a4, 144
0x000000008001194c: 00 00 57 37 lui	a4, 5
0x0000000080011950: 01 01 06 93 addi	a3, sp, 16
0x0000000080011954: 19 07 07 13 addi	a4, a4, 400
0x0000000080011958: 00 d7 07 33 add	a4, a4, a3
0x000000008001195c: ff ff e7 b7 lui	a5, 1048574
0x0000000080011960: 00 f7 07 b3 add	a5, a4, a5
0x0000000080011964: 00 10 07 13 addi	a4, zero, 1
0x0000000080011968: ee e7 ac 23 sw	a4, -264(a5)
0x000000008001196c: ee e7 ae 23 sw	a4, -260(a5)
0x0000000080011970: ef 87 a6 83 lw	a3, -264(a5)
0x0000000080011974: ef c7 a7 03 lw	a4, -260(a5)
0x0000000080011978: 00 06 86 9b sext.w	a3, a3
0x000000008001197c: 00 07 07 1b sext.w	a4, a4
0x0000000080011980: 08 e6 d6 63 bge	a3, a4, 140
0x0000000080011a0c: 00 00 57 37 lui	a4, 5
0x0000000080011a10: 01 01 06 93 addi	a3, sp, 16
0x0000000080011a14: 19 07 07 13 addi	a4, a4, 400
0x0000000080011a18: 00 d7 07 33 add	a4, a4, a3
0x0000000080011a1c: ff ff e7 b7 lui	a5, 1048574
0x0000000080011a20: 00 f7 07 b3 add	a5, a4, a5
0x0000000080011a24: 00 10 07 13 addi	a4, zero, 1
0x0000000080011a28: f0 e7 a0 23 sw	a4, -256(a5)
0x0000000080011a2c: 00 20 07 13 addi	a4, zero, 2
0x0000000080011a30: f0 e7 a2 23 sw	a4, -252(a5)
0x0000000080011a34: f0 07 a6 83 lw	a3, -256(a5)
0x0000000080011a38: f0 47 a7 03 lw	a4, -252(a5)
0x0000000080011a3c: 00 06 86 9b sext.w	a3, a3
0x0000000080011a40: 00 07 07 1b sext.w	a4, a4
0x0000000080011a44: 08 e6 c6 63 blt	a3, a4, 140
0x0000000080011ad0: 00 00 57 37 lui	a4, 5
0x0000000080011ad4: 01 01 06 93 addi	a3, sp, 16
0x0000000080011ad8: 19 07 07 13 addi	a4, a4, 400
0x0000000080011adc: 00 d7 07 33 add	a4, a4, a3
0x0000000080011ae0: ff ff e7 b7 lui	a5, 1048574
0x0000000080011ae4: 00 f7 07 b3 add	a5, a4, a5
0x0000000080011ae8: 00 10 07 13 addi	a4, zero, 1
0x0000000080011aec: f0 e7 a4 23 sw	a4, -248(a5)
0x0000000080011af0: 80 00 07 37 lui	a4, 524288
0x0000000080011af4: ff e7 47 13 xori	a4, a4, -2
0x0000000080011af8: f0 e7 a6 23 sw	a4, -244(a5)
0x0000000080011afc: f0 87 a6 83 lw	a3, -248(a5)
0x0000000080011b00: f0 c7 a7 03 lw	a4, -244(a5)
0x0000000080011b04: 00 06 86 9b sext.w	a3, a3
0x0000000080011b08: 00 07 07 1b sext.w	a4, a4
0x0000000080011b0c: 08 e6 c8 63 blt	a3, a4, 144
0x0000000080011b9c: 00 00 57 37 lui	a4, 5
0x0000000080011ba0: 01 01 06 93 addi	a3, sp, 16
0x0000000080011ba4: 19 07 07 13 addi	a4, a4, 400
0x0000000080011ba8: 00 d7 07 33 add	a4, a4, a3
0x0000000080011bac: ff ff e7 b7 lui	a5, 1048574
0x0000000080011bb0: 00 f7 07 b3 add	a5, a4, a5
0x0000000080011bb4: 00 10 07 13 addi	a4, zero, 1
0x0000000080011bb8: f0 e7 a8 23 sw	a4, -240(a5)
0x0000000080011bbc: 80 00 07 37 lui	a4, 524288
0x0000000080011bc0: ff f7 47 13 not	a4, a4
0x0000000080011bc4: f0 e7 aa 23 sw	a4, -236(a5)
0x0000000080011bc8: f1 07 a6 83 lw	a3, -240(a5)
0x0000000080011bcc: f1 47 a7 03 lw	a4, -236(a5)
0x0000000080011bd0: 00 06 86 9b sext.w	a3, a3
0x0000000080011bd4: 00 07 07 1b sext.w	a4, a4
0x0000000080011bd8: 08 e6 c8 63 blt	a3, a4, 144
0x0000000080011c68: 00 00 57 37 lui	a4, 5
0x0000000080011c6c: 01 01 06 93 addi	a3, sp, 16
0x0000000080011c70: 19 07 07 13 addi	a4, a4, 400
0x0000000080011c74: 00 d7 07 33 add	a4, a4, a3
0x0000000080011c78: ff ff e7 b7 lui	a5, 1048574
0x0000000080011c7c: 00 f7 07 b3 add	a5, a4, a5
0x0000000080011c80: 00 20 07 13 addi	a4, zero, 2
0x0000000080011c84: f0 e7 ac 23 sw	a4, -232(a5)
0x0000000080011c88: f0 e7 ae 23 sw	a4, -228(a5)
0x0000000080011c8c: f1 87 a6 83 lw	a3, -232(a5)
0x0000000080011c90: f1 c7 a7 03 lw	a4, -228(a5)
0x0000000080011c94: 00 06 86 9b sext.w	a3, a3
0x0000000080011c98: 00 07 07 1b sext.w	a4, a4
0x0000000080011c9c: 08 e6 d6 63 bge	a3, a4, 140
0x0000000080011d28: 00 00 57 37 lui	a4, 5
0x0000000080011d2c: 01 01 06 93 addi	a3, sp, 16
0x0000000080011d30: 19 07 07 13 addi	a4, a4, 400
0x0000000080011d34: 00 d7 07 33 add	a4, a4, a3
0x0000000080011d38: ff ff e7 b7 lui	a5, 1048574
0x0000000080011d3c: 00 f7 07 b3 add	a5, a4, a5
0x0000000080011d40: 00 20 07 13 addi	a4, zero, 2
0x0000000080011d44: f2 e7 a0 23 sw	a4, -224(a5)
0x0000000080011d48: 80 00 07 37 lui	a4, 524288
0x0000000080011d4c: ff e7 47 13 xori	a4, a4, -2
0x0000000080011d50: f2 e7 a2 23 sw	a4, -220(a5)
0x0000000080011d54: f2 07 a6 83 lw	a3, -224(a5)
0x0000000080011d58: f2 47 a7 03 lw	a4, -220(a5)
0x0000000080011d5c: 00 06 86 9b sext.w	a3, a3
0x0000000080011d60: 00 07 07 1b sext.w	a4, a4
0x0000000080011d64: 08 e6 c8 63 blt	a3, a4, 144
0x0000000080011df4: 00 00 57 37 lui	a4, 5
0x0000000080011df8: 01 01 06 93 addi	a3, sp, 16
0x0000000080011dfc: 19 07 07 13 addi	a4, a4, 400
0x0000000080011e00: 00 d7 07 33 add	a4, a4, a3
0x0000000080011e04: ff ff e7 b7 lui	a5, 1048574
0x0000000080011e08: 00 f7 07 b3 add	a5, a4, a5
0x0000000080011e0c: 00 20 07 13 addi	a4, zero, 2
0x0000000080011e10: f2 e7 a4 23 sw	a4, -216(a5)
0x0000000080011e14: 80 00 07 37 lui	a4, 524288
0x0000000080011e18: ff f7 47 13 not	a4, a4
0x0000000080011e1c: f2 e7 a6 23 sw	a4, -212(a5)
0x0000000080011e20: f2 87 a6 83 lw	a3, -216(a5)
0x0000000080011e24: f2 c7 a7 03 lw	a4, -212(a5)
0x0000000080011e28: 00 06 86 9b sext.w	a3, a3
0x0000000080011e2c: 00 07 07 1b sext.w	a4, a4
0x0000000080011e30: 08 e6 c8 63 blt	a3, a4, 144
0x0000000080011ec0: 00 00 57 37 lui	a4, 5
0x0000000080011ec4: 01 01 06 93 addi	a3, sp, 16
0x0000000080011ec8: 19 07 07 13 addi	a4, a4, 400
0x0000000080011ecc: 00 d7 07 33 add	a4, a4, a3
0x0000000080011ed0: ff ff e7 b7 lui	a5, 1048574
0x0000000080011ed4: 00 f7 07 b3 add	a5, a4, a5
0x0000000080011ed8: 80 00 07 37 lui	a4, 524288
0x0000000080011edc: ff e7 47 13 xori	a4, a4, -2
0x0000000080011ee0: f2 e7 a8 23 sw	a4, -208(a5)
0x0000000080011ee4: f2 e7 aa 23 sw	a4, -204(a5)
0x0000000080011ee8: f3 07 a6 83 lw	a3, -208(a5)
0x0000000080011eec: f3 47 a7 03 lw	a4, -204(a5)
0x0000000080011ef0: 00 06 86 9b sext.w	a3, a3
0x0000000080011ef4: 00 07 07 1b sext.w	a4, a4
0x0000000080011ef8: 08 e6 d8 63 bge	a3, a4, 144
0x0000000080011f88: 00 00 56 b7 lui	a3, 5
0x0000000080011f8c: 19 06 86 93 addi	a3, a3, 400
0x0000000080011f90: 01 01 06 13 addi	a2, sp, 16
0x0000000080011f94: 80 00 07 37 lui	a4, 524288
0x0000000080011f98: 00 c6 86 b3 add	a3, a3, a2
0x0000000080011f9c: ff ff e7 b7 lui	a5, 1048574
0x0000000080011fa0: 00 f6 87 b3 add	a5, a3, a5
0x0000000080011fa4: ff e7 46 93 xori	a3, a4, -2
0x0000000080011fa8: f2 d7 ac 23 sw	a3, -200(a5)
0x0000000080011fac: ff f7 47 13 not	a4, a4
0x0000000080011fb0: f2 e7 ae 23 sw	a4, -196(a5)
0x0000000080011fb4: f3 87 a6 83 lw	a3, -200(a5)
0x0000000080011fb8: f3 c7 a7 03 lw	a4, -196(a5)
0x0000000080011fbc: 00 06 86 9b sext.w	a3, a3
0x0000000080011fc0: 00 07 07 1b sext.w	a4, a4
0x0000000080011fc4: 08 e6 c8 63 blt	a3, a4, 144
0x0000000080012054: 00 00 57 37 lui	a4, 5
0x0000000080012058: 01 01 06 93 addi	a3, sp, 16
0x000000008001205c: 19 07 07 13 addi	a4, a4, 400
0x0000000080012060: 00 d7 07 33 add	a4, a4, a3
0x0000000080012064: ff ff e7 b7 lui	a5, 1048574
0x0000000080012068: 00 f7 07 b3 add	a5, a4, a5
0x000000008001206c: 80 00 07 37 lui	a4, 524288
0x0000000080012070: ff f7 47 13 not	a4, a4
0x0000000080012074: f4 e7 a0 23 sw	a4, -192(a5)
0x0000000080012078: f4 e7 a2 23 sw	a4, -188(a5)
0x000000008001207c: f4 07 a6 83 lw	a3, -192(a5)
0x0000000080012080: f4 47 a7 03 lw	a4, -188(a5)
0x0000000080012084: 00 06 86 9b sext.w	a3, a3
0x0000000080012088: 00 07 07 1b sext.w	a4, a4
0x000000008001208c: 08 e6 d8 63 bge	a3, a4, 144
0x000000008001211c: 00 00 57 37 lui	a4, 5
0x0000000080012120: 01 01 06 93 addi	a3, sp, 16
0x0000000080012124: 19 07 07 13 addi	a4, a4, 400
0x0000000080012128: 00 d7 07 33 add	a4, a4, a3
0x000000008001212c: ff ff e7 b7 lui	a5, 1048574
0x0000000080012130: 00 f7 07 b3 add	a5, a4, a5
0x0000000080012134: 80 00 07 37 lui	a4, 524288
0x0000000080012138: f4 e7 a4 23 sw	a4, -184(a5)
0x000000008001213c: f4 e7 a6 23 sw	a4, -180(a5)
0x0000000080012140: f4 87 a6 83 lw	a3, -184(a5)
0x0000000080012144: f4 c7 a7 03 lw	a4, -180(a5)
0x0000000080012148: 00 06 86 9b sext.w	a3, a3
0x000000008001214c: 00 07 07 1b sext.w	a4, a4
0x0000000080012150: 08 e6 da 63 bge	a3, a4, 148
0x00000000800121e4: 00 00 57 37 lui	a4, 5
0x00000000800121e8: 01 01 06 93 addi	a3, sp, 16
0x00000000800121ec: 19 07 07 13 addi	a4, a4, 400
0x00000000800121f0: 00 d7 07 33 add	a4, a4, a3
0x00000000800121f4: ff ff e7 b7 lui	a5, 1048574
0x00000000800121f8: 00 f7 07 b3 add	a5, a4, a5
0x00000000800121fc: 80 00 07 37 lui	a4, 524288
0x0000000080012200: f4 e7 a8 23 sw	a4, -176(a5)
0x0000000080012204: 00 17 07 1b addiw	a4, a4, 1
0x0000000080012208: f4 e7 aa 23 sw	a4, -172(a5)
0x000000008001220c: f5 07 a6 83 lw	a3, -176(a5)
0x0000000080012210: f5 47 a7 03 lw	a4, -172(a5)
0x0000000080012214: 00 06 86 9b sext.w	a3, a3
0x0000000080012218: 00 07 07 1b sext.w	a4, a4
0x000000008001221c: 08 e6 cc 63 blt	a3, a4, 152
0x00000000800122b4: 00 00 57 37 lui	a4, 5
0x00000000800122b8: 01 01 06 93 addi	a3, sp, 16
0x00000000800122bc: 19 07 07 13 addi	a4, a4, 400
0x00000000800122c0: 00 d7 07 33 add	a4, a4, a3
0x00000000800122c4: ff ff e7 b7 lui	a5, 1048574
0x00000000800122c8: 00 f7 07 b3 add	a5, a4, a5
0x00000000800122cc: 80 00 07 37 lui	a4, 524288
0x00000000800122d0: f4 e7 ac 23 sw	a4, -168(a5)
0x00000000800122d4: ff e0 07 13 addi	a4, zero, -2
0x00000000800122d8: f4 e7 ae 23 sw	a4, -164(a5)
0x00000000800122dc: f5 87 a6 83 lw	a3, -168(a5)
0x00000000800122e0: f5 c7 a7 03 lw	a4, -164(a5)
0x00000000800122e4: 00 06 86 9b sext.w	a3, a3
0x00000000800122e8: 00 07 07 1b sext.w	a4, a4
0x00000000800122ec: 08 e6 ca 63 blt	a3, a4, 148
0x0000000080012380: 00 00 57 37 lui	a4, 5
0x0000000080012384: 01 01 06 93 addi	a3, sp, 16
0x0000000080012388: 19 07 07 13 addi	a4, a4, 400
0x000000008001238c: 00 d7 07 33 add	a4, a4, a3
0x0000000080012390: ff ff e7 b7 lui	a5, 1048574
0x0000000080012394: 00 f7 07 b3 add	a5, a4, a5
0x0000000080012398: 80 00 07 37 lui	a4, 524288
0x000000008001239c: f6 e7 a0 23 sw	a4, -160(a5)
0x00000000800123a0: ff f0 07 13 addi	a4, zero, -1
0x00000000800123a4: f6 e7 a2 23 sw	a4, -156(a5)
0x00000000800123a8: f6 07 a6 83 lw	a3, -160(a5)
0x00000000800123ac: f6 47 a7 03 lw	a4, -156(a5)
0x00000000800123b0: 00 06 86 9b sext.w	a3, a3
0x00000000800123b4: 00 07 07 1b sext.w	a4, a4
0x00000000800123b8: 08 e6 ca 63 blt	a3, a4, 148
0x000000008001244c: 00 00 57 37 lui	a4, 5
0x0000000080012450: 01 01 06 93 addi	a3, sp, 16
0x0000000080012454: 19 07 07 13 addi	a4, a4, 400
0x0000000080012458: 00 d7 07 33 add	a4, a4, a3
0x000000008001245c: ff ff e7 b7 lui	a5, 1048574
0x0000000080012460: 00 f7 07 b3 add	a5, a4, a5
0x0000000080012464: 80 00 07 37 lui	a4, 524288
0x0000000080012468: f6 e7 a4 23 sw	a4, -152(a5)
0x000000008001246c: f6 07 a6 23 sw	zero, -148(a5)
0x0000000080012470: f6 87 a6 83 lw	a3, -152(a5)
0x0000000080012474: f6 c7 a7 03 lw	a4, -148(a5)
0x0000000080012478: 00 06 86 9b sext.w	a3, a3
0x000000008001247c: 00 07 07 1b sext.w	a4, a4
0x0000000080012480: 08 e6 ca 63 blt	a3, a4, 148
0x0000000080012514: 00 00 57 37 lui	a4, 5
0x0000000080012518: 01 01 06 93 addi	a3, sp, 16
0x000000008001251c: 19 07 07 13 addi	a4, a4, 400
0x0000000080012520: 00 d7 07 33 add	a4, a4, a3
0x0000000080012524: ff ff e7 b7 lui	a5, 1048574
0x0000000080012528: 00 f7 07 b3 add	a5, a4, a5
0x000000008001252c: 80 00 07 37 lui	a4, 524288
0x0000000080012530: f6 e7 a8 23 sw	a4, -144(a5)
0x0000000080012534: 00 10 07 13 addi	a4, zero, 1
0x0000000080012538: f6 e7 aa 23 sw	a4, -140(a5)
0x000000008001253c: f7 07 a6 83 lw	a3, -144(a5)
0x0000000080012540: f7 47 a7 03 lw	a4, -140(a5)
0x0000000080012544: 00 06 86 9b sext.w	a3, a3
0x0000000080012548: 00 07 07 1b sext.w	a4, a4
0x000000008001254c: 08 e6 ca 63 blt	a3, a4, 148
0x00000000800125e0: 00 00 57 37 lui	a4, 5
0x00000000800125e4: 01 01 06 93 addi	a3, sp, 16
0x00000000800125e8: 19 07 07 13 addi	a4, a4, 400
0x00000000800125ec: 00 d7 07 33 add	a4, a4, a3
0x00000000800125f0: ff ff e7 b7 lui	a5, 1048574
0x00000000800125f4: 00 f7 07 b3 add	a5, a4, a5
0x00000000800125f8: 80 00 07 37 lui	a4, 524288
0x00000000800125fc: f6 e7 ac 23 sw	a4, -136(a5)
0x0000000080012600: 00 20 07 13 addi	a4, zero, 2
0x0000000080012604: f6 e7 ae 23 sw	a4, -132(a5)
0x0000000080012608: f7 87 a6 83 lw	a3, -136(a5)
0x000000008001260c: f7 c7 a7 03 lw	a4, -132(a5)
0x0000000080012610: 00 06 86 9b sext.w	a3, a3
0x0000000080012614: 00 07 07 1b sext.w	a4, a4
0x0000000080012618: 08 e6 ca 63 blt	a3, a4, 148
0x00000000800126ac: 00 00 57 37 lui	a4, 5
0x00000000800126b0: 01 01 06 93 addi	a3, sp, 16
0x00000000800126b4: 19 07 07 13 addi	a4, a4, 400
0x00000000800126b8: 00 d7 07 33 add	a4, a4, a3
0x00000000800126bc: ff ff e7 b7 lui	a5, 1048574
0x00000000800126c0: 00 f7 07 b3 add	a5, a4, a5
0x00000000800126c4: 80 00 07 37 lui	a4, 524288
0x00000000800126c8: f8 e7 a0 23 sw	a4, -128(a5)
0x00000000800126cc: ff e7 47 13 xori	a4, a4, -2
0x00000000800126d0: f8 e7 a2 23 sw	a4, -124(a5)
0x00000000800126d4: f8 07 a6 83 lw	a3, -128(a5)
0x00000000800126d8: f8 47 a7 03 lw	a4, -124(a5)
0x00000000800126dc: 00 06 86 9b sext.w	a3, a3
0x00000000800126e0: 00 07 07 1b sext.w	a4, a4
0x00000000800126e4: 08 e6 cc 63 blt	a3, a4, 152
0x000000008001277c: 00 00 57 37 lui	a4, 5
0x0000000080012780: 01 01 06 93 addi	a3, sp, 16
0x0000000080012784: 19 07 07 13 addi	a4, a4, 400
0x0000000080012788: 00 d7 07 33 add	a4, a4, a3
0x000000008001278c: ff ff e7 b7 lui	a5, 1048574
0x0000000080012790: 00 f7 07 b3 add	a5, a4, a5
0x0000000080012794: 80 00 07 37 lui	a4, 524288
0x0000000080012798: f8 e7 a4 23 sw	a4, -120(a5)
0x000000008001279c: ff f7 47 13 not	a4, a4
0x00000000800127a0: f8 e7 a6 23 sw	a4, -116(a5)
0x00000000800127a4: f8 87 a6 83 lw	a3, -120(a5)
0x00000000800127a8: f8 c7 a7 03 lw	a4, -116(a5)
0x00000000800127ac: 00 06 86 9b sext.w	a3, a3
0x00000000800127b0: 00 07 07 1b sext.w	a4, a4
0x00000000800127b4: 08 e6 cc 63 blt	a3, a4, 152
0x000000008001284c: 00 00 57 37 lui	a4, 5
0x0000000080012850: 01 01 06 93 addi	a3, sp, 16
0x0000000080012854: 19 07 07 13 addi	a4, a4, 400
0x0000000080012858: 00 d7 07 33 add	a4, a4, a3
0x000000008001285c: ff ff e7 b7 lui	a5, 1048574
0x0000000080012860: 00 f7 07 b3 add	a5, a4, a5
0x0000000080012864: 80 00 07 37 lui	a4, 524288
0x0000000080012868: 00 17 07 1b addiw	a4, a4, 1
0x000000008001286c: f8 e7 a8 23 sw	a4, -112(a5)
0x0000000080012870: f8 e7 aa 23 sw	a4, -108(a5)
0x0000000080012874: f9 07 a6 83 lw	a3, -112(a5)
0x0000000080012878: f9 47 a7 03 lw	a4, -108(a5)
0x000000008001287c: 00 06 86 9b sext.w	a3, a3
0x0000000080012880: 00 07 07 1b sext.w	a4, a4
0x0000000080012884: 08 e6 dc 63 bge	a3, a4, 152
0x000000008001291c: 00 00 57 37 lui	a4, 5
0x0000000080012920: 01 01 06 93 addi	a3, sp, 16
0x0000000080012924: 19 07 07 13 addi	a4, a4, 400
0x0000000080012928: 00 d7 07 33 add	a4, a4, a3
0x000000008001292c: ff ff e7 b7 lui	a5, 1048574
0x0000000080012930: 00 f7 07 b3 add	a5, a4, a5
0x0000000080012934: 80 00 07 37 lui	a4, 524288
0x0000000080012938: 00 17 07 1b addiw	a4, a4, 1
0x000000008001293c: f8 e7 ac 23 sw	a4, -104(a5)
0x0000000080012940: ff e0 07 13 addi	a4, zero, -2
0x0000000080012944: f8 e7 ae 23 sw	a4, -100(a5)
0x0000000080012948: f9 87 a6 83 lw	a3, -104(a5)
0x000000008001294c: f9 c7 a7 03 lw	a4, -100(a5)
0x0000000080012950: 00 06 86 9b sext.w	a3, a3
0x0000000080012954: 00 07 07 1b sext.w	a4, a4
0x0000000080012958: 08 e6 cc 63 blt	a3, a4, 152
0x00000000800129f0: 00 00 57 37 lui	a4, 5
0x00000000800129f4: 01 01 06 93 addi	a3, sp, 16
0x00000000800129f8: 19 07 07 13 addi	a4, a4, 400
0x00000000800129fc: 00 d7 07 33 add	a4, a4, a3
0x0000000080012a00: ff ff e7 b7 lui	a5, 1048574
0x0000000080012a04: 00 f7 07 b3 add	a5, a4, a5
0x0000000080012a08: 80 00 07 37 lui	a4, 524288
0x0000000080012a0c: 00 17 07 1b addiw	a4, a4, 1
0x0000000080012a10: fa e7 a0 23 sw	a4, -96(a5)
0x0000000080012a14: ff f0 07 13 addi	a4, zero, -1
0x0000000080012a18: fa e7 a2 23 sw	a4, -92(a5)
0x0000000080012a1c: fa 07 a6 83 lw	a3, -96(a5)
0x0000000080012a20: fa 47 a7 03 lw	a4, -92(a5)
0x0000000080012a24: 00 06 86 9b sext.w	a3, a3
0x0000000080012a28: 00 07 07 1b sext.w	a4, a4
0x0000000080012a2c: 08 e6 cc 63 blt	a3, a4, 152
0x0000000080012ac4: 00 00 57 37 lui	a4, 5
0x0000000080012ac8: 01 01 06 93 addi	a3, sp, 16
0x0000000080012acc: 19 07 07 13 addi	a4, a4, 400
0x0000000080012ad0: 00 d7 07 33 add	a4, a4, a3
0x0000000080012ad4: ff ff e7 b7 lui	a5, 1048574
0x0000000080012ad8: 00 f7 07 b3 add	a5, a4, a5
0x0000000080012adc: 80 00 07 37 lui	a4, 524288
0x0000000080012ae0: 00 17 07 1b addiw	a4, a4, 1
0x0000000080012ae4: fa e7 a4 23 sw	a4, -88(a5)
0x0000000080012ae8: fa 07 a6 23 sw	zero, -84(a5)
0x0000000080012aec: fa 87 a6 83 lw	a3, -88(a5)
0x0000000080012af0: fa c7 a7 03 lw	a4, -84(a5)
0x0000000080012af4: 00 06 86 9b sext.w	a3, a3
0x0000000080012af8: 00 07 07 1b sext.w	a4, a4
0x0000000080012afc: 08 e6 cc 63 blt	a3, a4, 152
0x0000000080012b94: 00 00 57 37 lui	a4, 5
0x0000000080012b98: 01 01 06 93 addi	a3, sp, 16
0x0000000080012b9c: 19 07 07 13 addi	a4, a4, 400
0x0000000080012ba0: 00 d7 07 33 add	a4, a4, a3
0x0000000080012ba4: ff ff e7 b7 lui	a5, 1048574
0x0000000080012ba8: 00 f7 07 b3 add	a5, a4, a5
0x0000000080012bac: 80 00 07 37 lui	a4, 524288
0x0000000080012bb0: 00 17 07 1b addiw	a4, a4, 1
0x0000000080012bb4: fa e7 a8 23 sw	a4, -80(a5)
0x0000000080012bb8: 00 10 07 13 addi	a4, zero, 1
0x0000000080012bbc: fa e7 aa 23 sw	a4, -76(a5)
0x0000000080012bc0: fb 07 a6 83 lw	a3, -80(a5)
0x0000000080012bc4: fb 47 a7 03 lw	a4, -76(a5)
0x0000000080012bc8: 00 06 86 9b sext.w	a3, a3
0x0000000080012bcc: 00 07 07 1b sext.w	a4, a4
0x0000000080012bd0: 08 e6 cc 63 blt	a3, a4, 152
0x0000000080012c68: 00 00 57 37 lui	a4, 5
0x0000000080012c6c: 01 01 06 93 addi	a3, sp, 16
0x0000000080012c70: 19 07 07 13 addi	a4, a4, 400
0x0000000080012c74: 00 d7 07 33 add	a4, a4, a3
0x0000000080012c78: ff ff e7 b7 lui	a5, 1048574
0x0000000080012c7c: 00 f7 07 b3 add	a5, a4, a5
0x0000000080012c80: 80 00 07 37 lui	a4, 524288
0x0000000080012c84: 00 17 07 1b addiw	a4, a4, 1
0x0000000080012c88: fa e7 ac 23 sw	a4, -72(a5)
0x0000000080012c8c: 00 20 07 13 addi	a4, zero, 2
0x0000000080012c90: fa e7 ae 23 sw	a4, -68(a5)
0x0000000080012c94: fb 87 a6 83 lw	a3, -72(a5)
0x0000000080012c98: fb c7 a7 03 lw	a4, -68(a5)
0x0000000080012c9c: 00 06 86 9b sext.w	a3, a3
0x0000000080012ca0: 00 07 07 1b sext.w	a4, a4
0x0000000080012ca4: 08 e6 cc 63 blt	a3, a4, 152
0x0000000080012d3c: 00 00 56 b7 lui	a3, 5
0x0000000080012d40: 19 06 86 93 addi	a3, a3, 400
0x0000000080012d44: 01 01 06 13 addi	a2, sp, 16
0x0000000080012d48: 80 00 07 37 lui	a4, 524288
0x0000000080012d4c: 00 c6 86 b3 add	a3, a3, a2
0x0000000080012d50: ff ff e7 b7 lui	a5, 1048574
0x0000000080012d54: 00 f6 87 b3 add	a5, a3, a5
0x0000000080012d58: 00 17 06 9b addiw	a3, a4, 1
0x0000000080012d5c: fc d7 a0 23 sw	a3, -64(a5)
0x0000000080012d60: ff e7 47 13 xori	a4, a4, -2
0x0000000080012d64: fc e7 a2 23 sw	a4, -60(a5)
0x0000000080012d68: fc 07 a6 83 lw	a3, -64(a5)
0x0000000080012d6c: fc 47 a7 03 lw	a4, -60(a5)
0x0000000080012d70: 00 06 86 9b sext.w	a3, a3
0x0000000080012d74: 00 07 07 1b sext.w	a4, a4
0x0000000080012d78: 08 e6 cc 63 blt	a3, a4, 152
0x0000000080012e10: 00 00 56 b7 lui	a3, 5
0x0000000080012e14: 19 06 86 93 addi	a3, a3, 400
0x0000000080012e18: 01 01 06 13 addi	a2, sp, 16
0x0000000080012e1c: 80 00 07 37 lui	a4, 524288
0x0000000080012e20: 00 c6 86 b3 add	a3, a3, a2
0x0000000080012e24: ff ff e7 b7 lui	a5, 1048574
0x0000000080012e28: 00 f6 87 b3 add	a5, a3, a5
0x0000000080012e2c: 00 17 06 9b addiw	a3, a4, 1
0x0000000080012e30: fc d7 a4 23 sw	a3, -56(a5)
0x0000000080012e34: ff f7 47 13 not	a4, a4
0x0000000080012e38: fc e7 a6 23 sw	a4, -52(a5)
0x0000000080012e3c: fc 87 a6 83 lw	a3, -56(a5)
0x0000000080012e40: fc c7 a7 03 lw	a4, -52(a5)
0x0000000080012e44: 00 06 86 9b sext.w	a3, a3
0x0000000080012e48: 00 07 07 1b sext.w	a4, a4
0x0000000080012e4c: 08 e6 cc 63 blt	a3, a4, 152
0x0000000080012ee4: 00 00 57 37 lui	a4, 5
0x0000000080012ee8: 01 01 06 93 addi	a3, sp, 16
0x0000000080012eec: 19 07 07 13 addi	a4, a4, 400
0x0000000080012ef0: 00 d7 07 33 add	a4, a4, a3
0x0000000080012ef4: ff ff e7 b7 lui	a5, 1048574
0x0000000080012ef8: 00 f7 07 b3 add	a5, a4, a5
0x0000000080012efc: ff e0 07 13 addi	a4, zero, -2
0x0000000080012f00: fc e7 a8 23 sw	a4, -48(a5)
0x0000000080012f04: fc e7 aa 23 sw	a4, -44(a5)
0x0000000080012f08: fd 07 a6 83 lw	a3, -48(a5)
0x0000000080012f0c: fd 47 a7 03 lw	a4, -44(a5)
0x0000000080012f10: 00 06 86 9b sext.w	a3, a3
0x0000000080012f14: 00 07 07 1b sext.w	a4, a4
0x0000000080012f18: 08 e6 da 63 bge	a3, a4, 148
0x0000000080012fac: 00 00 57 37 lui	a4, 5
0x0000000080012fb0: 01 01 06 93 addi	a3, sp, 16
0x0000000080012fb4: 19 07 07 13 addi	a4, a4, 400
0x0000000080012fb8: 00 d7 07 33 add	a4, a4, a3
0x0000000080012fbc: ff ff e7 b7 lui	a5, 1048574
0x0000000080012fc0: 00 f7 07 b3 add	a5, a4, a5
0x0000000080012fc4: ff e0 07 13 addi	a4, zero, -2
0x0000000080012fc8: fc e7 ac 23 sw	a4, -40(a5)
0x0000000080012fcc: ff f0 07 13 addi	a4, zero, -1
0x0000000080012fd0: fc e7 ae 23 sw	a4, -36(a5)
0x0000000080012fd4: fd 87 a6 83 lw	a3, -40(a5)
0x0000000080012fd8: fd c7 a7 03 lw	a4, -36(a5)
0x0000000080012fdc: 00 06 86 9b sext.w	a3, a3
0x0000000080012fe0: 00 07 07 1b sext.w	a4, a4
0x0000000080012fe4: 08 e6 ca 63 blt	a3, a4, 148
0x0000000080013078: 00 00 57 37 lui	a4, 5
0x000000008001307c: 01 01 06 93 addi	a3, sp, 16
0x0000000080013080: 19 07 07 13 addi	a4, a4, 400
0x0000000080013084: 00 d7 07 33 add	a4, a4, a3
0x0000000080013088: ff ff e7 b7 lui	a5, 1048574
0x000000008001308c: 00 f7 07 b3 add	a5, a4, a5
0x0000000080013090: ff e0 07 13 addi	a4, zero, -2
0x0000000080013094: fe e7 a0 23 sw	a4, -32(a5)
0x0000000080013098: fe 07 a2 23 sw	zero, -28(a5)
0x000000008001309c: fe 07 a6 83 lw	a3, -32(a5)
0x00000000800130a0: fe 47 a7 03 lw	a4, -28(a5)
0x00000000800130a4: 00 06 86 9b sext.w	a3, a3
0x00000000800130a8: 00 07 07 1b sext.w	a4, a4
0x00000000800130ac: 08 e6 ca 63 blt	a3, a4, 148
0x0000000080013140: 00 00 57 37 lui	a4, 5
0x0000000080013144: 01 01 06 93 addi	a3, sp, 16
0x0000000080013148: 19 07 07 13 addi	a4, a4, 400
0x000000008001314c: 00 d7 07 33 add	a4, a4, a3
0x0000000080013150: ff ff e7 b7 lui	a5, 1048574
0x0000000080013154: 00 f7 07 b3 add	a5, a4, a5
0x0000000080013158: ff e0 07 13 addi	a4, zero, -2
0x000000008001315c: fe e7 a4 23 sw	a4, -24(a5)
0x0000000080013160: 00 10 07 13 addi	a4, zero, 1
0x0000000080013164: fe e7 a6 23 sw	a4, -20(a5)
0x0000000080013168: fe 87 a6 83 lw	a3, -24(a5)
0x000000008001316c: fe c7 a7 03 lw	a4, -20(a5)
0x0000000080013170: 00 06 86 9b sext.w	a3, a3
0x0000000080013174: 00 07 07 1b sext.w	a4, a4
0x0000000080013178: 08 e6 ca 63 blt	a3, a4, 148
0x000000008001320c: 00 00 57 37 lui	a4, 5
0x0000000080013210: 01 01 06 93 addi	a3, sp, 16
0x0000000080013214: 19 07 07 13 addi	a4, a4, 400
0x0000000080013218: 00 d7 07 33 add	a4, a4, a3
0x000000008001321c: ff ff e7 b7 lui	a5, 1048574
0x0000000080013220: 00 f7 07 b3 add	a5, a4, a5
0x0000000080013224: ff e0 07 13 addi	a4, zero, -2
0x0000000080013228: fe e7 a8 23 sw	a4, -16(a5)
0x000000008001322c: 00 20 07 13 addi	a4, zero, 2
0x0000000080013230: fe e7 aa 23 sw	a4, -12(a5)
0x0000000080013234: ff 07 a6 83 lw	a3, -16(a5)
0x0000000080013238: ff 47 a7 03 lw	a4, -12(a5)
0x000000008001323c: 00 06 86 9b sext.w	a3, a3
0x0000000080013240: 00 07 07 1b sext.w	a4, a4
0x0000000080013244: 08 e6 ca 63 blt	a3, a4, 148
0x00000000800132d8: 00 00 57 37 lui	a4, 5
0x00000000800132dc: 01 01 06 93 addi	a3, sp, 16
0x00000000800132e0: 19 07 07 13 addi	a4, a4, 400
0x00000000800132e4: 00 d7 07 33 add	a4, a4, a3
0x00000000800132e8: ff ff e7 b7 lui	a5, 1048574
0x00000000800132ec: 00 f7 07 b3 add	a5, a4, a5
0x00000000800132f0: ff e0 07 13 addi	a4, zero, -2
0x00000000800132f4: fe e7 ac 23 sw	a4, -8(a5)
0x00000000800132f8: 80 00 07 37 lui	a4, 524288
0x00000000800132fc: ff e7 47 13 xori	a4, a4, -2
0x0000000080013300: fe e7 ae 23 sw	a4, -4(a5)
0x0000000080013304: ff 87 a6 83 lw	a3, -8(a5)
0x0000000080013308: ff c7 a7 03 lw	a4, -4(a5)
0x000000008001330c: 00 06 86 9b sext.w	a3, a3
0x0000000080013310: 00 07 07 1b sext.w	a4, a4
0x0000000080013314: 08 e6 cc 63 blt	a3, a4, 152
0x00000000800133ac: 00 00 57 37 lui	a4, 5
0x00000000800133b0: 01 01 06 93 addi	a3, sp, 16
0x00000000800133b4: 19 07 07 13 addi	a4, a4, 400
0x00000000800133b8: 00 d7 07 33 add	a4, a4, a3
0x00000000800133bc: ff ff e7 b7 lui	a5, 1048574
0x00000000800133c0: 00 f7 07 b3 add	a5, a4, a5
0x00000000800133c4: ff e0 07 13 addi	a4, zero, -2
0x00000000800133c8: 00 e7 a0 23 sw	a4, 0(a5)
0x00000000800133cc: 80 00 07 37 lui	a4, 524288
0x00000000800133d0: ff f7 47 13 not	a4, a4
0x00000000800133d4: 00 e7 a2 23 sw	a4, 4(a5)
0x00000000800133d8: 00 07 a6 83 lw	a3, 0(a5)
0x00000000800133dc: 00 47 a7 03 lw	a4, 4(a5)
0x00000000800133e0: 00 06 86 9b sext.w	a3, a3
0x00000000800133e4: 00 07 07 1b sext.w	a4, a4
0x00000000800133e8: 08 e6 cc 63 blt	a3, a4, 152
0x0000000080013480: 00 00 57 37 lui	a4, 5
0x0000000080013484: 01 01 06 93 addi	a3, sp, 16
0x0000000080013488: 19 07 07 13 addi	a4, a4, 400
0x000000008001348c: 00 d7 07 33 add	a4, a4, a3
0x0000000080013490: ff ff e7 b7 lui	a5, 1048574
0x0000000080013494: 00 f7 07 b3 add	a5, a4, a5
0x0000000080013498: ff f0 07 13 addi	a4, zero, -1
0x000000008001349c: 00 e7 a4 23 sw	a4, 8(a5)
0x00000000800134a0: 00 e7 a6 23 sw	a4, 12(a5)
0x00000000800134a4: 00 87 a6 83 lw	a3, 8(a5)
0x00000000800134a8: 00 c7 a7 03 lw	a4, 12(a5)
0x00000000800134ac: 00 06 86 9b sext.w	a3, a3
0x00000000800134b0: 00 07 07 1b sext.w	a4, a4
0x00000000800134b4: 08 e6 da 63 bge	a3, a4, 148
0x0000000080013548: 00 00 57 37 lui	a4, 5
0x000000008001354c: 01 01 06 93 addi	a3, sp, 16
0x0000000080013550: 19 07 07 13 addi	a4, a4, 400
0x0000000080013554: 00 d7 07 33 add	a4, a4, a3
0x0000000080013558: ff ff e7 b7 lui	a5, 1048574
0x000000008001355c: 00 f7 07 b3 add	a5, a4, a5
0x0000000080013560: ff f0 07 13 addi	a4, zero, -1
0x0000000080013564: 00 e7 a8 23 sw	a4, 16(a5)
0x0000000080013568: 00 07 aa 23 sw	zero, 20(a5)
0x000000008001356c: 01 07 a6 83 lw	a3, 16(a5)
0x0000000080013570: 01 47 a7 03 lw	a4, 20(a5)
0x0000000080013574: 00 06 86 9b sext.w	a3, a3
0x0000000080013578: 00 07 07 1b sext.w	a4, a4
0x000000008001357c: 08 e6 ca 63 blt	a3, a4, 148
0x0000000080013610: 00 00 57 37 lui	a4, 5
0x0000000080013614: 01 01 06 93 addi	a3, sp, 16
0x0000000080013618: 19 07 07 13 addi	a4, a4, 400
0x000000008001361c: 00 d7 07 33 add	a4, a4, a3
0x0000000080013620: ff ff e7 b7 lui	a5, 1048574
0x0000000080013624: 00 f7 07 b3 add	a5, a4, a5
0x0000000080013628: ff f0 07 13 addi	a4, zero, -1
0x000000008001362c: 00 e7 ac 23 sw	a4, 24(a5)
0x0000000080013630: 00 10 07 13 addi	a4, zero, 1
0x0000000080013634: 00 e7 ae 23 sw	a4, 28(a5)
0x0000000080013638: 01 87 a6 83 lw	a3, 24(a5)
0x000000008001363c: 01 c7 a7 03 lw	a4, 28(a5)
0x0000000080013640: 00 06 86 9b sext.w	a3, a3
0x0000000080013644: 00 07 07 1b sext.w	a4, a4
0x0000000080013648: 08 e6 ca 63 blt	a3, a4, 148
0x00000000800136dc: 00 00 57 37 lui	a4, 5
0x00000000800136e0: 01 01 06 93 addi	a3, sp, 16
0x00000000800136e4: 19 07 07 13 addi	a4, a4, 400
0x00000000800136e8: 00 d7 07 33 add	a4, a4, a3
0x00000000800136ec: ff ff e7 b7 lui	a5, 1048574
0x00000000800136f0: 00 f7 07 b3 add	a5, a4, a5
0x00000000800136f4: ff f0 07 13 addi	a4, zero, -1
0x00000000800136f8: 02 e7 a0 23 sw	a4, 32(a5)
0x00000000800136fc: 00 20 07 13 addi	a4, zero, 2
0x0000000080013700: 02 e7 a2 23 sw	a4, 36(a5)
0x0000000080013704: 02 07 a6 83 lw	a3, 32(a5)
0x0000000080013708: 02 47 a7 03 lw	a4, 36(a5)
0x000000008001370c: 00 06 86 9b sext.w	a3, a3
0x0000000080013710: 00 07 07 1b sext.w	a4, a4
0x0000000080013714: 08 e6 ca 63 blt	a3, a4, 148
0x00000000800137a8: 00 00 57 37 lui	a4, 5
0x00000000800137ac: 01 01 06 93 addi	a3, sp, 16
0x00000000800137b0: 19 07 07 13 addi	a4, a4, 400
0x00000000800137b4: 00 d7 07 33 add	a4, a4, a3
0x00000000800137b8: ff ff e7 b7 lui	a5, 1048574
0x00000000800137bc: 00 f7 07 b3 add	a5, a4, a5
0x00000000800137c0: ff f0 07 13 addi	a4, zero, -1
0x00000000800137c4: 02 e7 a4 23 sw	a4, 40(a5)
0x00000000800137c8: 80 00 07 37 lui	a4, 524288
0x00000000800137cc: ff e7 47 13 xori	a4, a4, -2
0x00000000800137d0: 02 e7 a6 23 sw	a4, 44(a5)
0x00000000800137d4: 02 87 a6 83 lw	a3, 40(a5)
0x00000000800137d8: 02 c7 a7 03 lw	a4, 44(a5)
0x00000000800137dc: 00 06 86 9b sext.w	a3, a3
0x00000000800137e0: 00 07 07 1b sext.w	a4, a4
0x00000000800137e4: 08 e6 cc 63 blt	a3, a4, 152
0x000000008001387c: 00 00 57 37 lui	a4, 5
0x0000000080013880: 01 01 06 93 addi	a3, sp, 16
0x0000000080013884: 19 07 07 13 addi	a4, a4, 400
0x0000000080013888: 00 d7 07 33 add	a4, a4, a3
0x000000008001388c: ff ff e7 b7 lui	a5, 1048574
0x0000000080013890: 00 f7 07 b3 add	a5, a4, a5
0x0000000080013894: ff f0 07 13 addi	a4, zero, -1
0x0000000080013898: 02 e7 a8 23 sw	a4, 48(a5)
0x000000008001389c: 80 00 07 37 lui	a4, 524288
0x00000000800138a0: ff f7 47 13 not	a4, a4
0x00000000800138a4: 02 e7 aa 23 sw	a4, 52(a5)
0x00000000800138a8: 03 07 a6 83 lw	a3, 48(a5)
0x00000000800138ac: 03 47 a7 03 lw	a4, 52(a5)
0x00000000800138b0: 00 06 86 9b sext.w	a3, a3
0x00000000800138b4: 00 07 07 1b sext.w	a4, a4
0x00000000800138b8: 08 e6 cc 63 blt	a3, a4, 152
0x0000000080013950: 00 00 57 37 lui	a4, 5
0x0000000080013954: 01 01 06 93 addi	a3, sp, 16
0x0000000080013958: 19 07 07 13 addi	a4, a4, 400
0x000000008001395c: 00 d7 07 33 add	a4, a4, a3
0x0000000080013960: ff ff e7 b7 lui	a5, 1048574
0x0000000080013964: 00 f7 07 b3 add	a5, a4, a5
0x0000000080013968: 02 07 ac 23 sw	zero, 56(a5)
0x000000008001396c: 02 07 ae 23 sw	zero, 60(a5)
0x0000000080013970: 03 87 a6 83 lw	a3, 56(a5)
0x0000000080013974: 03 c7 a7 03 lw	a4, 60(a5)
0x0000000080013978: 00 06 86 9b sext.w	a3, a3
0x000000008001397c: 00 07 07 1b sext.w	a4, a4
0x0000000080013980: 08 e6 da 63 bge	a3, a4, 148
0x0000000080013a14: 00 00 57 37 lui	a4, 5
0x0000000080013a18: 01 01 06 93 addi	a3, sp, 16
0x0000000080013a1c: 19 07 07 13 addi	a4, a4, 400
0x0000000080013a20: 00 d7 07 33 add	a4, a4, a3
0x0000000080013a24: ff ff e7 b7 lui	a5, 1048574
0x0000000080013a28: 00 f7 07 b3 add	a5, a4, a5
0x0000000080013a2c: 04 07 a0 23 sw	zero, 64(a5)
0x0000000080013a30: 00 10 07 13 addi	a4, zero, 1
0x0000000080013a34: 04 e7 a2 23 sw	a4, 68(a5)
0x0000000080013a38: 04 07 a6 83 lw	a3, 64(a5)
0x0000000080013a3c: 04 47 a7 03 lw	a4, 68(a5)
0x0000000080013a40: 00 06 86 9b sext.w	a3, a3
0x0000000080013a44: 00 07 07 1b sext.w	a4, a4
0x0000000080013a48: 08 e6 ca 63 blt	a3, a4, 148
0x0000000080013adc: 00 00 57 37 lui	a4, 5
0x0000000080013ae0: 01 01 06 93 addi	a3, sp, 16
0x0000000080013ae4: 19 07 07 13 addi	a4, a4, 400
0x0000000080013ae8: 00 d7 07 33 add	a4, a4, a3
0x0000000080013aec: ff ff e7 b7 lui	a5, 1048574
0x0000000080013af0: 00 f7 07 b3 add	a5, a4, a5
0x0000000080013af4: 04 07 a4 23 sw	zero, 72(a5)
0x0000000080013af8: 00 20 07 13 addi	a4, zero, 2
0x0000000080013afc: 04 e7 a6 23 sw	a4, 76(a5)
0x0000000080013b00: 04 87 a6 83 lw	a3, 72(a5)
0x0000000080013b04: 04 c7 a7 03 lw	a4, 76(a5)
0x0000000080013b08: 00 06 86 9b sext.w	a3, a3
0x0000000080013b0c: 00 07 07 1b sext.w	a4, a4
0x0000000080013b10: 08 e6 ca 63 blt	a3, a4, 148
0x0000000080013ba4: 00 00 57 37 lui	a4, 5
0x0000000080013ba8: 01 01 06 93 addi	a3, sp, 16
0x0000000080013bac: 19 07 07 13 addi	a4, a4, 400
0x0000000080013bb0: 00 d7 07 33 add	a4, a4, a3
0x0000000080013bb4: ff ff e7 b7 lui	a5, 1048574
0x0000000080013bb8: 00 f7 07 b3 add	a5, a4, a5
0x0000000080013bbc: 80 00 07 37 lui	a4, 524288
0x0000000080013bc0: 04 07 a8 23 sw	zero, 80(a5)
0x0000000080013bc4: ff e7 47 13 xori	a4, a4, -2
0x0000000080013bc8: 04 e7 aa 23 sw	a4, 84(a5)
0x0000000080013bcc: 05 07 a6 83 lw	a3, 80(a5)
0x0000000080013bd0: 05 47 a7 03 lw	a4, 84(a5)
0x0000000080013bd4: 00 06 86 9b sext.w	a3, a3
0x0000000080013bd8: 00 07 07 1b sext.w	a4, a4
0x0000000080013bdc: 08 e6 cc 63 blt	a3, a4, 152
0x0000000080013c74: 00 00 57 37 lui	a4, 5
0x0000000080013c78: 01 01 06 93 addi	a3, sp, 16
0x0000000080013c7c: 19 07 07 13 addi	a4, a4, 400
0x0000000080013c80: 00 d7 07 33 add	a4, a4, a3
0x0000000080013c84: ff ff e7 b7 lui	a5, 1048574
0x0000000080013c88: 00 f7 07 b3 add	a5, a4, a5
0x0000000080013c8c: 80 00 07 37 lui	a4, 524288
0x0000000080013c90: 04 07 ac 23 sw	zero, 88(a5)
0x0000000080013c94: ff f7 47 13 not	a4, a4
0x0000000080013c98: 04 e7 ae 23 sw	a4, 92(a5)
0x0000000080013c9c: 05 87 a6 83 lw	a3, 88(a5)
0x0000000080013ca0: 05 c7 a7 03 lw	a4, 92(a5)
0x0000000080013ca4: 00 06 86 9b sext.w	a3, a3
0x0000000080013ca8: 00 07 07 1b sext.w	a4, a4
0x0000000080013cac: 08 e6 cc 63 blt	a3, a4, 152
0x0000000080013d44: 00 00 57 37 lui	a4, 5
0x0000000080013d48: 01 01 06 93 addi	a3, sp, 16
0x0000000080013d4c: 19 07 07 13 addi	a4, a4, 400
0x0000000080013d50: 00 d7 07 33 add	a4, a4, a3
0x0000000080013d54: ff ff e7 b7 lui	a5, 1048574
0x0000000080013d58: 00 f7 07 b3 add	a5, a4, a5
0x0000000080013d5c: 00 10 07 13 addi	a4, zero, 1
0x0000000080013d60: 06 e7 a0 23 sw	a4, 96(a5)
0x0000000080013d64: 06 e7 a2 23 sw	a4, 100(a5)
0x0000000080013d68: 06 07 a6 83 lw	a3, 96(a5)
0x0000000080013d6c: 06 47 a7 03 lw	a4, 100(a5)
0x0000000080013d70: 00 06 86 9b sext.w	a3, a3
0x0000000080013d74: 00 07 07 1b sext.w	a4, a4
0x0000000080013d78: 08 e6 da 63 bge	a3, a4, 148
0x0000000080013e0c: 00 00 57 37 lui	a4, 5
0x0000000080013e10: 01 01 06 93 addi	a3, sp, 16
0x0000000080013e14: 19 07 07 13 addi	a4, a4, 400
0x0000000080013e18: 00 d7 07 33 add	a4, a4, a3
0x0000000080013e1c: ff ff e7 b7 lui	a5, 1048574
0x0000000080013e20: 00 f7 07 b3 add	a5, a4, a5
0x0000000080013e24: 00 10 07 13 addi	a4, zero, 1
0x0000000080013e28: 06 e7 a4 23 sw	a4, 104(a5)
0x0000000080013e2c: 00 20 07 13 addi	a4, zero, 2
0x0000000080013e30: 06 e7 a6 23 sw	a4, 108(a5)
0x0000000080013e34: 06 87 a6 83 lw	a3, 104(a5)
0x0000000080013e38: 06 c7 a7 03 lw	a4, 108(a5)
0x0000000080013e3c: 00 06 86 9b sext.w	a3, a3
0x0000000080013e40: 00 07 07 1b sext.w	a4, a4
0x0000000080013e44: 08 e6 ca 63 blt	a3, a4, 148
0x0000000080013ed8: 00 00 57 37 lui	a4, 5
0x0000000080013edc: 01 01 06 93 addi	a3, sp, 16
0x0000000080013ee0: 19 07 07 13 addi	a4, a4, 400
0x0000000080013ee4: 00 d7 07 33 add	a4, a4, a3
0x0000000080013ee8: ff ff e7 b7 lui	a5, 1048574
0x0000000080013eec: 00 f7 07 b3 add	a5, a4, a5
0x0000000080013ef0: 00 10 07 13 addi	a4, zero, 1
0x0000000080013ef4: 06 e7 a8 23 sw	a4, 112(a5)
0x0000000080013ef8: 80 00 07 37 lui	a4, 524288
0x0000000080013efc: ff e7 47 13 xori	a4, a4, -2
0x0000000080013f00: 06 e7 aa 23 sw	a4, 116(a5)
0x0000000080013f04: 07 07 a6 83 lw	a3, 112(a5)
0x0000000080013f08: 07 47 a7 03 lw	a4, 116(a5)
0x0000000080013f0c: 00 06 86 9b sext.w	a3, a3
0x0000000080013f10: 00 07 07 1b sext.w	a4, a4
0x0000000080013f14: 08 e6 cc 63 blt	a3, a4, 152
0x0000000080013fac: 00 00 57 37 lui	a4, 5
0x0000000080013fb0: 01 01 06 93 addi	a3, sp, 16
0x0000000080013fb4: 19 07 07 13 addi	a4, a4, 400
0x0000000080013fb8: 00 d7 07 33 add	a4, a4, a3
0x0000000080013fbc: ff ff e7 b7 lui	a5, 1048574
0x0000000080013fc0: 00 f7 07 b3 add	a5, a4, a5
0x0000000080013fc4: 00 10 07 13 addi	a4, zero, 1
0x0000000080013fc8: 06 e7 ac 23 sw	a4, 120(a5)
0x0000000080013fcc: 80 00 07 37 lui	a4, 524288
0x0000000080013fd0: ff f7 47 13 not	a4, a4
0x0000000080013fd4: 06 e7 ae 23 sw	a4, 124(a5)
0x0000000080013fd8: 07 87 a6 83 lw	a3, 120(a5)
0x0000000080013fdc: 07 c7 a7 03 lw	a4, 124(a5)
0x0000000080013fe0: 00 06 86 9b sext.w	a3, a3
0x0000000080013fe4: 00 07 07 1b sext.w	a4, a4
0x0000000080013fe8: 08 e6 cc 63 blt	a3, a4, 152
0x0000000080014080: 00 00 57 37 lui	a4, 5
0x0000000080014084: 01 01 06 93 addi	a3, sp, 16
0x0000000080014088: 19 07 07 13 addi	a4, a4, 400
0x000000008001408c: 00 d7 07 33 add	a4, a4, a3
0x0000000080014090: ff ff e7 b7 lui	a5, 1048574
0x0000000080014094: 00 f7 07 b3 add	a5, a4, a5
0x0000000080014098: 00 20 07 13 addi	a4, zero, 2
0x000000008001409c: 08 e7 a0 23 sw	a4, 128(a5)
0x00000000800140a0: 08 e7 a2 23 sw	a4, 132(a5)
0x00000000800140a4: 08 07 a6 83 lw	a3, 128(a5)
0x00000000800140a8: 08 47 a7 03 lw	a4, 132(a5)
0x00000000800140ac: 00 06 86 9b sext.w	a3, a3
0x00000000800140b0: 00 07 07 1b sext.w	a4, a4
0x00000000800140b4: 08 e6 da 63 bge	a3, a4, 148
0x0000000080014148: 00 00 57 37 lui	a4, 5
0x000000008001414c: 01 01 06 93 addi	a3, sp, 16
0x0000000080014150: 19 07 07 13 addi	a4, a4, 400
0x0000000080014154: 00 d7 07 33 add	a4, a4, a3
0x0000000080014158: ff ff e7 b7 lui	a5, 1048574
0x000000008001415c: 00 f7 07 b3 add	a5, a4, a5
0x0000000080014160: 00 20 07 13 addi	a4, zero, 2
0x0000000080014164: 08 e7 a4 23 sw	a4, 136(a5)
0x0000000080014168: 80 00 07 37 lui	a4, 524288
0x000000008001416c: ff e7 47 13 xori	a4, a4, -2
0x0000000080014170: 08 e7 a6 23 sw	a4, 140(a5)
0x0000000080014174: 08 87 a6 83 lw	a3, 136(a5)
0x0000000080014178: 08 c7 a7 03 lw	a4, 140(a5)
0x000000008001417c: 00 06 86 9b sext.w	a3, a3
0x0000000080014180: 00 07 07 1b sext.w	a4, a4
0x0000000080014184: 08 e6 cc 63 blt	a3, a4, 152
0x000000008001421c: 00 00 57 37 lui	a4, 5
0x0000000080014220: 01 01 06 93 addi	a3, sp, 16
0x0000000080014224: 19 07 07 13 addi	a4, a4, 400
0x0000000080014228: 00 d7 07 33 add	a4, a4, a3
0x000000008001422c: ff ff e7 b7 lui	a5, 1048574
0x0000000080014230: 00 f7 07 b3 add	a5, a4, a5
0x0000000080014234: 00 20 07 13 addi	a4, zero, 2
0x0000000080014238: 08 e7 a8 23 sw	a4, 144(a5)
0x000000008001423c: 80 00 07 37 lui	a4, 524288
0x0000000080014240: ff f7 47 13 not	a4, a4
0x0000000080014244: 08 e7 aa 23 sw	a4, 148(a5)
0x0000000080014248: 09 07 a6 83 lw	a3, 144(a5)
0x000000008001424c: 09 47 a7 03 lw	a4, 148(a5)
0x0000000080014250: 00 06 86 9b sext.w	a3, a3
0x0000000080014254: 00 07 07 1b sext.w	a4, a4
0x0000000080014258: 08 e6 cc 63 blt	a3, a4, 152
0x00000000800142f0: 00 00 57 37 lui	a4, 5
0x00000000800142f4: 01 01 06 93 addi	a3, sp, 16
0x00000000800142f8: 19 07 07 13 addi	a4, a4, 400
0x00000000800142fc: 00 d7 07 33 add	a4, a4, a3
0x0000000080014300: ff ff e7 b7 lui	a5, 1048574
0x0000000080014304: 00 f7 07 b3 add	a5, a4, a5
0x0000000080014308: 80 00 07 37 lui	a4, 524288
0x000000008001430c: ff e7 47 13 xori	a4, a4, -2
0x0000000080014310: 08 e7 ac 23 sw	a4, 152(a5)
0x0000000080014314: 08 e7 ae 23 sw	a4, 156(a5)
0x0000000080014318: 09 87 a6 83 lw	a3, 152(a5)
0x000000008001431c: 09 c7 a7 03 lw	a4, 156(a5)
0x0000000080014320: 00 06 86 9b sext.w	a3, a3
0x0000000080014324: 00 07 07 1b sext.w	a4, a4
0x0000000080014328: 08 e6 dc 63 bge	a3, a4, 152
0x00000000800143c0: 00 00 56 b7 lui	a3, 5
0x00000000800143c4: 19 06 86 93 addi	a3, a3, 400
0x00000000800143c8: 01 01 06 13 addi	a2, sp, 16
0x00000000800143cc: 80 00 07 37 lui	a4, 524288
0x00000000800143d0: 00 c6 86 b3 add	a3, a3, a2
0x00000000800143d4: ff ff e7 b7 lui	a5, 1048574
0x00000000800143d8: 00 f6 87 b3 add	a5, a3, a5
0x00000000800143dc: ff e7 46 93 xori	a3, a4, -2
0x00000000800143e0: 0a d7 a0 23 sw	a3, 160(a5)
0x00000000800143e4: ff f7 47 13 not	a4, a4
0x00000000800143e8: 0a e7 a2 23 sw	a4, 164(a5)
0x00000000800143ec: 0a 07 a6 83 lw	a3, 160(a5)
0x00000000800143f0: 0a 47 a7 03 lw	a4, 164(a5)
0x00000000800143f4: 00 06 86 9b sext.w	a3, a3
0x00000000800143f8: 00 07 07 1b sext.w	a4, a4
0x00000000800143fc: 08 e6 cc 63 blt	a3, a4, 152
0x0000000080014494: 00 00 57 37 lui	a4, 5
0x0000000080014498: 01 01 06 93 addi	a3, sp, 16
0x000000008001449c: 19 07 07 13 addi	a4, a4, 400
0x00000000800144a0: 00 d7 07 33 add	a4, a4, a3
0x00000000800144a4: ff ff e7 b7 lui	a5, 1048574
0x00000000800144a8: 00 f7 07 b3 add	a5, a4, a5
0x00000000800144ac: 80 00 07 37 lui	a4, 524288
0x00000000800144b0: ff f7 47 13 not	a4, a4
0x00000000800144b4: 0a e7 a4 23 sw	a4, 168(a5)
0x00000000800144b8: 0a e7 a6 23 sw	a4, 172(a5)
0x00000000800144bc: 0a 87 a6 83 lw	a3, 168(a5)
0x00000000800144c0: 0a c7 a7 03 lw	a4, 172(a5)
0x00000000800144c4: 00 06 86 9b sext.w	a3, a3
0x00000000800144c8: 00 07 07 1b sext.w	a4, a4
0x00000000800144cc: 08 e6 dc 63 bge	a3, a4, 152
0x0000000080014564: 00 00 57 37 lui	a4, 5
0x0000000080014568: 01 01 06 93 addi	a3, sp, 16
0x000000008001456c: 19 07 07 13 addi	a4, a4, 400
0x0000000080014570: 00 d7 07 33 add	a4, a4, a3
0x0000000080014574: ff ff e7 b7 lui	a5, 1048574
0x0000000080014578: 00 f7 07 b3 add	a5, a4, a5
0x000000008001457c: 80 00 07 37 lui	a4, 524288
0x0000000080014580: 0a e7 a8 23 sw	a4, 176(a5)
0x0000000080014584: 0a e7 aa 23 sw	a4, 180(a5)
0x0000000080014588: 0b 07 a6 83 lw	a3, 176(a5)
0x000000008001458c: 0b 47 a7 03 lw	a4, 180(a5)
0x0000000080014590: 00 06 86 9b sext.w	a3, a3
0x0000000080014594: 00 07 07 1b sext.w	a4, a4
0x0000000080014598: 08 d7 5a 63 bge	a4, a3, 148
0x000000008001462c: 00 00 57 37 lui	a4, 5
0x0000000080014630: 01 01 06 93 addi	a3, sp, 16
0x0000000080014634: 19 07 07 13 addi	a4, a4, 400
0x0000000080014638: 00 d7 07 33 add	a4, a4, a3
0x000000008001463c: ff ff e7 b7 lui	a5, 1048574
0x0000000080014640: 00 f7 07 b3 add	a5, a4, a5
0x0000000080014644: 80 00 07 37 lui	a4, 524288
0x0000000080014648: 0a e7 ac 23 sw	a4, 184(a5)
0x000000008001464c: 00 17 07 1b addiw	a4, a4, 1
0x0000000080014650: 0a e7 ae 23 sw	a4, 188(a5)
0x0000000080014654: 0b 87 a6 83 lw	a3, 184(a5)
0x0000000080014658: 0b c7 a7 03 lw	a4, 188(a5)
0x000000008001465c: 00 06 86 9b sext.w	a3, a3
0x0000000080014660: 00 07 07 1b sext.w	a4, a4
0x0000000080014664: 08 d7 5c 63 bge	a4, a3, 152
0x00000000800146fc: 00 00 57 37 lui	a4, 5
0x0000000080014700: 01 01 06 93 addi	a3, sp, 16
0x0000000080014704: 19 07 07 13 addi	a4, a4, 400
0x0000000080014708: 00 d7 07 33 add	a4, a4, a3
0x000000008001470c: ff ff e7 b7 lui	a5, 1048574
0x0000000080014710: 00 f7 07 b3 add	a5, a4, a5
0x0000000080014714: 80 00 07 37 lui	a4, 524288
0x0000000080014718: 0c e7 a0 23 sw	a4, 192(a5)
0x000000008001471c: ff e0 07 13 addi	a4, zero, -2
0x0000000080014720: 0c e7 a2 23 sw	a4, 196(a5)
0x0000000080014724: 0c 07 a6 83 lw	a3, 192(a5)
0x0000000080014728: 0c 47 a7 03 lw	a4, 196(a5)
0x000000008001472c: 00 06 86 9b sext.w	a3, a3
0x0000000080014730: 00 07 07 1b sext.w	a4, a4
0x0000000080014734: 08 d7 5a 63 bge	a4, a3, 148
0x00000000800147c8: 00 00 57 37 lui	a4, 5
0x00000000800147cc: 01 01 06 93 addi	a3, sp, 16
0x00000000800147d0: 19 07 07 13 addi	a4, a4, 400
0x00000000800147d4: 00 d7 07 33 add	a4, a4, a3
0x00000000800147d8: ff ff e7 b7 lui	a5, 1048574
0x00000000800147dc: 00 f7 07 b3 add	a5, a4, a5
0x00000000800147e0: 80 00 07 37 lui	a4, 524288
0x00000000800147e4: 0c e7 a4 23 sw	a4, 200(a5)
0x00000000800147e8: ff f0 07 13 addi	a4, zero, -1
0x00000000800147ec: 0c e7 a6 23 sw	a4, 204(a5)
0x00000000800147f0: 0c 87 a6 83 lw	a3, 200(a5)
0x00000000800147f4: 0c c7 a7 03 lw	a4, 204(a5)
0x00000000800147f8: 00 06 86 9b sext.w	a3, a3
0x00000000800147fc: 00 07 07 1b sext.w	a4, a4
0x0000000080014800: 08 d7 5a 63 bge	a4, a3, 148
0x0000000080014894: 00 00 57 37 lui	a4, 5
0x0000000080014898: 01 01 06 93 addi	a3, sp, 16
0x000000008001489c: 19 07 07 13 addi	a4, a4, 400
0x00000000800148a0: 00 d7 07 33 add	a4, a4, a3
0x00000000800148a4: ff ff e7 b7 lui	a5, 1048574
0x00000000800148a8: 00 f7 07 b3 add	a5, a4, a5
0x00000000800148ac: 80 00 07 37 lui	a4, 524288
0x00000000800148b0: 0c e7 a8 23 sw	a4, 208(a5)
0x00000000800148b4: 0c 07 aa 23 sw	zero, 212(a5)
0x00000000800148b8: 0d 07 a6 83 lw	a3, 208(a5)
0x00000000800148bc: 0d 47 a7 03 lw	a4, 212(a5)
0x00000000800148c0: 00 06 86 9b sext.w	a3, a3
0x00000000800148c4: 00 07 07 1b sext.w	a4, a4
0x00000000800148c8: 08 d7 5a 63 bge	a4, a3, 148
0x000000008001495c: 00 00 57 37 lui	a4, 5
0x0000000080014960: 01 01 06 93 addi	a3, sp, 16
0x0000000080014964: 19 07 07 13 addi	a4, a4, 400
0x0000000080014968: 00 d7 07 33 add	a4, a4, a3
0x000000008001496c: ff ff e7 b7 lui	a5, 1048574
0x0000000080014970: 00 f7 07 b3 add	a5, a4, a5
0x0000000080014974: 80 00 07 37 lui	a4, 524288
0x0000000080014978: 0c e7 ac 23 sw	a4, 216(a5)
0x000000008001497c: 00 10 07 13 addi	a4, zero, 1
0x0000000080014980: 0c e7 ae 23 sw	a4, 220(a5)
0x0000000080014984: 0d 87 a6 83 lw	a3, 216(a5)
0x0000000080014988: 0d c7 a7 03 lw	a4, 220(a5)
0x000000008001498c: 00 06 86 9b sext.w	a3, a3
0x0000000080014990: 00 07 07 1b sext.w	a4, a4
0x0000000080014994: 08 d7 5a 63 bge	a4, a3, 148
0x0000000080014a28: 00 00 57 37 lui	a4, 5
0x0000000080014a2c: 01 01 06 93 addi	a3, sp, 16
0x0000000080014a30: 19 07 07 13 addi	a4, a4, 400
0x0000000080014a34: 00 d7 07 33 add	a4, a4, a3
0x0000000080014a38: ff ff e7 b7 lui	a5, 1048574
0x0000000080014a3c: 00 f7 07 b3 add	a5, a4, a5
0x0000000080014a40: 80 00 07 37 lui	a4, 524288
0x0000000080014a44: 0e e7 a0 23 sw	a4, 224(a5)
0x0000000080014a48: 00 20 07 13 addi	a4, zero, 2
0x0000000080014a4c: 0e e7 a2 23 sw	a4, 228(a5)
0x0000000080014a50: 0e 07 a6 83 lw	a3, 224(a5)
0x0000000080014a54: 0e 47 a7 03 lw	a4, 228(a5)
0x0000000080014a58: 00 06 86 9b sext.w	a3, a3
0x0000000080014a5c: 00 07 07 1b sext.w	a4, a4
0x0000000080014a60: 08 d7 5a 63 bge	a4, a3, 148
0x0000000080014af4: 00 00 57 37 lui	a4, 5
0x0000000080014af8: 01 01 06 93 addi	a3, sp, 16
0x0000000080014afc: 19 07 07 13 addi	a4, a4, 400
0x0000000080014b00: 00 d7 07 33 add	a4, a4, a3
0x0000000080014b04: ff ff e7 b7 lui	a5, 1048574
0x0000000080014b08: 00 f7 07 b3 add	a5, a4, a5
0x0000000080014b0c: 80 00 07 37 lui	a4, 524288
0x0000000080014b10: 0e e7 a4 23 sw	a4, 232(a5)
0x0000000080014b14: ff e7 47 13 xori	a4, a4, -2
0x0000000080014b18: 0e e7 a6 23 sw	a4, 236(a5)
0x0000000080014b1c: 0e 87 a6 83 lw	a3, 232(a5)
0x0000000080014b20: 0e c7 a7 03 lw	a4, 236(a5)
0x0000000080014b24: 00 06 86 9b sext.w	a3, a3
0x0000000080014b28: 00 07 07 1b sext.w	a4, a4
0x0000000080014b2c: 08 d7 5c 63 bge	a4, a3, 152
0x0000000080014bc4: 00 00 57 37 lui	a4, 5
0x0000000080014bc8: 01 01 06 93 addi	a3, sp, 16
0x0000000080014bcc: 19 07 07 13 addi	a4, a4, 400
0x0000000080014bd0: 00 d7 07 33 add	a4, a4, a3
0x0000000080014bd4: ff ff e7 b7 lui	a5, 1048574
0x0000000080014bd8: 00 f7 07 b3 add	a5, a4, a5
0x0000000080014bdc: 80 00 07 37 lui	a4, 524288
0x0000000080014be0: 0e e7 a8 23 sw	a4, 240(a5)
0x0000000080014be4: ff f7 47 13 not	a4, a4
0x0000000080014be8: 0e e7 aa 23 sw	a4, 244(a5)
0x0000000080014bec: 0f 07 a6 83 lw	a3, 240(a5)
0x0000000080014bf0: 0f 47 a7 03 lw	a4, 244(a5)
0x0000000080014bf4: 00 06 86 9b sext.w	a3, a3
0x0000000080014bf8: 00 07 07 1b sext.w	a4, a4
0x0000000080014bfc: 08 d7 5c 63 bge	a4, a3, 152
0x0000000080014c94: 00 00 57 37 lui	a4, 5
0x0000000080014c98: 01 01 06 93 addi	a3, sp, 16
0x0000000080014c9c: 19 07 07 13 addi	a4, a4, 400
0x0000000080014ca0: 00 d7 07 33 add	a4, a4, a3
0x0000000080014ca4: ff ff e7 b7 lui	a5, 1048574
0x0000000080014ca8: 00 f7 07 b3 add	a5, a4, a5
0x0000000080014cac: 80 00 07 37 lui	a4, 524288
0x0000000080014cb0: 00 17 07 1b addiw	a4, a4, 1
0x0000000080014cb4: 0e e7 ac 23 sw	a4, 248(a5)
0x0000000080014cb8: 0e e7 ae 23 sw	a4, 252(a5)
0x0000000080014cbc: 0f 87 a6 83 lw	a3, 248(a5)
0x0000000080014cc0: 0f c7 a7 03 lw	a4, 252(a5)
0x0000000080014cc4: 00 06 86 9b sext.w	a3, a3
0x0000000080014cc8: 00 07 07 1b sext.w	a4, a4
0x0000000080014ccc: 08 d7 5c 63 bge	a4, a3, 152
0x0000000080014d64: 00 00 57 37 lui	a4, 5
0x0000000080014d68: 01 01 06 93 addi	a3, sp, 16
0x0000000080014d6c: 19 07 07 13 addi	a4, a4, 400
0x0000000080014d70: 00 d7 07 33 add	a4, a4, a3
0x0000000080014d74: ff ff e7 b7 lui	a5, 1048574
0x0000000080014d78: 00 f7 07 b3 add	a5, a4, a5
0x0000000080014d7c: 80 00 07 37 lui	a4, 524288
0x0000000080014d80: 00 17 07 1b addiw	a4, a4, 1
0x0000000080014d84: 10 e7 a0 23 sw	a4, 256(a5)
0x0000000080014d88: ff e0 07 13 addi	a4, zero, -2
0x0000000080014d8c: 10 e7 a2 23 sw	a4, 260(a5)
0x0000000080014d90: 10 07 a6 83 lw	a3, 256(a5)
0x0000000080014d94: 10 47 a7 03 lw	a4, 260(a5)
0x0000000080014d98: 00 06 86 9b sext.w	a3, a3
0x0000000080014d9c: 00 07 07 1b sext.w	a4, a4
0x0000000080014da0: 08 d7 5c 63 bge	a4, a3, 152
0x0000000080014e38: 00 00 57 37 lui	a4, 5
0x0000000080014e3c: 01 01 06 93 addi	a3, sp, 16
0x0000000080014e40: 19 07 07 13 addi	a4, a4, 400
0x0000000080014e44: 00 d7 07 33 add	a4, a4, a3
0x0000000080014e48: ff ff e7 b7 lui	a5, 1048574
0x0000000080014e4c: 00 f7 07 b3 add	a5, a4, a5
0x0000000080014e50: 80 00 07 37 lui	a4, 524288
0x0000000080014e54: 00 17 07 1b addiw	a4, a4, 1
0x0000000080014e58: 10 e7 a4 23 sw	a4, 264(a5)
0x0000000080014e5c: ff f0 07 13 addi	a4, zero, -1
0x0000000080014e60: 10 e7 a6 23 sw	a4, 268(a5)
0x0000000080014e64: 10 87 a6 83 lw	a3, 264(a5)
0x0000000080014e68: 10 c7 a7 03 lw	a4, 268(a5)
0x0000000080014e6c: 00 06 86 9b sext.w	a3, a3
0x0000000080014e70: 00 07 07 1b sext.w	a4, a4
0x0000000080014e74: 08 d7 5c 63 bge	a4, a3, 152
0x0000000080014f0c: 00 00 57 37 lui	a4, 5
0x0000000080014f10: 01 01 06 93 addi	a3, sp, 16
0x0000000080014f14: 19 07 07 13 addi	a4, a4, 400
0x0000000080014f18: 00 d7 07 33 add	a4, a4, a3
0x0000000080014f1c: ff ff e7 b7 lui	a5, 1048574
0x0000000080014f20: 00 f7 07 b3 add	a5, a4, a5
0x0000000080014f24: 80 00 07 37 lui	a4, 524288
0x0000000080014f28: 00 17 07 1b addiw	a4, a4, 1
0x0000000080014f2c: 10 e7 a8 23 sw	a4, 272(a5)
0x0000000080014f30: 10 07 aa 23 sw	zero, 276(a5)
0x0000000080014f34: 11 07 a6 83 lw	a3, 272(a5)
0x0000000080014f38: 11 47 a7 03 lw	a4, 276(a5)
0x0000000080014f3c: 00 06 86 9b sext.w	a3, a3
0x0000000080014f40: 00 07 07 1b sext.w	a4, a4
0x0000000080014f44: 08 d7 5c 63 bge	a4, a3, 152
0x0000000080014fdc: 00 00 57 37 lui	a4, 5
0x0000000080014fe0: 01 01 06 93 addi	a3, sp, 16
0x0000000080014fe4: 19 07 07 13 addi	a4, a4, 400
0x0000000080014fe8: 00 d7 07 33 add	a4, a4, a3
0x0000000080014fec: ff ff e7 b7 lui	a5, 1048574
0x0000000080014ff0: 00 f7 07 b3 add	a5, a4, a5
0x0000000080014ff4: 80 00 07 37 lui	a4, 524288
0x0000000080014ff8: 00 17 07 1b addiw	a4, a4, 1
0x0000000080014ffc: 10 e7 ac 23 sw	a4, 280(a5)
0x0000000080015000: 00 10 07 13 addi	a4, zero, 1
0x0000000080015004: 10 e7 ae 23 sw	a4, 284(a5)
0x0000000080015008: 11 87 a6 83 lw	a3, 280(a5)
0x000000008001500c: 11 c7 a7 03 lw	a4, 284(a5)
0x0000000080015010: 00 06 86 9b sext.w	a3, a3
0x0000000080015014: 00 07 07 1b sext.w	a4, a4
0x0000000080015018: 08 d7 5c 63 bge	a4, a3, 152
0x00000000800150b0: 00 00 57 37 lui	a4, 5
0x00000000800150b4: 01 01 06 93 addi	a3, sp, 16
0x00000000800150b8: 19 07 07 13 addi	a4, a4, 400
0x00000000800150bc: 00 d7 07 33 add	a4, a4, a3
0x00000000800150c0: ff ff e7 b7 lui	a5, 1048574
0x00000000800150c4: 00 f7 07 b3 add	a5, a4, a5
0x00000000800150c8: 80 00 07 37 lui	a4, 524288
0x00000000800150cc: 00 17 07 1b addiw	a4, a4, 1
0x00000000800150d0: 12 e7 a0 23 sw	a4, 288(a5)
0x00000000800150d4: 00 20 07 13 addi	a4, zero, 2
0x00000000800150d8: 12 e7 a2 23 sw	a4, 292(a5)
0x00000000800150dc: 12 07 a6 83 lw	a3, 288(a5)
0x00000000800150e0: 12 47 a7 03 lw	a4, 292(a5)
0x00000000800150e4: 00 06 86 9b sext.w	a3, a3
0x00000000800150e8: 00 07 07 1b sext.w	a4, a4
0x00000000800150ec: 08 d7 5c 63 bge	a4, a3, 152
0x0000000080015184: 00 00 56 b7 lui	a3, 5
0x0000000080015188: 19 06 86 93 addi	a3, a3, 400
0x000000008001518c: 01 01 06 13 addi	a2, sp, 16
0x0000000080015190: 80 00 07 37 lui	a4, 524288
0x0000000080015194: 00 c6 86 b3 add	a3, a3, a2
0x0000000080015198: ff ff e7 b7 lui	a5, 1048574
0x000000008001519c: 00 f6 87 b3 add	a5, a3, a5
0x00000000800151a0: 00 17 06 9b addiw	a3, a4, 1
0x00000000800151a4: 12 d7 a4 23 sw	a3, 296(a5)
0x00000000800151a8: ff e7 47 13 xori	a4, a4, -2
0x00000000800151ac: 12 e7 a6 23 sw	a4, 300(a5)
0x00000000800151b0: 12 87 a6 83 lw	a3, 296(a5)
0x00000000800151b4: 12 c7 a7 03 lw	a4, 300(a5)
0x00000000800151b8: 00 06 86 9b sext.w	a3, a3
0x00000000800151bc: 00 07 07 1b sext.w	a4, a4
0x00000000800151c0: 08 d7 5c 63 bge	a4, a3, 152
0x0000000080015258: 00 00 56 b7 lui	a3, 5
0x000000008001525c: 19 06 86 93 addi	a3, a3, 400
0x0000000080015260: 01 01 06 13 addi	a2, sp, 16
0x0000000080015264: 80 00 07 37 lui	a4, 524288
0x0000000080015268: 00 c6 86 b3 add	a3, a3, a2
0x000000008001526c: ff ff e7 b7 lui	a5, 1048574
0x0000000080015270: 00 f6 87 b3 add	a5, a3, a5
0x0000000080015274: 00 17 06 9b addiw	a3, a4, 1
0x0000000080015278: 12 d7 a8 23 sw	a3, 304(a5)
0x000000008001527c: ff f7 47 13 not	a4, a4
0x0000000080015280: 12 e7 aa 23 sw	a4, 308(a5)
0x0000000080015284: 13 07 a6 83 lw	a3, 304(a5)
0x0000000080015288: 13 47 a7 03 lw	a4, 308(a5)
0x000000008001528c: 00 06 86 9b sext.w	a3, a3
0x0000000080015290: 00 07 07 1b sext.w	a4, a4
0x0000000080015294: 08 d7 5c 63 bge	a4, a3, 152
0x000000008001532c: 00 00 57 37 lui	a4, 5
0x0000000080015330: 01 01 06 93 addi	a3, sp, 16
0x0000000080015334: 19 07 07 13 addi	a4, a4, 400
0x0000000080015338: 00 d7 07 33 add	a4, a4, a3
0x000000008001533c: ff ff e7 b7 lui	a5, 1048574
0x0000000080015340: 00 f7 07 b3 add	a5, a4, a5
0x0000000080015344: ff e0 07 13 addi	a4, zero, -2
0x0000000080015348: 12 e7 ac 23 sw	a4, 312(a5)
0x000000008001534c: 12 e7 ae 23 sw	a4, 316(a5)
0x0000000080015350: 13 87 a6 83 lw	a3, 312(a5)
0x0000000080015354: 13 c7 a7 03 lw	a4, 316(a5)
0x0000000080015358: 00 06 86 9b sext.w	a3, a3
0x000000008001535c: 00 07 07 1b sext.w	a4, a4
0x0000000080015360: 08 d7 5a 63 bge	a4, a3, 148
0x00000000800153f4: 00 00 57 37 lui	a4, 5
0x00000000800153f8: 01 01 06 93 addi	a3, sp, 16
0x00000000800153fc: 19 07 07 13 addi	a4, a4, 400
0x0000000080015400: 00 d7 07 33 add	a4, a4, a3
0x0000000080015404: ff ff e7 b7 lui	a5, 1048574
0x0000000080015408: 00 f7 07 b3 add	a5, a4, a5
0x000000008001540c: ff e0 07 13 addi	a4, zero, -2
0x0000000080015410: 14 e7 a0 23 sw	a4, 320(a5)
0x0000000080015414: ff f0 07 13 addi	a4, zero, -1
0x0000000080015418: 14 e7 a2 23 sw	a4, 324(a5)
0x000000008001541c: 14 07 a6 83 lw	a3, 320(a5)
0x0000000080015420: 14 47 a7 03 lw	a4, 324(a5)
0x0000000080015424: 00 06 86 9b sext.w	a3, a3
0x0000000080015428: 00 07 07 1b sext.w	a4, a4
0x000000008001542c: 08 d7 5a 63 bge	a4, a3, 148
0x00000000800154c0: 00 00 57 37 lui	a4, 5
0x00000000800154c4: 01 01 06 93 addi	a3, sp, 16
0x00000000800154c8: 19 07 07 13 addi	a4, a4, 400
0x00000000800154cc: 00 d7 07 33 add	a4, a4, a3
0x00000000800154d0: ff ff e7 b7 lui	a5, 1048574
0x00000000800154d4: 00 f7 07 b3 add	a5, a4, a5
0x00000000800154d8: ff e0 07 13 addi	a4, zero, -2
0x00000000800154dc: 14 e7 a4 23 sw	a4, 328(a5)
0x00000000800154e0: 14 07 a6 23 sw	zero, 332(a5)
0x00000000800154e4: 14 87 a6 83 lw	a3, 328(a5)
0x00000000800154e8: 14 c7 a7 03 lw	a4, 332(a5)
0x00000000800154ec: 00 06 86 9b sext.w	a3, a3
0x00000000800154f0: 00 07 07 1b sext.w	a4, a4
0x00000000800154f4: 08 d7 5a 63 bge	a4, a3, 148
0x0000000080015588: 00 00 57 37 lui	a4, 5
0x000000008001558c: 01 01 06 93 addi	a3, sp, 16
0x0000000080015590: 19 07 07 13 addi	a4, a4, 400
0x0000000080015594: 00 d7 07 33 add	a4, a4, a3
0x0000000080015598: ff ff e7 b7 lui	a5, 1048574
0x000000008001559c: 00 f7 07 b3 add	a5, a4, a5
0x00000000800155a0: ff e0 07 13 addi	a4, zero, -2
0x00000000800155a4: 14 e7 a8 23 sw	a4, 336(a5)
0x00000000800155a8: 00 10 07 13 addi	a4, zero, 1
0x00000000800155ac: 14 e7 aa 23 sw	a4, 340(a5)
0x00000000800155b0: 15 07 a6 83 lw	a3, 336(a5)
0x00000000800155b4: 15 47 a7 03 lw	a4, 340(a5)
0x00000000800155b8: 00 06 86 9b sext.w	a3, a3
0x00000000800155bc: 00 07 07 1b sext.w	a4, a4
0x00000000800155c0: 08 d7 5a 63 bge	a4, a3, 148
0x0000000080015654: 00 00 57 37 lui	a4, 5
0x0000000080015658: 01 01 06 93 addi	a3, sp, 16
0x000000008001565c: 19 07 07 13 addi	a4, a4, 400
0x0000000080015660: 00 d7 07 33 add	a4, a4, a3
0x0000000080015664: ff ff e7 b7 lui	a5, 1048574
0x0000000080015668: 00 f7 07 b3 add	a5, a4, a5
0x000000008001566c: ff e0 07 13 addi	a4, zero, -2
0x0000000080015670: 14 e7 ac 23 sw	a4, 344(a5)
0x0000000080015674: 00 20 07 13 addi	a4, zero, 2
0x0000000080015678: 14 e7 ae 23 sw	a4, 348(a5)
0x000000008001567c: 15 87 a6 83 lw	a3, 344(a5)
0x0000000080015680: 15 c7 a7 03 lw	a4, 348(a5)
0x0000000080015684: 00 06 86 9b sext.w	a3, a3
0x0000000080015688: 00 07 07 1b sext.w	a4, a4
0x000000008001568c: 08 d7 5a 63 bge	a4, a3, 148
0x0000000080015720: 00 00 57 37 lui	a4, 5
0x0000000080015724: 01 01 06 93 addi	a3, sp, 16
0x0000000080015728: 19 07 07 13 addi	a4, a4, 400
0x000000008001572c: 00 d7 07 33 add	a4, a4, a3
0x0000000080015730: ff ff e7 b7 lui	a5, 1048574
0x0000000080015734: 00 f7 07 b3 add	a5, a4, a5
0x0000000080015738: ff e0 07 13 addi	a4, zero, -2
0x000000008001573c: 16 e7 a0 23 sw	a4, 352(a5)
0x0000000080015740: 80 00 07 37 lui	a4, 524288
0x0000000080015744: ff e7 47 13 xori	a4, a4, -2
0x0000000080015748: 16 e7 a2 23 sw	a4, 356(a5)
0x000000008001574c: 16 07 a6 83 lw	a3, 352(a5)
0x0000000080015750: 16 47 a7 03 lw	a4, 356(a5)
0x0000000080015754: 00 06 86 9b sext.w	a3, a3
0x0000000080015758: 00 07 07 1b sext.w	a4, a4
0x000000008001575c: 08 d7 5c 63 bge	a4, a3, 152
0x00000000800157f4: 00 00 57 37 lui	a4, 5
0x00000000800157f8: 01 01 06 93 addi	a3, sp, 16
0x00000000800157fc: 19 07 07 13 addi	a4, a4, 400
0x0000000080015800: 00 d7 07 33 add	a4, a4, a3
0x0000000080015804: ff ff e7 b7 lui	a5, 1048574
0x0000000080015808: 00 f7 07 b3 add	a5, a4, a5
0x000000008001580c: ff e0 07 13 addi	a4, zero, -2
0x0000000080015810: 16 e7 a4 23 sw	a4, 360(a5)
0x0000000080015814: 80 00 07 37 lui	a4, 524288
0x0000000080015818: ff f7 47 13 not	a4, a4
0x000000008001581c: 16 e7 a6 23 sw	a4, 364(a5)
0x0000000080015820: 16 87 a6 83 lw	a3, 360(a5)
0x0000000080015824: 16 c7 a7 03 lw	a4, 364(a5)
0x0000000080015828: 00 06 86 9b sext.w	a3, a3
0x000000008001582c: 00 07 07 1b sext.w	a4, a4
0x0000000080015830: 08 d7 5c 63 bge	a4, a3, 152
0x00000000800158c8: 00 00 57 37 lui	a4, 5
0x00000000800158cc: 01 01 06 93 addi	a3, sp, 16
0x00000000800158d0: 19 07 07 13 addi	a4, a4, 400
0x00000000800158d4: 00 d7 07 33 add	a4, a4, a3
0x00000000800158d8: ff ff e7 b7 lui	a5, 1048574
0x00000000800158dc: 00 f7 07 b3 add	a5, a4, a5
0x00000000800158e0: ff f0 07 13 addi	a4, zero, -1
0x00000000800158e4: 16 e7 a8 23 sw	a4, 368(a5)
0x00000000800158e8: 16 e7 aa 23 sw	a4, 372(a5)
0x00000000800158ec: 17 07 a6 83 lw	a3, 368(a5)
0x00000000800158f0: 17 47 a7 03 lw	a4, 372(a5)
0x00000000800158f4: 00 06 86 9b sext.w	a3, a3
0x00000000800158f8: 00 07 07 1b sext.w	a4, a4
0x00000000800158fc: 08 d7 5a 63 bge	a4, a3, 148
0x0000000080015990: 00 00 57 37 lui	a4, 5
0x0000000080015994: 01 01 06 93 addi	a3, sp, 16
0x0000000080015998: 19 07 07 13 addi	a4, a4, 400
0x000000008001599c: 00 d7 07 33 add	a4, a4, a3
0x00000000800159a0: ff ff e7 b7 lui	a5, 1048574
0x00000000800159a4: 00 f7 07 b3 add	a5, a4, a5
0x00000000800159a8: ff f0 07 13 addi	a4, zero, -1
0x00000000800159ac: 16 e7 ac 23 sw	a4, 376(a5)
0x00000000800159b0: 16 07 ae 23 sw	zero, 380(a5)
0x00000000800159b4: 17 87 a6 83 lw	a3, 376(a5)
0x00000000800159b8: 17 c7 a7 03 lw	a4, 380(a5)
0x00000000800159bc: 00 06 86 9b sext.w	a3, a3
0x00000000800159c0: 00 07 07 1b sext.w	a4, a4
0x00000000800159c4: 08 d7 5a 63 bge	a4, a3, 148
0x0000000080015a58: 00 00 57 37 lui	a4, 5
0x0000000080015a5c: 01 01 06 93 addi	a3, sp, 16
0x0000000080015a60: 19 07 07 13 addi	a4, a4, 400
0x0000000080015a64: 00 d7 07 33 add	a4, a4, a3
0x0000000080015a68: ff ff e7 b7 lui	a5, 1048574
0x0000000080015a6c: 00 f7 07 b3 add	a5, a4, a5
0x0000000080015a70: ff f0 07 13 addi	a4, zero, -1
0x0000000080015a74: 18 e7 a0 23 sw	a4, 384(a5)
0x0000000080015a78: 00 10 07 13 addi	a4, zero, 1
0x0000000080015a7c: 18 e7 a2 23 sw	a4, 388(a5)
0x0000000080015a80: 18 07 a6 83 lw	a3, 384(a5)
0x0000000080015a84: 18 47 a7 03 lw	a4, 388(a5)
0x0000000080015a88: 00 06 86 9b sext.w	a3, a3
0x0000000080015a8c: 00 07 07 1b sext.w	a4, a4
0x0000000080015a90: 08 d7 5a 63 bge	a4, a3, 148
0x0000000080015b24: 00 00 57 37 lui	a4, 5
0x0000000080015b28: 01 01 06 93 addi	a3, sp, 16
0x0000000080015b2c: 19 07 07 13 addi	a4, a4, 400
0x0000000080015b30: 00 d7 07 33 add	a4, a4, a3
0x0000000080015b34: ff ff e7 b7 lui	a5, 1048574
0x0000000080015b38: 00 f7 07 b3 add	a5, a4, a5
0x0000000080015b3c: ff f0 07 13 addi	a4, zero, -1
0x0000000080015b40: 18 e7 a4 23 sw	a4, 392(a5)
0x0000000080015b44: 00 20 07 13 addi	a4, zero, 2
0x0000000080015b48: 18 e7 a6 23 sw	a4, 396(a5)
0x0000000080015b4c: 18 87 a6 83 lw	a3, 392(a5)
0x0000000080015b50: 18 c7 a7 03 lw	a4, 396(a5)
0x0000000080015b54: 00 06 86 9b sext.w	a3, a3
0x0000000080015b58: 00 07 07 1b sext.w	a4, a4
0x0000000080015b5c: 08 d7 5a 63 bge	a4, a3, 148
0x0000000080015bf0: 00 00 57 37 lui	a4, 5
0x0000000080015bf4: 01 01 06 93 addi	a3, sp, 16
0x0000000080015bf8: 19 07 07 13 addi	a4, a4, 400
0x0000000080015bfc: 00 d7 07 33 add	a4, a4, a3
0x0000000080015c00: ff ff e7 b7 lui	a5, 1048574
0x0000000080015c04: 00 f7 07 b3 add	a5, a4, a5
0x0000000080015c08: ff f0 07 13 addi	a4, zero, -1
0x0000000080015c0c: 18 e7 a8 23 sw	a4, 400(a5)
0x0000000080015c10: 80 00 07 37 lui	a4, 524288
0x0000000080015c14: ff e7 47 13 xori	a4, a4, -2
0x0000000080015c18: 18 e7 aa 23 sw	a4, 404(a5)
0x0000000080015c1c: 19 07 a6 83 lw	a3, 400(a5)
0x0000000080015c20: 19 47 a7 03 lw	a4, 404(a5)
0x0000000080015c24: 00 06 86 9b sext.w	a3, a3
0x0000000080015c28: 00 07 07 1b sext.w	a4, a4
0x0000000080015c2c: 08 d7 5c 63 bge	a4, a3, 152
0x0000000080015cc4: 00 00 57 37 lui	a4, 5
0x0000000080015cc8: 01 01 06 93 addi	a3, sp, 16
0x0000000080015ccc: 19 07 07 13 addi	a4, a4, 400
0x0000000080015cd0: 00 d7 07 33 add	a4, a4, a3
0x0000000080015cd4: ff ff e7 b7 lui	a5, 1048574
0x0000000080015cd8: 00 f7 07 b3 add	a5, a4, a5
0x0000000080015cdc: ff f0 07 13 addi	a4, zero, -1
0x0000000080015ce0: 18 e7 ac 23 sw	a4, 408(a5)
0x0000000080015ce4: 80 00 07 37 lui	a4, 524288
0x0000000080015ce8: ff f7 47 13 not	a4, a4
0x0000000080015cec: 18 e7 ae 23 sw	a4, 412(a5)
0x0000000080015cf0: 19 87 a6 83 lw	a3, 408(a5)
0x0000000080015cf4: 19 c7 a7 03 lw	a4, 412(a5)
0x0000000080015cf8: 00 06 86 9b sext.w	a3, a3
0x0000000080015cfc: 00 07 07 1b sext.w	a4, a4
0x0000000080015d00: 08 d7 5c 63 bge	a4, a3, 152
0x0000000080015d98: 00 00 57 37 lui	a4, 5
0x0000000080015d9c: 01 01 06 93 addi	a3, sp, 16
0x0000000080015da0: 19 07 07 13 addi	a4, a4, 400
0x0000000080015da4: 00 d7 07 33 add	a4, a4, a3
0x0000000080015da8: ff ff e7 b7 lui	a5, 1048574
0x0000000080015dac: 00 f7 07 b3 add	a5, a4, a5
0x0000000080015db0: 1a 07 a0 23 sw	zero, 416(a5)
0x0000000080015db4: 1a 07 a2 23 sw	zero, 420(a5)
0x0000000080015db8: 1a 07 a6 83 lw	a3, 416(a5)
0x0000000080015dbc: 1a 47 a7 03 lw	a4, 420(a5)
0x0000000080015dc0: 00 06 86 9b sext.w	a3, a3
0x0000000080015dc4: 00 07 07 1b sext.w	a4, a4
0x0000000080015dc8: 08 d7 5a 63 bge	a4, a3, 148
0x0000000080015e5c: 00 00 57 37 lui	a4, 5
0x0000000080015e60: 01 01 06 93 addi	a3, sp, 16
0x0000000080015e64: 19 07 07 13 addi	a4, a4, 400
0x0000000080015e68: 00 d7 07 33 add	a4, a4, a3
0x0000000080015e6c: ff ff e7 b7 lui	a5, 1048574
0x0000000080015e70: 00 f7 07 b3 add	a5, a4, a5
0x0000000080015e74: 1a 07 a4 23 sw	zero, 424(a5)
0x0000000080015e78: 00 10 07 13 addi	a4, zero, 1
0x0000000080015e7c: 1a e7 a6 23 sw	a4, 428(a5)
0x0000000080015e80: 1a 87 a6 83 lw	a3, 424(a5)
0x0000000080015e84: 1a c7 a7 03 lw	a4, 428(a5)
0x0000000080015e88: 00 06 86 9b sext.w	a3, a3
0x0000000080015e8c: 00 07 07 1b sext.w	a4, a4
0x0000000080015e90: 08 d7 5a 63 bge	a4, a3, 148
0x0000000080015f24: 00 00 57 37 lui	a4, 5
0x0000000080015f28: 01 01 06 93 addi	a3, sp, 16
0x0000000080015f2c: 19 07 07 13 addi	a4, a4, 400
0x0000000080015f30: 00 d7 07 33 add	a4, a4, a3
0x0000000080015f34: ff ff e7 b7 lui	a5, 1048574
0x0000000080015f38: 00 f7 07 b3 add	a5, a4, a5
0x0000000080015f3c: 1a 07 a8 23 sw	zero, 432(a5)
0x0000000080015f40: 00 20 07 13 addi	a4, zero, 2
0x0000000080015f44: 1a e7 aa 23 sw	a4, 436(a5)
0x0000000080015f48: 1b 07 a6 83 lw	a3, 432(a5)
0x0000000080015f4c: 1b 47 a7 03 lw	a4, 436(a5)
0x0000000080015f50: 00 06 86 9b sext.w	a3, a3
0x0000000080015f54: 00 07 07 1b sext.w	a4, a4
0x0000000080015f58: 08 d7 5a 63 bge	a4, a3, 148
0x0000000080015fec: 00 00 57 37 lui	a4, 5
0x0000000080015ff0: 01 01 06 93 addi	a3, sp, 16
0x0000000080015ff4: 19 07 07 13 addi	a4, a4, 400
0x0000000080015ff8: 00 d7 07 33 add	a4, a4, a3
0x0000000080015ffc: ff ff e7 b7 lui	a5, 1048574
0x0000000080016000: 00 f7 07 b3 add	a5, a4, a5
0x0000000080016004: 80 00 07 37 lui	a4, 524288
0x0000000080016008: 1a 07 ac 23 sw	zero, 440(a5)
0x000000008001600c: ff e7 47 13 xori	a4, a4, -2
0x0000000080016010: 1a e7 ae 23 sw	a4, 444(a5)
0x0000000080016014: 1b 87 a6 83 lw	a3, 440(a5)
0x0000000080016018: 1b c7 a7 03 lw	a4, 444(a5)
0x000000008001601c: 00 06 86 9b sext.w	a3, a3
0x0000000080016020: 00 07 07 1b sext.w	a4, a4
0x0000000080016024: 08 d7 5c 63 bge	a4, a3, 152
0x00000000800160bc: 00 00 57 37 lui	a4, 5
0x00000000800160c0: 01 01 06 93 addi	a3, sp, 16
0x00000000800160c4: 19 07 07 13 addi	a4, a4, 400
0x00000000800160c8: 00 d7 07 33 add	a4, a4, a3
0x00000000800160cc: ff ff e7 b7 lui	a5, 1048574
0x00000000800160d0: 00 f7 07 b3 add	a5, a4, a5
0x00000000800160d4: 80 00 07 37 lui	a4, 524288
0x00000000800160d8: 1c 07 a0 23 sw	zero, 448(a5)
0x00000000800160dc: ff f7 47 13 not	a4, a4
0x00000000800160e0: 1c e7 a2 23 sw	a4, 452(a5)
0x00000000800160e4: 1c 07 a6 83 lw	a3, 448(a5)
0x00000000800160e8: 1c 47 a7 03 lw	a4, 452(a5)
0x00000000800160ec: 00 06 86 9b sext.w	a3, a3
0x00000000800160f0: 00 07 07 1b sext.w	a4, a4
0x00000000800160f4: 08 d7 5c 63 bge	a4, a3, 152
0x000000008001618c: 00 00 57 37 lui	a4, 5
0x0000000080016190: 01 01 06 93 addi	a3, sp, 16
0x0000000080016194: 19 07 07 13 addi	a4, a4, 400
0x0000000080016198: 00 d7 07 33 add	a4, a4, a3
0x000000008001619c: ff ff e7 b7 lui	a5, 1048574
0x00000000800161a0: 00 f7 07 b3 add	a5, a4, a5
0x00000000800161a4: 00 10 07 13 addi	a4, zero, 1
0x00000000800161a8: 1c e7 a4 23 sw	a4, 456(a5)
0x00000000800161ac: 1c e7 a6 23 sw	a4, 460(a5)
0x00000000800161b0: 1c 87 a6 83 lw	a3, 456(a5)
0x00000000800161b4: 1c c7 a7 03 lw	a4, 460(a5)
0x00000000800161b8: 00 06 86 9b sext.w	a3, a3
0x00000000800161bc: 00 07 07 1b sext.w	a4, a4
0x00000000800161c0: 08 d7 5a 63 bge	a4, a3, 148
0x0000000080016254: 00 00 57 37 lui	a4, 5
0x0000000080016258: 01 01 06 93 addi	a3, sp, 16
0x000000008001625c: 19 07 07 13 addi	a4, a4, 400
0x0000000080016260: 00 d7 07 33 add	a4, a4, a3
0x0000000080016264: ff ff e7 b7 lui	a5, 1048574
0x0000000080016268: 00 f7 07 b3 add	a5, a4, a5
0x000000008001626c: 00 10 07 13 addi	a4, zero, 1
0x0000000080016270: 1c e7 a8 23 sw	a4, 464(a5)
0x0000000080016274: 00 20 07 13 addi	a4, zero, 2
0x0000000080016278: 1c e7 aa 23 sw	a4, 468(a5)
0x000000008001627c: 1d 07 a6 83 lw	a3, 464(a5)
0x0000000080016280: 1d 47 a7 03 lw	a4, 468(a5)
0x0000000080016284: 00 06 86 9b sext.w	a3, a3
0x0000000080016288: 00 07 07 1b sext.w	a4, a4
0x000000008001628c: 08 d7 5a 63 bge	a4, a3, 148
0x0000000080016320: 00 00 57 37 lui	a4, 5
0x0000000080016324: 01 01 06 93 addi	a3, sp, 16
0x0000000080016328: 19 07 07 13 addi	a4, a4, 400
0x000000008001632c: 00 d7 07 33 add	a4, a4, a3
0x0000000080016330: ff ff e7 b7 lui	a5, 1048574
0x0000000080016334: 00 f7 07 b3 add	a5, a4, a5
0x0000000080016338: 00 10 07 13 addi	a4, zero, 1
0x000000008001633c: 1c e7 ac 23 sw	a4, 472(a5)
0x0000000080016340: 80 00 07 37 lui	a4, 524288
0x0000000080016344: ff e7 47 13 xori	a4, a4, -2
0x0000000080016348: 1c e7 ae 23 sw	a4, 476(a5)
0x000000008001634c: 1d 87 a6 83 lw	a3, 472(a5)
0x0000000080016350: 1d c7 a7 03 lw	a4, 476(a5)
0x0000000080016354: 00 06 86 9b sext.w	a3, a3
0x0000000080016358: 00 07 07 1b sext.w	a4, a4
0x000000008001635c: 08 d7 5c 63 bge	a4, a3, 152
0x00000000800163f4: 00 00 57 37 lui	a4, 5
0x00000000800163f8: 01 01 06 93 addi	a3, sp, 16
0x00000000800163fc: 19 07 07 13 addi	a4, a4, 400
0x0000000080016400: 00 d7 07 33 add	a4, a4, a3
0x0000000080016404: ff ff e7 b7 lui	a5, 1048574
0x0000000080016408: 00 f7 07 b3 add	a5, a4, a5
0x000000008001640c: 00 10 07 13 addi	a4, zero, 1
0x0000000080016410: 1e e7 a0 23 sw	a4, 480(a5)
0x0000000080016414: 80 00 07 37 lui	a4, 524288
0x0000000080016418: ff f7 47 13 not	a4, a4
0x000000008001641c: 1e e7 a2 23 sw	a4, 484(a5)
0x0000000080016420: 1e 07 a6 83 lw	a3, 480(a5)
0x0000000080016424: 1e 47 a7 03 lw	a4, 484(a5)
0x0000000080016428: 00 06 86 9b sext.w	a3, a3
0x000000008001642c: 00 07 07 1b sext.w	a4, a4
0x0000000080016430: 08 d7 5c 63 bge	a4, a3, 152
0x00000000800164c8: 00 00 57 37 lui	a4, 5
0x00000000800164cc: 01 01 06 93 addi	a3, sp, 16
0x00000000800164d0: 19 07 07 13 addi	a4, a4, 400
0x00000000800164d4: 00 d7 07 33 add	a4, a4, a3
0x00000000800164d8: ff ff e7 b7 lui	a5, 1048574
0x00000000800164dc: 00 f7 07 b3 add	a5, a4, a5
0x00000000800164e0: 00 20 07 13 addi	a4, zero, 2
0x00000000800164e4: 1e e7 a4 23 sw	a4, 488(a5)
0x00000000800164e8: 1e e7 a6 23 sw	a4, 492(a5)
0x00000000800164ec: 1e 87 a6 83 lw	a3, 488(a5)
0x00000000800164f0: 1e c7 a7 03 lw	a4, 492(a5)
0x00000000800164f4: 00 06 86 9b sext.w	a3, a3
0x00000000800164f8: 00 07 07 1b sext.w	a4, a4
0x00000000800164fc: 08 d7 5a 63 bge	a4, a3, 148
0x0000000080016590: 00 00 57 37 lui	a4, 5
0x0000000080016594: 01 01 06 93 addi	a3, sp, 16
0x0000000080016598: 19 07 07 13 addi	a4, a4, 400
0x000000008001659c: 00 d7 07 33 add	a4, a4, a3
0x00000000800165a0: ff ff e7 b7 lui	a5, 1048574
0x00000000800165a4: 00 f7 07 b3 add	a5, a4, a5
0x00000000800165a8: 00 20 07 13 addi	a4, zero, 2
0x00000000800165ac: 1e e7 a8 23 sw	a4, 496(a5)
0x00000000800165b0: 80 00 07 37 lui	a4, 524288
0x00000000800165b4: ff e7 47 13 xori	a4, a4, -2
0x00000000800165b8: 1e e7 aa 23 sw	a4, 500(a5)
0x00000000800165bc: 1f 07 a6 83 lw	a3, 496(a5)
0x00000000800165c0: 1f 47 a7 03 lw	a4, 500(a5)
0x00000000800165c4: 00 06 86 9b sext.w	a3, a3
0x00000000800165c8: 00 07 07 1b sext.w	a4, a4
0x00000000800165cc: 08 d7 5c 63 bge	a4, a3, 152
0x0000000080016664: 00 00 57 37 lui	a4, 5
0x0000000080016668: 01 01 06 93 addi	a3, sp, 16
0x000000008001666c: 19 07 07 13 addi	a4, a4, 400
0x0000000080016670: 00 d7 07 33 add	a4, a4, a3
0x0000000080016674: ff ff e7 b7 lui	a5, 1048574
0x0000000080016678: 00 f7 07 b3 add	a5, a4, a5
0x000000008001667c: 00 20 07 13 addi	a4, zero, 2
0x0000000080016680: 1e e7 ac 23 sw	a4, 504(a5)
0x0000000080016684: 80 00 07 37 lui	a4, 524288
0x0000000080016688: ff f7 47 13 not	a4, a4
0x000000008001668c: 1e e7 ae 23 sw	a4, 508(a5)
0x0000000080016690: 1f 87 a6 83 lw	a3, 504(a5)
0x0000000080016694: 1f c7 a7 03 lw	a4, 508(a5)
0x0000000080016698: 00 06 86 9b sext.w	a3, a3
0x000000008001669c: 00 07 07 1b sext.w	a4, a4
0x00000000800166a0: 08 d7 5c 63 bge	a4, a3, 152
0x0000000080016738: 00 00 57 37 lui	a4, 5
0x000000008001673c: 01 01 06 93 addi	a3, sp, 16
0x0000000080016740: 19 07 07 13 addi	a4, a4, 400
0x0000000080016744: 00 d7 07 33 add	a4, a4, a3
0x0000000080016748: ff ff e7 b7 lui	a5, 1048574
0x000000008001674c: 00 f7 07 b3 add	a5, a4, a5
0x0000000080016750: 80 00 07 37 lui	a4, 524288
0x0000000080016754: ff e7 47 13 xori	a4, a4, -2
0x0000000080016758: 20 e7 a0 23 sw	a4, 512(a5)
0x000000008001675c: 20 e7 a2 23 sw	a4, 516(a5)
0x0000000080016760: 20 07 a6 83 lw	a3, 512(a5)
0x0000000080016764: 20 47 a7 03 lw	a4, 516(a5)
0x0000000080016768: 00 06 86 9b sext.w	a3, a3
0x000000008001676c: 00 07 07 1b sext.w	a4, a4
0x0000000080016770: 08 d7 5c 63 bge	a4, a3, 152
0x0000000080016808: 00 00 56 b7 lui	a3, 5
0x000000008001680c: 19 06 86 93 addi	a3, a3, 400
0x0000000080016810: 01 01 06 13 addi	a2, sp, 16
0x0000000080016814: 80 00 07 37 lui	a4, 524288
0x0000000080016818: 00 c6 86 b3 add	a3, a3, a2
0x000000008001681c: ff ff e7 b7 lui	a5, 1048574
0x0000000080016820: 00 f6 87 b3 add	a5, a3, a5
0x0000000080016824: ff e7 46 93 xori	a3, a4, -2
0x0000000080016828: 20 d7 a4 23 sw	a3, 520(a5)
0x000000008001682c: ff f7 47 13 not	a4, a4
0x0000000080016830: 20 e7 a6 23 sw	a4, 524(a5)
0x0000000080016834: 20 87 a6 83 lw	a3, 520(a5)
0x0000000080016838: 20 c7 a7 03 lw	a4, 524(a5)
0x000000008001683c: 00 06 86 9b sext.w	a3, a3
0x0000000080016840: 00 07 07 1b sext.w	a4, a4
0x0000000080016844: 08 d7 5c 63 bge	a4, a3, 152
0x00000000800168dc: 00 00 57 37 lui	a4, 5
0x00000000800168e0: 01 01 06 93 addi	a3, sp, 16
0x00000000800168e4: 19 07 07 13 addi	a4, a4, 400
0x00000000800168e8: 00 d7 07 33 add	a4, a4, a3
0x00000000800168ec: ff ff e7 b7 lui	a5, 1048574
0x00000000800168f0: 00 f7 07 b3 add	a5, a4, a5
0x00000000800168f4: 80 00 07 37 lui	a4, 524288
0x00000000800168f8: ff f7 47 13 not	a4, a4
0x00000000800168fc: 20 e7 a8 23 sw	a4, 528(a5)
0x0000000080016900: 20 e7 aa 23 sw	a4, 532(a5)
0x0000000080016904: 21 07 a6 83 lw	a3, 528(a5)
0x0000000080016908: 21 47 a7 03 lw	a4, 532(a5)
0x000000008001690c: 00 06 86 9b sext.w	a3, a3
0x0000000080016910: 00 07 07 1b sext.w	a4, a4
0x0000000080016914: 08 d7 5c 63 bge	a4, a3, 152
0x00000000800169ac: 00 00 57 37 lui	a4, 5
0x00000000800169b0: 01 01 06 93 addi	a3, sp, 16
0x00000000800169b4: 19 07 07 13 addi	a4, a4, 400
0x00000000800169b8: 00 d7 07 33 add	a4, a4, a3
0x00000000800169bc: ff ff e7 b7 lui	a5, 1048574
0x00000000800169c0: 00 f7 07 b3 add	a5, a4, a5
0x00000000800169c4: 80 00 07 37 lui	a4, 524288
0x00000000800169c8: 20 e7 ac 23 sw	a4, 536(a5)
0x00000000800169cc: 20 e7 ae 23 sw	a4, 540(a5)
0x00000000800169d0: 21 87 a6 83 lw	a3, 536(a5)
0x00000000800169d4: 21 c7 a7 03 lw	a4, 540(a5)
0x00000000800169d8: 00 06 86 9b sext.w	a3, a3
0x00000000800169dc: 00 07 07 1b sext.w	a4, a4
0x00000000800169e0: 08 e6 88 63 beq	a3, a4, 144
0x0000000080016a70: 00 00 57 37 lui	a4, 5
0x0000000080016a74: 01 01 06 93 addi	a3, sp, 16
0x0000000080016a78: 19 07 07 13 addi	a4, a4, 400
0x0000000080016a7c: 00 d7 07 33 add	a4, a4, a3
0x0000000080016a80: ff ff e7 b7 lui	a5, 1048574
0x0000000080016a84: 00 f7 07 b3 add	a5, a4, a5
0x0000000080016a88: 80 00 07 37 lui	a4, 524288
0x0000000080016a8c: 22 e7 a0 23 sw	a4, 544(a5)
0x0000000080016a90: 00 17 07 1b addiw	a4, a4, 1
0x0000000080016a94: 22 e7 a2 23 sw	a4, 548(a5)
0x0000000080016a98: 22 07 a6 83 lw	a3, 544(a5)
0x0000000080016a9c: 22 47 a7 03 lw	a4, 548(a5)
0x0000000080016aa0: 00 06 86 9b sext.w	a3, a3
0x0000000080016aa4: 00 07 07 1b sext.w	a4, a4
0x0000000080016aa8: 00 e6 94 63 bne	a3, a4, 8
0x0000000080016ab0: 00 00 57 37 lui	a4, 5
0x0000000080016ab4: 01 01 06 93 addi	a3, sp, 16
0x0000000080016ab8: 19 07 07 13 addi	a4, a4, 400
0x0000000080016abc: 00 d7 07 33 add	a4, a4, a3
0x0000000080016ac0: ff ff e7 b7 lui	a5, 1048574
0x0000000080016ac4: 00 f7 07 b3 add	a5, a4, a5
0x0000000080016ac8: 80 00 07 37 lui	a4, 524288
0x0000000080016acc: 22 e7 a4 23 sw	a4, 552(a5)
0x0000000080016ad0: ff e0 07 13 addi	a4, zero, -2
0x0000000080016ad4: 22 e7 a6 23 sw	a4, 556(a5)
0x0000000080016ad8: 22 87 a6 83 lw	a3, 552(a5)
0x0000000080016adc: 22 c7 a7 03 lw	a4, 556(a5)
0x0000000080016ae0: 00 06 86 9b sext.w	a3, a3
0x0000000080016ae4: 00 07 07 1b sext.w	a4, a4
0x0000000080016ae8: 00 e6 94 63 bne	a3, a4, 8
0x0000000080016af0: 00 00 57 37 lui	a4, 5
0x0000000080016af4: 01 01 06 93 addi	a3, sp, 16
0x0000000080016af8: 19 07 07 13 addi	a4, a4, 400
0x0000000080016afc: 00 d7 07 33 add	a4, a4, a3
0x0000000080016b00: ff ff e7 b7 lui	a5, 1048574
0x0000000080016b04: 00 f7 07 b3 add	a5, a4, a5
0x0000000080016b08: 80 00 07 37 lui	a4, 524288
0x0000000080016b0c: 22 e7 a8 23 sw	a4, 560(a5)
0x0000000080016b10: ff f0 07 13 addi	a4, zero, -1
0x0000000080016b14: 22 e7 aa 23 sw	a4, 564(a5)
0x0000000080016b18: 23 07 a6 83 lw	a3, 560(a5)
0x0000000080016b1c: 23 47 a7 03 lw	a4, 564(a5)
0x0000000080016b20: 00 06 86 9b sext.w	a3, a3
0x0000000080016b24: 00 07 07 1b sext.w	a4, a4
0x0000000080016b28: 00 e6 94 63 bne	a3, a4, 8
0x0000000080016b30: 00 00 57 37 lui	a4, 5
0x0000000080016b34: 01 01 06 93 addi	a3, sp, 16
0x0000000080016b38: 19 07 07 13 addi	a4, a4, 400
0x0000000080016b3c: 00 d7 07 33 add	a4, a4, a3
0x0000000080016b40: ff ff e7 b7 lui	a5, 1048574
0x0000000080016b44: 00 f7 07 b3 add	a5, a4, a5
0x0000000080016b48: 80 00 07 37 lui	a4, 524288
0x0000000080016b4c: 22 e7 ac 23 sw	a4, 568(a5)
0x0000000080016b50: 22 07 ae 23 sw	zero, 572(a5)
0x0000000080016b54: 23 87 a6 83 lw	a3, 568(a5)
0x0000000080016b58: 23 c7 a7 03 lw	a4, 572(a5)
0x0000000080016b5c: 00 06 86 9b sext.w	a3, a3
0x0000000080016b60: 00 07 07 1b sext.w	a4, a4
0x0000000080016b64: 00 e6 94 63 bne	a3, a4, 8
0x0000000080016b6c: 00 00 57 37 lui	a4, 5
0x0000000080016b70: 01 01 06 93 addi	a3, sp, 16
0x0000000080016b74: 19 07 07 13 addi	a4, a4, 400
0x0000000080016b78: 00 d7 07 33 add	a4, a4, a3
0x0000000080016b7c: ff ff e7 b7 lui	a5, 1048574
0x0000000080016b80: 00 f7 07 b3 add	a5, a4, a5
0x0000000080016b84: 80 00 07 37 lui	a4, 524288
0x0000000080016b88: 24 e7 a0 23 sw	a4, 576(a5)
0x0000000080016b8c: 00 10 07 13 addi	a4, zero, 1
0x0000000080016b90: 24 e7 a2 23 sw	a4, 580(a5)
0x0000000080016b94: 24 07 a6 83 lw	a3, 576(a5)
0x0000000080016b98: 24 47 a7 03 lw	a4, 580(a5)
0x0000000080016b9c: 00 06 86 9b sext.w	a3, a3
0x0000000080016ba0: 00 07 07 1b sext.w	a4, a4
0x0000000080016ba4: 00 e6 94 63 bne	a3, a4, 8
0x0000000080016bac: 00 00 57 37 lui	a4, 5
0x0000000080016bb0: 01 01 06 93 addi	a3, sp, 16
0x0000000080016bb4: 19 07 07 13 addi	a4, a4, 400
0x0000000080016bb8: 00 d7 07 33 add	a4, a4, a3
0x0000000080016bbc: ff ff e7 b7 lui	a5, 1048574
0x0000000080016bc0: 00 f7 07 b3 add	a5, a4, a5
0x0000000080016bc4: 80 00 07 37 lui	a4, 524288
0x0000000080016bc8: 24 e7 a4 23 sw	a4, 584(a5)
0x0000000080016bcc: 00 20 07 13 addi	a4, zero, 2
0x0000000080016bd0: 24 e7 a6 23 sw	a4, 588(a5)
0x0000000080016bd4: 24 87 a6 83 lw	a3, 584(a5)
0x0000000080016bd8: 24 c7 a7 03 lw	a4, 588(a5)
0x0000000080016bdc: 00 06 86 9b sext.w	a3, a3
0x0000000080016be0: 00 07 07 1b sext.w	a4, a4
0x0000000080016be4: 00 e6 94 63 bne	a3, a4, 8
0x0000000080016bec: 00 00 57 37 lui	a4, 5
0x0000000080016bf0: 01 01 06 93 addi	a3, sp, 16
0x0000000080016bf4: 19 07 07 13 addi	a4, a4, 400
0x0000000080016bf8: 00 d7 07 33 add	a4, a4, a3
0x0000000080016bfc: ff ff e7 b7 lui	a5, 1048574
0x0000000080016c00: 00 f7 07 b3 add	a5, a4, a5
0x0000000080016c04: 80 00 07 37 lui	a4, 524288
0x0000000080016c08: 24 e7 a8 23 sw	a4, 592(a5)
0x0000000080016c0c: ff e7 47 13 xori	a4, a4, -2
0x0000000080016c10: 24 e7 aa 23 sw	a4, 596(a5)
0x0000000080016c14: 25 07 a6 83 lw	a3, 592(a5)
0x0000000080016c18: 25 47 a7 03 lw	a4, 596(a5)
0x0000000080016c1c: 00 06 86 9b sext.w	a3, a3
0x0000000080016c20: 00 07 07 1b sext.w	a4, a4
0x0000000080016c24: 00 e6 94 63 bne	a3, a4, 8
0x0000000080016c2c: 00 00 57 37 lui	a4, 5
0x0000000080016c30: 01 01 06 93 addi	a3, sp, 16
0x0000000080016c34: 19 07 07 13 addi	a4, a4, 400
0x0000000080016c38: 00 d7 07 33 add	a4, a4, a3
0x0000000080016c3c: ff ff e7 b7 lui	a5, 1048574
0x0000000080016c40: 00 f7 07 b3 add	a5, a4, a5
0x0000000080016c44: 80 00 07 37 lui	a4, 524288
0x0000000080016c48: 24 e7 ac 23 sw	a4, 600(a5)
0x0000000080016c4c: ff f7 47 13 not	a4, a4
0x0000000080016c50: 24 e7 ae 23 sw	a4, 604(a5)
0x0000000080016c54: 25 87 a6 83 lw	a3, 600(a5)
0x0000000080016c58: 25 c7 a7 03 lw	a4, 604(a5)
0x0000000080016c5c: 00 06 86 9b sext.w	a3, a3
0x0000000080016c60: 00 07 07 1b sext.w	a4, a4
0x0000000080016c64: 00 e6 94 63 bne	a3, a4, 8
0x0000000080016c6c: 00 00 57 37 lui	a4, 5
0x0000000080016c70: 01 01 06 93 addi	a3, sp, 16
0x0000000080016c74: 19 07 07 13 addi	a4, a4, 400
0x0000000080016c78: 00 d7 07 33 add	a4, a4, a3
0x0000000080016c7c: ff ff e7 b7 lui	a5, 1048574
0x0000000080016c80: 00 f7 07 b3 add	a5, a4, a5
0x0000000080016c84: 80 00 07 37 lui	a4, 524288
0x0000000080016c88: 00 17 07 1b addiw	a4, a4, 1
0x0000000080016c8c: 26 e7 a0 23 sw	a4, 608(a5)
0x0000000080016c90: 26 e7 a2 23 sw	a4, 612(a5)
0x0000000080016c94: 26 07 a6 83 lw	a3, 608(a5)
0x0000000080016c98: 26 47 a7 03 lw	a4, 612(a5)
0x0000000080016c9c: 00 06 86 9b sext.w	a3, a3
0x0000000080016ca0: 00 07 07 1b sext.w	a4, a4
0x0000000080016ca4: 08 e6 8a 63 beq	a3, a4, 148
0x0000000080016d38: 00 00 57 37 lui	a4, 5
0x0000000080016d3c: 01 01 06 93 addi	a3, sp, 16
0x0000000080016d40: 19 07 07 13 addi	a4, a4, 400
0x0000000080016d44: 00 d7 07 33 add	a4, a4, a3
0x0000000080016d48: ff ff e7 b7 lui	a5, 1048574
0x0000000080016d4c: 00 f7 07 b3 add	a5, a4, a5
0x0000000080016d50: 80 00 07 37 lui	a4, 524288
0x0000000080016d54: 00 17 07 1b addiw	a4, a4, 1
0x0000000080016d58: 26 e7 a4 23 sw	a4, 616(a5)
0x0000000080016d5c: ff e0 07 13 addi	a4, zero, -2
0x0000000080016d60: 26 e7 a6 23 sw	a4, 620(a5)
0x0000000080016d64: 26 87 a6 83 lw	a3, 616(a5)
0x0000000080016d68: 26 c7 a7 03 lw	a4, 620(a5)
0x0000000080016d6c: 00 06 86 9b sext.w	a3, a3
0x0000000080016d70: 00 07 07 1b sext.w	a4, a4
0x0000000080016d74: 00 e6 94 63 bne	a3, a4, 8
0x0000000080016d7c: 00 00 57 37 lui	a4, 5
0x0000000080016d80: 01 01 06 93 addi	a3, sp, 16
0x0000000080016d84: 19 07 07 13 addi	a4, a4, 400
0x0000000080016d88: 00 d7 07 33 add	a4, a4, a3
0x0000000080016d8c: ff ff e7 b7 lui	a5, 1048574
0x0000000080016d90: 00 f7 07 b3 add	a5, a4, a5
0x0000000080016d94: 80 00 07 37 lui	a4, 524288
0x0000000080016d98: 00 17 07 1b addiw	a4, a4, 1
0x0000000080016d9c: 26 e7 a8 23 sw	a4, 624(a5)
0x0000000080016da0: ff f0 07 13 addi	a4, zero, -1
0x0000000080016da4: 26 e7 aa 23 sw	a4, 628(a5)
0x0000000080016da8: 27 07 a6 83 lw	a3, 624(a5)
0x0000000080016dac: 27 47 a7 03 lw	a4, 628(a5)
0x0000000080016db0: 00 06 86 9b sext.w	a3, a3
0x0000000080016db4: 00 07 07 1b sext.w	a4, a4
0x0000000080016db8: 00 e6 94 63 bne	a3, a4, 8
0x0000000080016dc0: 00 00 57 37 lui	a4, 5
0x0000000080016dc4: 01 01 06 93 addi	a3, sp, 16
0x0000000080016dc8: 19 07 07 13 addi	a4, a4, 400
0x0000000080016dcc: 00 d7 07 33 add	a4, a4, a3
0x0000000080016dd0: ff ff e7 b7 lui	a5, 1048574
0x0000000080016dd4: 00 f7 07 b3 add	a5, a4, a5
0x0000000080016dd8: 80 00 07 37 lui	a4, 524288
0x0000000080016ddc: 00 17 07 1b addiw	a4, a4, 1
0x0000000080016de0: 26 e7 ac 23 sw	a4, 632(a5)
0x0000000080016de4: 26 07 ae 23 sw	zero, 636(a5)
0x0000000080016de8: 27 87 a6 83 lw	a3, 632(a5)
0x0000000080016dec: 27 c7 a7 03 lw	a4, 636(a5)
0x0000000080016df0: 00 06 86 9b sext.w	a3, a3
0x0000000080016df4: 00 07 07 1b sext.w	a4, a4
0x0000000080016df8: 00 e6 94 63 bne	a3, a4, 8
0x0000000080016e00: 00 00 57 37 lui	a4, 5
0x0000000080016e04: 01 01 06 93 addi	a3, sp, 16
0x0000000080016e08: 19 07 07 13 addi	a4, a4, 400
0x0000000080016e0c: 00 d7 07 33 add	a4, a4, a3
0x0000000080016e10: ff ff e7 b7 lui	a5, 1048574
0x0000000080016e14: 00 f7 07 b3 add	a5, a4, a5
0x0000000080016e18: 80 00 07 37 lui	a4, 524288
0x0000000080016e1c: 00 17 07 1b addiw	a4, a4, 1
0x0000000080016e20: 28 e7 a0 23 sw	a4, 640(a5)
0x0000000080016e24: 00 10 07 13 addi	a4, zero, 1
0x0000000080016e28: 28 e7 a2 23 sw	a4, 644(a5)
0x0000000080016e2c: 28 07 a6 83 lw	a3, 640(a5)
0x0000000080016e30: 28 47 a7 03 lw	a4, 644(a5)
0x0000000080016e34: 00 06 86 9b sext.w	a3, a3
0x0000000080016e38: 00 07 07 1b sext.w	a4, a4
0x0000000080016e3c: 00 e6 94 63 bne	a3, a4, 8
0x0000000080016e44: 00 00 57 37 lui	a4, 5
0x0000000080016e48: 01 01 06 93 addi	a3, sp, 16
0x0000000080016e4c: 19 07 07 13 addi	a4, a4, 400
0x0000000080016e50: 00 d7 07 33 add	a4, a4, a3
0x0000000080016e54: ff ff e7 b7 lui	a5, 1048574
0x0000000080016e58: 00 f7 07 b3 add	a5, a4, a5
0x0000000080016e5c: 80 00 07 37 lui	a4, 524288
0x0000000080016e60: 00 17 07 1b addiw	a4, a4, 1
0x0000000080016e64: 28 e7 a4 23 sw	a4, 648(a5)
0x0000000080016e68: 00 20 07 13 addi	a4, zero, 2
0x0000000080016e6c: 28 e7 a6 23 sw	a4, 652(a5)
0x0000000080016e70: 28 87 a6 83 lw	a3, 648(a5)
0x0000000080016e74: 28 c7 a7 03 lw	a4, 652(a5)
0x0000000080016e78: 00 06 86 9b sext.w	a3, a3
0x0000000080016e7c: 00 07 07 1b sext.w	a4, a4
0x0000000080016e80: 00 e6 94 63 bne	a3, a4, 8
0x0000000080016e88: 00 00 56 b7 lui	a3, 5
0x0000000080016e8c: 19 06 86 93 addi	a3, a3, 400
0x0000000080016e90: 01 01 06 13 addi	a2, sp, 16
0x0000000080016e94: 80 00 07 37 lui	a4, 524288
0x0000000080016e98: 00 c6 86 b3 add	a3, a3, a2
0x0000000080016e9c: ff ff e7 b7 lui	a5, 1048574
0x0000000080016ea0: 00 f6 87 b3 add	a5, a3, a5
0x0000000080016ea4: 00 17 06 9b addiw	a3, a4, 1
0x0000000080016ea8: 28 d7 a8 23 sw	a3, 656(a5)
0x0000000080016eac: ff e7 47 13 xori	a4, a4, -2
0x0000000080016eb0: 28 e7 aa 23 sw	a4, 660(a5)
0x0000000080016eb4: 29 07 a6 83 lw	a3, 656(a5)
0x0000000080016eb8: 29 47 a7 03 lw	a4, 660(a5)
0x0000000080016ebc: 00 06 86 9b sext.w	a3, a3
0x0000000080016ec0: 00 07 07 1b sext.w	a4, a4
0x0000000080016ec4: 00 e6 94 63 bne	a3, a4, 8
0x0000000080016ecc: 00 00 56 b7 lui	a3, 5
0x0000000080016ed0: 19 06 86 93 addi	a3, a3, 400
0x0000000080016ed4: 01 01 06 13 addi	a2, sp, 16
0x0000000080016ed8: 80 00 07 37 lui	a4, 524288
0x0000000080016edc: 00 c6 86 b3 add	a3, a3, a2
0x0000000080016ee0: ff ff e7 b7 lui	a5, 1048574
0x0000000080016ee4: 00 f6 87 b3 add	a5, a3, a5
0x0000000080016ee8: 00 17 06 9b addiw	a3, a4, 1
0x0000000080016eec: 28 d7 ac 23 sw	a3, 664(a5)
0x0000000080016ef0: ff f7 47 13 not	a4, a4
0x0000000080016ef4: 28 e7 ae 23 sw	a4, 668(a5)
0x0000000080016ef8: 29 87 a6 83 lw	a3, 664(a5)
0x0000000080016efc: 29 c7 a7 03 lw	a4, 668(a5)
0x0000000080016f00: 00 06 86 9b sext.w	a3, a3
0x0000000080016f04: 00 07 07 1b sext.w	a4, a4
0x0000000080016f08: 00 e6 94 63 bne	a3, a4, 8
0x0000000080016f10: 00 00 57 37 lui	a4, 5
0x0000000080016f14: 01 01 06 93 addi	a3, sp, 16
0x0000000080016f18: 19 07 07 13 addi	a4, a4, 400
0x0000000080016f1c: 00 d7 07 33 add	a4, a4, a3
0x0000000080016f20: ff ff e7 b7 lui	a5, 1048574
0x0000000080016f24: 00 f7 07 b3 add	a5, a4, a5
0x0000000080016f28: ff e0 07 13 addi	a4, zero, -2
0x0000000080016f2c: 2a e7 a0 23 sw	a4, 672(a5)
0x0000000080016f30: 2a e7 a2 23 sw	a4, 676(a5)
0x0000000080016f34: 2a 07 a6 83 lw	a3, 672(a5)
0x0000000080016f38: 2a 47 a7 03 lw	a4, 676(a5)
0x0000000080016f3c: 00 06 86 9b sext.w	a3, a3
0x0000000080016f40: 00 07 07 1b sext.w	a4, a4
0x0000000080016f44: 08 e6 88 63 beq	a3, a4, 144
0x0000000080016fd4: 00 00 57 37 lui	a4, 5
0x0000000080016fd8: 01 01 06 93 addi	a3, sp, 16
0x0000000080016fdc: 19 07 07 13 addi	a4, a4, 400
0x0000000080016fe0: 00 d7 07 33 add	a4, a4, a3
0x0000000080016fe4: ff ff e7 b7 lui	a5, 1048574
0x0000000080016fe8: 00 f7 07 b3 add	a5, a4, a5
0x0000000080016fec: ff e0 07 13 addi	a4, zero, -2
0x0000000080016ff0: 2a e7 a4 23 sw	a4, 680(a5)
0x0000000080016ff4: ff f0 07 13 addi	a4, zero, -1
0x0000000080016ff8: 2a e7 a6 23 sw	a4, 684(a5)
0x0000000080016ffc: 2a 87 a6 83 lw	a3, 680(a5)
0x0000000080017000: 2a c7 a7 03 lw	a4, 684(a5)
0x0000000080017004: 00 06 86 9b sext.w	a3, a3
0x0000000080017008: 00 07 07 1b sext.w	a4, a4
0x000000008001700c: 00 e6 94 63 bne	a3, a4, 8
0x0000000080017014: 00 00 57 37 lui	a4, 5
0x0000000080017018: 01 01 06 93 addi	a3, sp, 16
0x000000008001701c: 19 07 07 13 addi	a4, a4, 400
0x0000000080017020: 00 d7 07 33 add	a4, a4, a3
0x0000000080017024: ff ff e7 b7 lui	a5, 1048574
0x0000000080017028: 00 f7 07 b3 add	a5, a4, a5
0x000000008001702c: ff e0 07 13 addi	a4, zero, -2
0x0000000080017030: 2a e7 a8 23 sw	a4, 688(a5)
0x0000000080017034: 2a 07 aa 23 sw	zero, 692(a5)
0x0000000080017038: 2b 07 a6 83 lw	a3, 688(a5)
0x000000008001703c: 2b 47 a7 03 lw	a4, 692(a5)
0x0000000080017040: 00 06 86 9b sext.w	a3, a3
0x0000000080017044: 00 07 07 1b sext.w	a4, a4
0x0000000080017048: 00 e6 94 63 bne	a3, a4, 8
0x0000000080017050: 00 00 57 37 lui	a4, 5
0x0000000080017054: 01 01 06 93 addi	a3, sp, 16
0x0000000080017058: 19 07 07 13 addi	a4, a4, 400
0x000000008001705c: 00 d7 07 33 add	a4, a4, a3
0x0000000080017060: ff ff e7 b7 lui	a5, 1048574
0x0000000080017064: 00 f7 07 b3 add	a5, a4, a5
0x0000000080017068: ff e0 07 13 addi	a4, zero, -2
0x000000008001706c: 2a e7 ac 23 sw	a4, 696(a5)
0x0000000080017070: 00 10 07 13 addi	a4, zero, 1
0x0000000080017074: 2a e7 ae 23 sw	a4, 700(a5)
0x0000000080017078: 2b 87 a6 83 lw	a3, 696(a5)
0x000000008001707c: 2b c7 a7 03 lw	a4, 700(a5)
0x0000000080017080: 00 06 86 9b sext.w	a3, a3
0x0000000080017084: 00 07 07 1b sext.w	a4, a4
0x0000000080017088: 00 e6 94 63 bne	a3, a4, 8
0x0000000080017090: 00 00 57 37 lui	a4, 5
0x0000000080017094: 01 01 06 93 addi	a3, sp, 16
0x0000000080017098: 19 07 07 13 addi	a4, a4, 400
0x000000008001709c: 00 d7 07 33 add	a4, a4, a3
0x00000000800170a0: ff ff e7 b7 lui	a5, 1048574
0x00000000800170a4: 00 f7 07 b3 add	a5, a4, a5
0x00000000800170a8: ff e0 07 13 addi	a4, zero, -2
0x00000000800170ac: 2c e7 a0 23 sw	a4, 704(a5)
0x00000000800170b0: 00 20 07 13 addi	a4, zero, 2
0x00000000800170b4: 2c e7 a2 23 sw	a4, 708(a5)
0x00000000800170b8: 2c 07 a6 83 lw	a3, 704(a5)
0x00000000800170bc: 2c 47 a7 03 lw	a4, 708(a5)
0x00000000800170c0: 00 06 86 9b sext.w	a3, a3
0x00000000800170c4: 00 07 07 1b sext.w	a4, a4
0x00000000800170c8: 00 e6 94 63 bne	a3, a4, 8
0x00000000800170d0: 00 00 57 37 lui	a4, 5
0x00000000800170d4: 01 01 06 93 addi	a3, sp, 16
0x00000000800170d8: 19 07 07 13 addi	a4, a4, 400
0x00000000800170dc: 00 d7 07 33 add	a4, a4, a3
0x00000000800170e0: ff ff e7 b7 lui	a5, 1048574
0x00000000800170e4: 00 f7 07 b3 add	a5, a4, a5
0x00000000800170e8: ff e0 07 13 addi	a4, zero, -2
0x00000000800170ec: 2c e7 a4 23 sw	a4, 712(a5)
0x00000000800170f0: 80 00 07 37 lui	a4, 524288
0x00000000800170f4: ff e7 47 13 xori	a4, a4, -2
0x00000000800170f8: 2c e7 a6 23 sw	a4, 716(a5)
0x00000000800170fc: 2c 87 a6 83 lw	a3, 712(a5)
0x0000000080017100: 2c c7 a7 03 lw	a4, 716(a5)
0x0000000080017104: 00 06 86 9b sext.w	a3, a3
0x0000000080017108: 00 07 07 1b sext.w	a4, a4
0x000000008001710c: 00 e6 94 63 bne	a3, a4, 8
0x0000000080017114: 00 00 57 37 lui	a4, 5
0x0000000080017118: 01 01 06 93 addi	a3, sp, 16
0x000000008001711c: 19 07 07 13 addi	a4, a4, 400
0x0000000080017120: 00 d7 07 33 add	a4, a4, a3
0x0000000080017124: ff ff e7 b7 lui	a5, 1048574
0x0000000080017128: 00 f7 07 b3 add	a5, a4, a5
0x000000008001712c: ff e0 07 13 addi	a4, zero, -2
0x0000000080017130: 2c e7 a8 23 sw	a4, 720(a5)
0x0000000080017134: 80 00 07 37 lui	a4, 524288
0x0000000080017138: ff f7 47 13 not	a4, a4
0x000000008001713c: 2c e7 aa 23 sw	a4, 724(a5)
0x0000000080017140: 2d 07 a6 83 lw	a3, 720(a5)
0x0000000080017144: 2d 47 a7 03 lw	a4, 724(a5)
0x0000000080017148: 00 06 86 9b sext.w	a3, a3
0x000000008001714c: 00 07 07 1b sext.w	a4, a4
0x0000000080017150: 00 e6 94 63 bne	a3, a4, 8
0x0000000080017158: 00 00 57 37 lui	a4, 5
0x000000008001715c: 01 01 06 93 addi	a3, sp, 16
0x0000000080017160: 19 07 07 13 addi	a4, a4, 400
0x0000000080017164: 00 d7 07 33 add	a4, a4, a3
0x0000000080017168: ff ff e7 b7 lui	a5, 1048574
0x000000008001716c: 00 f7 07 b3 add	a5, a4, a5
0x0000000080017170: ff f0 07 13 addi	a4, zero, -1
0x0000000080017174: 2c e7 ac 23 sw	a4, 728(a5)
0x0000000080017178: 2c e7 ae 23 sw	a4, 732(a5)
0x000000008001717c: 2d 87 a6 83 lw	a3, 728(a5)
0x0000000080017180: 2d c7 a7 03 lw	a4, 732(a5)
0x0000000080017184: 00 06 86 9b sext.w	a3, a3
0x0000000080017188: 00 07 07 1b sext.w	a4, a4
0x000000008001718c: 08 e6 88 63 beq	a3, a4, 144
0x000000008001721c: 00 00 57 37 lui	a4, 5
0x0000000080017220: 01 01 06 93 addi	a3, sp, 16
0x0000000080017224: 19 07 07 13 addi	a4, a4, 400
0x0000000080017228: 00 d7 07 33 add	a4, a4, a3
0x000000008001722c: ff ff e7 b7 lui	a5, 1048574
0x0000000080017230: 00 f7 07 b3 add	a5, a4, a5
0x0000000080017234: ff f0 07 13 addi	a4, zero, -1
0x0000000080017238: 2e e7 a0 23 sw	a4, 736(a5)
0x000000008001723c: 2e 07 a2 23 sw	zero, 740(a5)
0x0000000080017240: 2e 07 a6 83 lw	a3, 736(a5)
0x0000000080017244: 2e 47 a7 03 lw	a4, 740(a5)
0x0000000080017248: 00 06 86 9b sext.w	a3, a3
0x000000008001724c: 00 07 07 1b sext.w	a4, a4
0x0000000080017250: 00 e6 94 63 bne	a3, a4, 8
0x0000000080017258: 00 00 57 37 lui	a4, 5
0x000000008001725c: 01 01 06 93 addi	a3, sp, 16
0x0000000080017260: 19 07 07 13 addi	a4, a4, 400
0x0000000080017264: 00 d7 07 33 add	a4, a4, a3
0x0000000080017268: ff ff e7 b7 lui	a5, 1048574
0x000000008001726c: 00 f7 07 b3 add	a5, a4, a5
0x0000000080017270: ff f0 07 13 addi	a4, zero, -1
0x0000000080017274: 2e e7 a4 23 sw	a4, 744(a5)
0x0000000080017278: 00 10 07 13 addi	a4, zero, 1
0x000000008001727c: 2e e7 a6 23 sw	a4, 748(a5)
0x0000000080017280: 2e 87 a6 83 lw	a3, 744(a5)
0x0000000080017284: 2e c7 a7 03 lw	a4, 748(a5)
0x0000000080017288: 00 06 86 9b sext.w	a3, a3
0x000000008001728c: 00 07 07 1b sext.w	a4, a4
0x0000000080017290: 00 e6 94 63 bne	a3, a4, 8
0x0000000080017298: 00 00 57 37 lui	a4, 5
0x000000008001729c: 01 01 06 93 addi	a3, sp, 16
0x00000000800172a0: 19 07 07 13 addi	a4, a4, 400
0x00000000800172a4: 00 d7 07 33 add	a4, a4, a3
0x00000000800172a8: ff ff e7 b7 lui	a5, 1048574
0x00000000800172ac: 00 f7 07 b3 add	a5, a4, a5
0x00000000800172b0: ff f0 07 13 addi	a4, zero, -1
0x00000000800172b4: 2e e7 a8 23 sw	a4, 752(a5)
0x00000000800172b8: 00 20 07 13 addi	a4, zero, 2
0x00000000800172bc: 2e e7 aa 23 sw	a4, 756(a5)
0x00000000800172c0: 2f 07 a6 83 lw	a3, 752(a5)
0x00000000800172c4: 2f 47 a7 03 lw	a4, 756(a5)
0x00000000800172c8: 00 06 86 9b sext.w	a3, a3
0x00000000800172cc: 00 07 07 1b sext.w	a4, a4
0x00000000800172d0: 00 e6 94 63 bne	a3, a4, 8
0x00000000800172d8: 00 00 57 37 lui	a4, 5
0x00000000800172dc: 01 01 06 93 addi	a3, sp, 16
0x00000000800172e0: 19 07 07 13 addi	a4, a4, 400
0x00000000800172e4: 00 d7 07 33 add	a4, a4, a3
0x00000000800172e8: ff ff e7 b7 lui	a5, 1048574
0x00000000800172ec: 00 f7 07 b3 add	a5, a4, a5
0x00000000800172f0: ff f0 07 13 addi	a4, zero, -1
0x00000000800172f4: 2e e7 ac 23 sw	a4, 760(a5)
0x00000000800172f8: 80 00 07 37 lui	a4, 524288
0x00000000800172fc: ff e7 47 13 xori	a4, a4, -2
0x0000000080017300: 2e e7 ae 23 sw	a4, 764(a5)
0x0000000080017304: 2f 87 a6 83 lw	a3, 760(a5)
0x0000000080017308: 2f c7 a7 03 lw	a4, 764(a5)
0x000000008001730c: 00 06 86 9b sext.w	a3, a3
0x0000000080017310: 00 07 07 1b sext.w	a4, a4
0x0000000080017314: 00 e6 94 63 bne	a3, a4, 8
0x000000008001731c: 00 00 57 37 lui	a4, 5
0x0000000080017320: 01 01 06 93 addi	a3, sp, 16
0x0000000080017324: 19 07 07 13 addi	a4, a4, 400
0x0000000080017328: 00 d7 07 33 add	a4, a4, a3
0x000000008001732c: ff ff e7 b7 lui	a5, 1048574
0x0000000080017330: 00 f7 07 b3 add	a5, a4, a5
0x0000000080017334: ff f0 07 13 addi	a4, zero, -1
0x0000000080017338: 30 e7 a0 23 sw	a4, 768(a5)
0x000000008001733c: 80 00 07 37 lui	a4, 524288
0x0000000080017340: ff f7 47 13 not	a4, a4
0x0000000080017344: 30 e7 a2 23 sw	a4, 772(a5)
0x0000000080017348: 30 07 a6 83 lw	a3, 768(a5)
0x000000008001734c: 30 47 a7 03 lw	a4, 772(a5)
0x0000000080017350: 00 06 86 9b sext.w	a3, a3
0x0000000080017354: 00 07 07 1b sext.w	a4, a4
0x0000000080017358: 00 e6 94 63 bne	a3, a4, 8
0x0000000080017360: 00 00 57 37 lui	a4, 5
0x0000000080017364: 01 01 06 93 addi	a3, sp, 16
0x0000000080017368: 19 07 07 13 addi	a4, a4, 400
0x000000008001736c: 00 d7 07 33 add	a4, a4, a3
0x0000000080017370: ff ff e7 b7 lui	a5, 1048574
0x0000000080017374: 00 f7 07 b3 add	a5, a4, a5
0x0000000080017378: 30 07 a4 23 sw	zero, 776(a5)
0x000000008001737c: 30 07 a6 23 sw	zero, 780(a5)
0x0000000080017380: 30 87 a6 83 lw	a3, 776(a5)
0x0000000080017384: 30 c7 a7 03 lw	a4, 780(a5)
0x0000000080017388: 00 06 86 9b sext.w	a3, a3
0x000000008001738c: 00 07 07 1b sext.w	a4, a4
0x0000000080017390: 08 e6 88 63 beq	a3, a4, 144
0x0000000080017420: 00 00 57 37 lui	a4, 5
0x0000000080017424: 01 01 06 93 addi	a3, sp, 16
0x0000000080017428: 19 07 07 13 addi	a4, a4, 400
0x000000008001742c: 00 d7 07 33 add	a4, a4, a3
0x0000000080017430: ff ff e7 b7 lui	a5, 1048574
0x0000000080017434: 00 f7 07 b3 add	a5, a4, a5
0x0000000080017438: 30 07 a8 23 sw	zero, 784(a5)
0x000000008001743c: 00 10 07 13 addi	a4, zero, 1
0x0000000080017440: 30 e7 aa 23 sw	a4, 788(a5)
0x0000000080017444: 31 07 a6 83 lw	a3, 784(a5)
0x0000000080017448: 31 47 a7 03 lw	a4, 788(a5)
0x000000008001744c: 00 06 86 9b sext.w	a3, a3
0x0000000080017450: 00 07 07 1b sext.w	a4, a4
0x0000000080017454: 00 e6 94 63 bne	a3, a4, 8
0x000000008001745c: 00 00 57 37 lui	a4, 5
0x0000000080017460: 01 01 06 93 addi	a3, sp, 16
0x0000000080017464: 19 07 07 13 addi	a4, a4, 400
0x0000000080017468: 00 d7 07 33 add	a4, a4, a3
0x000000008001746c: ff ff e7 b7 lui	a5, 1048574
0x0000000080017470: 00 f7 07 b3 add	a5, a4, a5
0x0000000080017474: 30 07 ac 23 sw	zero, 792(a5)
0x0000000080017478: 00 20 07 13 addi	a4, zero, 2
0x000000008001747c: 30 e7 ae 23 sw	a4, 796(a5)
0x0000000080017480: 31 87 a6 83 lw	a3, 792(a5)
0x0000000080017484: 31 c7 a7 03 lw	a4, 796(a5)
0x0000000080017488: 00 06 86 9b sext.w	a3, a3
0x000000008001748c: 00 07 07 1b sext.w	a4, a4
0x0000000080017490: 00 e6 94 63 bne	a3, a4, 8
0x0000000080017498: 00 00 57 37 lui	a4, 5
0x000000008001749c: 01 01 06 93 addi	a3, sp, 16
0x00000000800174a0: 19 07 07 13 addi	a4, a4, 400
0x00000000800174a4: 00 d7 07 33 add	a4, a4, a3
0x00000000800174a8: ff ff e7 b7 lui	a5, 1048574
0x00000000800174ac: 00 f7 07 b3 add	a5, a4, a5
0x00000000800174b0: 80 00 07 37 lui	a4, 524288
0x00000000800174b4: 32 07 a0 23 sw	zero, 800(a5)
0x00000000800174b8: ff e7 47 13 xori	a4, a4, -2
0x00000000800174bc: 32 e7 a2 23 sw	a4, 804(a5)
0x00000000800174c0: 32 07 a6 83 lw	a3, 800(a5)
0x00000000800174c4: 32 47 a7 03 lw	a4, 804(a5)
0x00000000800174c8: 00 06 86 9b sext.w	a3, a3
0x00000000800174cc: 00 07 07 1b sext.w	a4, a4
0x00000000800174d0: 00 e6 94 63 bne	a3, a4, 8
0x00000000800174d8: 00 00 57 37 lui	a4, 5
0x00000000800174dc: 01 01 06 93 addi	a3, sp, 16
0x00000000800174e0: 19 07 07 13 addi	a4, a4, 400
0x00000000800174e4: 00 d7 07 33 add	a4, a4, a3
0x00000000800174e8: ff ff e7 b7 lui	a5, 1048574
0x00000000800174ec: 00 f7 07 b3 add	a5, a4, a5
0x00000000800174f0: 80 00 07 37 lui	a4, 524288
0x00000000800174f4: 32 07 a4 23 sw	zero, 808(a5)
0x00000000800174f8: ff f7 47 13 not	a4, a4
0x00000000800174fc: 32 e7 a6 23 sw	a4, 812(a5)
0x0000000080017500: 32 87 a6 83 lw	a3, 808(a5)
0x0000000080017504: 32 c7 a7 03 lw	a4, 812(a5)
0x0000000080017508: 00 06 86 9b sext.w	a3, a3
0x000000008001750c: 00 07 07 1b sext.w	a4, a4
0x0000000080017510: 00 e6 94 63 bne	a3, a4, 8
0x0000000080017518: 00 00 57 37 lui	a4, 5
0x000000008001751c: 01 01 06 93 addi	a3, sp, 16
0x0000000080017520: 19 07 07 13 addi	a4, a4, 400
0x0000000080017524: 00 d7 07 33 add	a4, a4, a3
0x0000000080017528: ff ff e7 b7 lui	a5, 1048574
0x000000008001752c: 00 f7 07 b3 add	a5, a4, a5
0x0000000080017530: 00 10 07 13 addi	a4, zero, 1
0x0000000080017534: 32 e7 a8 23 sw	a4, 816(a5)
0x0000000080017538: 32 e7 aa 23 sw	a4, 820(a5)
0x000000008001753c: 33 07 a6 83 lw	a3, 816(a5)
0x0000000080017540: 33 47 a7 03 lw	a4, 820(a5)
0x0000000080017544: 00 06 86 9b sext.w	a3, a3
0x0000000080017548: 00 07 07 1b sext.w	a4, a4
0x000000008001754c: 08 e6 88 63 beq	a3, a4, 144
0x00000000800175dc: 00 00 57 37 lui	a4, 5
0x00000000800175e0: 01 01 06 93 addi	a3, sp, 16
0x00000000800175e4: 19 07 07 13 addi	a4, a4, 400
0x00000000800175e8: 00 d7 07 33 add	a4, a4, a3
0x00000000800175ec: ff ff e7 b7 lui	a5, 1048574
0x00000000800175f0: 00 f7 07 b3 add	a5, a4, a5
0x00000000800175f4: 00 10 07 13 addi	a4, zero, 1
0x00000000800175f8: 32 e7 ac 23 sw	a4, 824(a5)
0x00000000800175fc: 00 20 07 13 addi	a4, zero, 2
0x0000000080017600: 32 e7 ae 23 sw	a4, 828(a5)
0x0000000080017604: 33 87 a6 83 lw	a3, 824(a5)
0x0000000080017608: 33 c7 a7 03 lw	a4, 828(a5)
0x000000008001760c: 00 06 86 9b sext.w	a3, a3
0x0000000080017610: 00 07 07 1b sext.w	a4, a4
0x0000000080017614: 00 e6 94 63 bne	a3, a4, 8
0x000000008001761c: 00 00 57 37 lui	a4, 5
0x0000000080017620: 01 01 06 93 addi	a3, sp, 16
0x0000000080017624: 19 07 07 13 addi	a4, a4, 400
0x0000000080017628: 00 d7 07 33 add	a4, a4, a3
0x000000008001762c: ff ff e7 b7 lui	a5, 1048574
0x0000000080017630: 00 f7 07 b3 add	a5, a4, a5
0x0000000080017634: 00 10 07 13 addi	a4, zero, 1
0x0000000080017638: 34 e7 a0 23 sw	a4, 832(a5)
0x000000008001763c: 80 00 07 37 lui	a4, 524288
0x0000000080017640: ff e7 47 13 xori	a4, a4, -2
0x0000000080017644: 34 e7 a2 23 sw	a4, 836(a5)
0x0000000080017648: 34 07 a6 83 lw	a3, 832(a5)
0x000000008001764c: 34 47 a7 03 lw	a4, 836(a5)
0x0000000080017650: 00 06 86 9b sext.w	a3, a3
0x0000000080017654: 00 07 07 1b sext.w	a4, a4
0x0000000080017658: 00 e6 94 63 bne	a3, a4, 8
0x0000000080017660: 00 00 57 37 lui	a4, 5
0x0000000080017664: 01 01 06 93 addi	a3, sp, 16
0x0000000080017668: 19 07 07 13 addi	a4, a4, 400
0x000000008001766c: 00 d7 07 33 add	a4, a4, a3
0x0000000080017670: ff ff e7 b7 lui	a5, 1048574
0x0000000080017674: 00 f7 07 b3 add	a5, a4, a5
0x0000000080017678: 00 10 07 13 addi	a4, zero, 1
0x000000008001767c: 34 e7 a4 23 sw	a4, 840(a5)
0x0000000080017680: 80 00 07 37 lui	a4, 524288
0x0000000080017684: ff f7 47 13 not	a4, a4
0x0000000080017688: 34 e7 a6 23 sw	a4, 844(a5)
0x000000008001768c: 34 87 a6 83 lw	a3, 840(a5)
0x0000000080017690: 34 c7 a7 03 lw	a4, 844(a5)
0x0000000080017694: 00 06 86 9b sext.w	a3, a3
0x0000000080017698: 00 07 07 1b sext.w	a4, a4
0x000000008001769c: 00 e6 94 63 bne	a3, a4, 8
0x00000000800176a4: 00 00 57 37 lui	a4, 5
0x00000000800176a8: 01 01 06 93 addi	a3, sp, 16
0x00000000800176ac: 19 07 07 13 addi	a4, a4, 400
0x00000000800176b0: 00 d7 07 33 add	a4, a4, a3
0x00000000800176b4: ff ff e7 b7 lui	a5, 1048574
0x00000000800176b8: 00 f7 07 b3 add	a5, a4, a5
0x00000000800176bc: 00 20 07 13 addi	a4, zero, 2
0x00000000800176c0: 34 e7 a8 23 sw	a4, 848(a5)
0x00000000800176c4: 34 e7 aa 23 sw	a4, 852(a5)
0x00000000800176c8: 35 07 a6 83 lw	a3, 848(a5)
0x00000000800176cc: 35 47 a7 03 lw	a4, 852(a5)
0x00000000800176d0: 00 06 86 9b sext.w	a3, a3
0x00000000800176d4: 00 07 07 1b sext.w	a4, a4
0x00000000800176d8: 08 e6 88 63 beq	a3, a4, 144
0x0000000080017768: 00 00 57 37 lui	a4, 5
0x000000008001776c: 01 01 06 93 addi	a3, sp, 16
0x0000000080017770: 19 07 07 13 addi	a4, a4, 400
0x0000000080017774: 00 d7 07 33 add	a4, a4, a3
0x0000000080017778: ff ff e7 b7 lui	a5, 1048574
0x000000008001777c: 00 f7 07 b3 add	a5, a4, a5
0x0000000080017780: 00 20 07 13 addi	a4, zero, 2
0x0000000080017784: 34 e7 ac 23 sw	a4, 856(a5)
0x0000000080017788: 80 00 07 37 lui	a4, 524288
0x000000008001778c: ff e7 47 13 xori	a4, a4, -2
0x0000000080017790: 34 e7 ae 23 sw	a4, 860(a5)
0x0000000080017794: 35 87 a6 83 lw	a3, 856(a5)
0x0000000080017798: 35 c7 a7 03 lw	a4, 860(a5)
0x000000008001779c: 00 06 86 9b sext.w	a3, a3
0x00000000800177a0: 00 07 07 1b sext.w	a4, a4
0x00000000800177a4: 00 e6 94 63 bne	a3, a4, 8
0x00000000800177ac: 00 00 57 37 lui	a4, 5
0x00000000800177b0: 01 01 06 93 addi	a3, sp, 16
0x00000000800177b4: 19 07 07 13 addi	a4, a4, 400
0x00000000800177b8: 00 d7 07 33 add	a4, a4, a3
0x00000000800177bc: ff ff e7 b7 lui	a5, 1048574
0x00000000800177c0: 00 f7 07 b3 add	a5, a4, a5
0x00000000800177c4: 00 20 07 13 addi	a4, zero, 2
0x00000000800177c8: 36 e7 a0 23 sw	a4, 864(a5)
0x00000000800177cc: 80 00 07 37 lui	a4, 524288
0x00000000800177d0: ff f7 47 13 not	a4, a4
0x00000000800177d4: 36 e7 a2 23 sw	a4, 868(a5)
0x00000000800177d8: 36 07 a6 83 lw	a3, 864(a5)
0x00000000800177dc: 36 47 a7 03 lw	a4, 868(a5)
0x00000000800177e0: 00 06 86 9b sext.w	a3, a3
0x00000000800177e4: 00 07 07 1b sext.w	a4, a4
0x00000000800177e8: 00 e6 94 63 bne	a3, a4, 8
0x00000000800177f0: 00 00 57 37 lui	a4, 5
0x00000000800177f4: 01 01 06 93 addi	a3, sp, 16
0x00000000800177f8: 19 07 07 13 addi	a4, a4, 400
0x00000000800177fc: 00 d7 07 33 add	a4, a4, a3
0x0000000080017800: ff ff e7 b7 lui	a5, 1048574
0x0000000080017804: 00 f7 07 b3 add	a5, a4, a5
0x0000000080017808: 80 00 07 37 lui	a4, 524288
0x000000008001780c: ff e7 47 13 xori	a4, a4, -2
0x0000000080017810: 36 e7 a4 23 sw	a4, 872(a5)
0x0000000080017814: 36 e7 a6 23 sw	a4, 876(a5)
0x0000000080017818: 36 87 a6 83 lw	a3, 872(a5)
0x000000008001781c: 36 c7 a7 03 lw	a4, 876(a5)
0x0000000080017820: 00 06 86 9b sext.w	a3, a3
0x0000000080017824: 00 07 07 1b sext.w	a4, a4
0x0000000080017828: 08 e6 8a 63 beq	a3, a4, 148
0x00000000800178bc: 00 00 56 b7 lui	a3, 5
0x00000000800178c0: 19 06 86 93 addi	a3, a3, 400
0x00000000800178c4: 01 01 06 13 addi	a2, sp, 16
0x00000000800178c8: 80 00 07 37 lui	a4, 524288
0x00000000800178cc: 00 c6 86 b3 add	a3, a3, a2
0x00000000800178d0: ff ff e7 b7 lui	a5, 1048574
0x00000000800178d4: 00 f6 87 b3 add	a5, a3, a5
0x00000000800178d8: ff e7 46 93 xori	a3, a4, -2
0x00000000800178dc: 36 d7 a8 23 sw	a3, 880(a5)
0x00000000800178e0: ff f7 47 13 not	a4, a4
0x00000000800178e4: 36 e7 aa 23 sw	a4, 884(a5)
0x00000000800178e8: 37 07 a6 83 lw	a3, 880(a5)
0x00000000800178ec: 37 47 a7 03 lw	a4, 884(a5)
0x00000000800178f0: 00 06 86 9b sext.w	a3, a3
0x00000000800178f4: 00 07 07 1b sext.w	a4, a4
0x00000000800178f8: 00 e6 94 63 bne	a3, a4, 8
0x0000000080017900: 00 00 57 37 lui	a4, 5
0x0000000080017904: 01 01 06 93 addi	a3, sp, 16
0x0000000080017908: 19 07 07 13 addi	a4, a4, 400
0x000000008001790c: 00 d7 07 33 add	a4, a4, a3
0x0000000080017910: ff ff e7 b7 lui	a5, 1048574
0x0000000080017914: 00 f7 07 b3 add	a5, a4, a5
0x0000000080017918: 80 00 07 37 lui	a4, 524288
0x000000008001791c: ff f7 47 13 not	a4, a4
0x0000000080017920: 36 e7 ac 23 sw	a4, 888(a5)
0x0000000080017924: 36 e7 ae 23 sw	a4, 892(a5)
0x0000000080017928: 37 87 a6 83 lw	a3, 888(a5)
0x000000008001792c: 37 c7 a7 03 lw	a4, 892(a5)
0x0000000080017930: 00 06 86 9b sext.w	a3, a3
0x0000000080017934: 00 07 07 1b sext.w	a4, a4
0x0000000080017938: 08 e6 8a 63 beq	a3, a4, 148
0x00000000800179cc: 00 00 57 37 lui	a4, 5
0x00000000800179d0: 01 01 06 93 addi	a3, sp, 16
0x00000000800179d4: 19 07 07 13 addi	a4, a4, 400
0x00000000800179d8: 00 d7 07 33 add	a4, a4, a3
0x00000000800179dc: ff ff e7 b7 lui	a5, 1048574
0x00000000800179e0: 00 f7 07 b3 add	a5, a4, a5
0x00000000800179e4: 80 00 07 37 lui	a4, 524288
0x00000000800179e8: 38 e7 a0 23 sw	a4, 896(a5)
0x00000000800179ec: 38 e7 a2 23 sw	a4, 900(a5)
0x00000000800179f0: 38 07 a6 83 lw	a3, 896(a5)
0x00000000800179f4: 38 47 a7 03 lw	a4, 900(a5)
0x00000000800179f8: 00 06 86 9b sext.w	a3, a3
0x00000000800179fc: 00 07 07 1b sext.w	a4, a4
0x0000000080017a00: 08 e6 88 63 beq	a3, a4, 144
0x0000000080017a90: 00 00 57 37 lui	a4, 5
0x0000000080017a94: 01 01 06 93 addi	a3, sp, 16
0x0000000080017a98: 19 07 07 13 addi	a4, a4, 400
0x0000000080017a9c: 00 d7 07 33 add	a4, a4, a3
0x0000000080017aa0: ff ff e7 b7 lui	a5, 1048574
0x0000000080017aa4: 00 f7 07 b3 add	a5, a4, a5
0x0000000080017aa8: 80 00 07 37 lui	a4, 524288
0x0000000080017aac: 38 e7 a4 23 sw	a4, 904(a5)
0x0000000080017ab0: 00 17 07 1b addiw	a4, a4, 1
0x0000000080017ab4: 38 e7 a6 23 sw	a4, 908(a5)
0x0000000080017ab8: 38 87 a6 83 lw	a3, 904(a5)
0x0000000080017abc: 38 c7 a7 03 lw	a4, 908(a5)
0x0000000080017ac0: 00 06 86 9b sext.w	a3, a3
0x0000000080017ac4: 00 07 07 1b sext.w	a4, a4
0x0000000080017ac8: 00 e6 94 63 bne	a3, a4, 8
0x0000000080017ad0: 00 00 57 37 lui	a4, 5
0x0000000080017ad4: 01 01 06 93 addi	a3, sp, 16
0x0000000080017ad8: 19 07 07 13 addi	a4, a4, 400
0x0000000080017adc: 00 d7 07 33 add	a4, a4, a3
0x0000000080017ae0: ff ff e7 b7 lui	a5, 1048574
0x0000000080017ae4: 00 f7 07 b3 add	a5, a4, a5
0x0000000080017ae8: 80 00 07 37 lui	a4, 524288
0x0000000080017aec: 38 e7 a8 23 sw	a4, 912(a5)
0x0000000080017af0: ff e0 07 13 addi	a4, zero, -2
0x0000000080017af4: 38 e7 aa 23 sw	a4, 916(a5)
0x0000000080017af8: 39 07 a6 83 lw	a3, 912(a5)
0x0000000080017afc: 39 47 a7 03 lw	a4, 916(a5)
0x0000000080017b00: 00 06 86 9b sext.w	a3, a3
0x0000000080017b04: 00 07 07 1b sext.w	a4, a4
0x0000000080017b08: 00 e6 94 63 bne	a3, a4, 8
0x0000000080017b10: 00 00 57 37 lui	a4, 5
0x0000000080017b14: 01 01 06 93 addi	a3, sp, 16
0x0000000080017b18: 19 07 07 13 addi	a4, a4, 400
0x0000000080017b1c: 00 d7 07 33 add	a4, a4, a3
0x0000000080017b20: ff ff e7 b7 lui	a5, 1048574
0x0000000080017b24: 00 f7 07 b3 add	a5, a4, a5
0x0000000080017b28: 80 00 07 37 lui	a4, 524288
0x0000000080017b2c: 38 e7 ac 23 sw	a4, 920(a5)
0x0000000080017b30: ff f0 07 13 addi	a4, zero, -1
0x0000000080017b34: 38 e7 ae 23 sw	a4, 924(a5)
0x0000000080017b38: 39 87 a6 83 lw	a3, 920(a5)
0x0000000080017b3c: 39 c7 a7 03 lw	a4, 924(a5)
0x0000000080017b40: 00 06 86 9b sext.w	a3, a3
0x0000000080017b44: 00 07 07 1b sext.w	a4, a4
0x0000000080017b48: 00 e6 94 63 bne	a3, a4, 8
0x0000000080017b50: 00 00 57 37 lui	a4, 5
0x0000000080017b54: 01 01 06 93 addi	a3, sp, 16
0x0000000080017b58: 19 07 07 13 addi	a4, a4, 400
0x0000000080017b5c: 00 d7 07 33 add	a4, a4, a3
0x0000000080017b60: ff ff e7 b7 lui	a5, 1048574
0x0000000080017b64: 00 f7 07 b3 add	a5, a4, a5
0x0000000080017b68: 80 00 07 37 lui	a4, 524288
0x0000000080017b6c: 3a e7 a0 23 sw	a4, 928(a5)
0x0000000080017b70: 3a 07 a2 23 sw	zero, 932(a5)
0x0000000080017b74: 3a 07 a6 83 lw	a3, 928(a5)
0x0000000080017b78: 3a 47 a7 03 lw	a4, 932(a5)
0x0000000080017b7c: 00 06 86 9b sext.w	a3, a3
0x0000000080017b80: 00 07 07 1b sext.w	a4, a4
0x0000000080017b84: 00 e6 94 63 bne	a3, a4, 8
0x0000000080017b8c: 00 00 57 37 lui	a4, 5
0x0000000080017b90: 01 01 06 93 addi	a3, sp, 16
0x0000000080017b94: 19 07 07 13 addi	a4, a4, 400
0x0000000080017b98: 00 d7 07 33 add	a4, a4, a3
0x0000000080017b9c: ff ff e7 b7 lui	a5, 1048574
0x0000000080017ba0: 00 f7 07 b3 add	a5, a4, a5
0x0000000080017ba4: 80 00 07 37 lui	a4, 524288
0x0000000080017ba8: 3a e7 a4 23 sw	a4, 936(a5)
0x0000000080017bac: 00 10 07 13 addi	a4, zero, 1
0x0000000080017bb0: 3a e7 a6 23 sw	a4, 940(a5)
0x0000000080017bb4: 3a 87 a6 83 lw	a3, 936(a5)
0x0000000080017bb8: 3a c7 a7 03 lw	a4, 940(a5)
0x0000000080017bbc: 00 06 86 9b sext.w	a3, a3
0x0000000080017bc0: 00 07 07 1b sext.w	a4, a4
0x0000000080017bc4: 00 e6 94 63 bne	a3, a4, 8
0x0000000080017bcc: 00 00 57 37 lui	a4, 5
0x0000000080017bd0: 01 01 06 93 addi	a3, sp, 16
0x0000000080017bd4: 19 07 07 13 addi	a4, a4, 400
0x0000000080017bd8: 00 d7 07 33 add	a4, a4, a3
0x0000000080017bdc: ff ff e7 b7 lui	a5, 1048574
0x0000000080017be0: 00 f7 07 b3 add	a5, a4, a5
0x0000000080017be4: 80 00 07 37 lui	a4, 524288
0x0000000080017be8: 3a e7 a8 23 sw	a4, 944(a5)
0x0000000080017bec: 00 20 07 13 addi	a4, zero, 2
0x0000000080017bf0: 3a e7 aa 23 sw	a4, 948(a5)
0x0000000080017bf4: 3b 07 a6 83 lw	a3, 944(a5)
0x0000000080017bf8: 3b 47 a7 03 lw	a4, 948(a5)
0x0000000080017bfc: 00 06 86 9b sext.w	a3, a3
0x0000000080017c00: 00 07 07 1b sext.w	a4, a4
0x0000000080017c04: 00 e6 94 63 bne	a3, a4, 8
0x0000000080017c0c: 00 00 57 37 lui	a4, 5
0x0000000080017c10: 01 01 06 93 addi	a3, sp, 16
0x0000000080017c14: 19 07 07 13 addi	a4, a4, 400
0x0000000080017c18: 00 d7 07 33 add	a4, a4, a3
0x0000000080017c1c: ff ff e7 b7 lui	a5, 1048574
0x0000000080017c20: 00 f7 07 b3 add	a5, a4, a5
0x0000000080017c24: 80 00 07 37 lui	a4, 524288
0x0000000080017c28: 3a e7 ac 23 sw	a4, 952(a5)
0x0000000080017c2c: ff e7 47 13 xori	a4, a4, -2
0x0000000080017c30: 3a e7 ae 23 sw	a4, 956(a5)
0x0000000080017c34: 3b 87 a6 83 lw	a3, 952(a5)
0x0000000080017c38: 3b c7 a7 03 lw	a4, 956(a5)
0x0000000080017c3c: 00 06 86 9b sext.w	a3, a3
0x0000000080017c40: 00 07 07 1b sext.w	a4, a4
0x0000000080017c44: 00 e6 94 63 bne	a3, a4, 8
0x0000000080017c4c: 00 00 57 37 lui	a4, 5
0x0000000080017c50: 01 01 06 93 addi	a3, sp, 16
0x0000000080017c54: 19 07 07 13 addi	a4, a4, 400
0x0000000080017c58: 00 d7 07 33 add	a4, a4, a3
0x0000000080017c5c: ff ff e7 b7 lui	a5, 1048574
0x0000000080017c60: 00 f7 07 b3 add	a5, a4, a5
0x0000000080017c64: 80 00 07 37 lui	a4, 524288
0x0000000080017c68: 3c e7 a0 23 sw	a4, 960(a5)
0x0000000080017c6c: ff f7 47 13 not	a4, a4
0x0000000080017c70: 3c e7 a2 23 sw	a4, 964(a5)
0x0000000080017c74: 3c 07 a6 83 lw	a3, 960(a5)
0x0000000080017c78: 3c 47 a7 03 lw	a4, 964(a5)
0x0000000080017c7c: 00 06 86 9b sext.w	a3, a3
0x0000000080017c80: 00 07 07 1b sext.w	a4, a4
0x0000000080017c84: 00 e6 94 63 bne	a3, a4, 8
0x0000000080017c8c: 00 00 57 37 lui	a4, 5
0x0000000080017c90: 01 01 06 93 addi	a3, sp, 16
0x0000000080017c94: 19 07 07 13 addi	a4, a4, 400
0x0000000080017c98: 00 d7 07 33 add	a4, a4, a3
0x0000000080017c9c: ff ff e7 b7 lui	a5, 1048574
0x0000000080017ca0: 00 f7 07 b3 add	a5, a4, a5
0x0000000080017ca4: 80 00 07 37 lui	a4, 524288
0x0000000080017ca8: 00 17 07 1b addiw	a4, a4, 1
0x0000000080017cac: 3c e7 a4 23 sw	a4, 968(a5)
0x0000000080017cb0: 3c e7 a6 23 sw	a4, 972(a5)
0x0000000080017cb4: 3c 87 a6 83 lw	a3, 968(a5)
0x0000000080017cb8: 3c c7 a7 03 lw	a4, 972(a5)
0x0000000080017cbc: 00 06 86 9b sext.w	a3, a3
0x0000000080017cc0: 00 07 07 1b sext.w	a4, a4
0x0000000080017cc4: 08 e6 8a 63 beq	a3, a4, 148
0x0000000080017d58: 00 00 57 37 lui	a4, 5
0x0000000080017d5c: 01 01 06 93 addi	a3, sp, 16
0x0000000080017d60: 19 07 07 13 addi	a4, a4, 400
0x0000000080017d64: 00 d7 07 33 add	a4, a4, a3
0x0000000080017d68: ff ff e7 b7 lui	a5, 1048574
0x0000000080017d6c: 00 f7 07 b3 add	a5, a4, a5
0x0000000080017d70: 80 00 07 37 lui	a4, 524288
0x0000000080017d74: 00 17 07 1b addiw	a4, a4, 1
0x0000000080017d78: 3c e7 a8 23 sw	a4, 976(a5)
0x0000000080017d7c: ff e0 07 13 addi	a4, zero, -2
0x0000000080017d80: 3c e7 aa 23 sw	a4, 980(a5)
0x0000000080017d84: 3d 07 a6 83 lw	a3, 976(a5)
0x0000000080017d88: 3d 47 a7 03 lw	a4, 980(a5)
0x0000000080017d8c: 00 06 86 9b sext.w	a3, a3
0x0000000080017d90: 00 07 07 1b sext.w	a4, a4
0x0000000080017d94: 00 e6 94 63 bne	a3, a4, 8
0x0000000080017d9c: 00 00 57 37 lui	a4, 5
0x0000000080017da0: 01 01 06 93 addi	a3, sp, 16
0x0000000080017da4: 19 07 07 13 addi	a4, a4, 400
0x0000000080017da8: 00 d7 07 33 add	a4, a4, a3
0x0000000080017dac: ff ff e7 b7 lui	a5, 1048574
0x0000000080017db0: 00 f7 07 b3 add	a5, a4, a5
0x0000000080017db4: 80 00 07 37 lui	a4, 524288
0x0000000080017db8: 00 17 07 1b addiw	a4, a4, 1
0x0000000080017dbc: 3c e7 ac 23 sw	a4, 984(a5)
0x0000000080017dc0: ff f0 07 13 addi	a4, zero, -1
0x0000000080017dc4: 3c e7 ae 23 sw	a4, 988(a5)
0x0000000080017dc8: 3d 87 a6 83 lw	a3, 984(a5)
0x0000000080017dcc: 3d c7 a7 03 lw	a4, 988(a5)
0x0000000080017dd0: 00 06 86 9b sext.w	a3, a3
0x0000000080017dd4: 00 07 07 1b sext.w	a4, a4
0x0000000080017dd8: 00 e6 94 63 bne	a3, a4, 8
0x0000000080017de0: 00 00 57 37 lui	a4, 5
0x0000000080017de4: 01 01 06 93 addi	a3, sp, 16
0x0000000080017de8: 19 07 07 13 addi	a4, a4, 400
0x0000000080017dec: 00 d7 07 33 add	a4, a4, a3
0x0000000080017df0: ff ff e7 b7 lui	a5, 1048574
0x0000000080017df4: 00 f7 07 b3 add	a5, a4, a5
0x0000000080017df8: 80 00 07 37 lui	a4, 524288
0x0000000080017dfc: 00 17 07 1b addiw	a4, a4, 1
0x0000000080017e00: 3e e7 a0 23 sw	a4, 992(a5)
0x0000000080017e04: 3e 07 a2 23 sw	zero, 996(a5)
0x0000000080017e08: 3e 07 a6 83 lw	a3, 992(a5)
0x0000000080017e0c: 3e 47 a7 03 lw	a4, 996(a5)
0x0000000080017e10: 00 06 86 9b sext.w	a3, a3
0x0000000080017e14: 00 07 07 1b sext.w	a4, a4
0x0000000080017e18: 00 e6 94 63 bne	a3, a4, 8
0x0000000080017e20: 00 00 57 37 lui	a4, 5
0x0000000080017e24: 01 01 06 93 addi	a3, sp, 16
0x0000000080017e28: 19 07 07 13 addi	a4, a4, 400
0x0000000080017e2c: 00 d7 07 33 add	a4, a4, a3
0x0000000080017e30: ff ff e7 b7 lui	a5, 1048574
0x0000000080017e34: 00 f7 07 b3 add	a5, a4, a5
0x0000000080017e38: 80 00 07 37 lui	a4, 524288
0x0000000080017e3c: 00 17 07 1b addiw	a4, a4, 1
0x0000000080017e40: 3e e7 a4 23 sw	a4, 1000(a5)
0x0000000080017e44: 00 10 07 13 addi	a4, zero, 1
0x0000000080017e48: 3e e7 a6 23 sw	a4, 1004(a5)
0x0000000080017e4c: 3e 87 a6 83 lw	a3, 1000(a5)
0x0000000080017e50: 3e c7 a7 03 lw	a4, 1004(a5)
0x0000000080017e54: 00 06 86 9b sext.w	a3, a3
0x0000000080017e58: 00 07 07 1b sext.w	a4, a4
0x0000000080017e5c: 00 e6 94 63 bne	a3, a4, 8
0x0000000080017e64: 00 00 57 37 lui	a4, 5
0x0000000080017e68: 01 01 06 93 addi	a3, sp, 16
0x0000000080017e6c: 19 07 07 13 addi	a4, a4, 400
0x0000000080017e70: 00 d7 07 33 add	a4, a4, a3
0x0000000080017e74: ff ff e7 b7 lui	a5, 1048574
0x0000000080017e78: 00 f7 07 b3 add	a5, a4, a5
0x0000000080017e7c: 80 00 07 37 lui	a4, 524288
0x0000000080017e80: 00 17 07 1b addiw	a4, a4, 1
0x0000000080017e84: 3e e7 a8 23 sw	a4, 1008(a5)
0x0000000080017e88: 00 20 07 13 addi	a4, zero, 2
0x0000000080017e8c: 3e e7 aa 23 sw	a4, 1012(a5)
0x0000000080017e90: 3f 07 a6 83 lw	a3, 1008(a5)
0x0000000080017e94: 3f 47 a7 03 lw	a4, 1012(a5)
0x0000000080017e98: 00 06 86 9b sext.w	a3, a3
0x0000000080017e9c: 00 07 07 1b sext.w	a4, a4
0x0000000080017ea0: 00 e6 94 63 bne	a3, a4, 8
0x0000000080017ea8: 00 00 56 b7 lui	a3, 5
0x0000000080017eac: 19 06 86 93 addi	a3, a3, 400
0x0000000080017eb0: 01 01 06 13 addi	a2, sp, 16
0x0000000080017eb4: 80 00 07 37 lui	a4, 524288
0x0000000080017eb8: 00 c6 86 b3 add	a3, a3, a2
0x0000000080017ebc: ff ff e7 b7 lui	a5, 1048574
0x0000000080017ec0: 00 f6 87 b3 add	a5, a3, a5
0x0000000080017ec4: 00 17 06 9b addiw	a3, a4, 1
0x0000000080017ec8: 3e d7 ac 23 sw	a3, 1016(a5)
0x0000000080017ecc: ff e7 47 13 xori	a4, a4, -2
0x0000000080017ed0: 3e e7 ae 23 sw	a4, 1020(a5)
0x0000000080017ed4: 3f 87 a6 83 lw	a3, 1016(a5)
0x0000000080017ed8: 3f c7 a7 03 lw	a4, 1020(a5)
0x0000000080017edc: 00 06 86 9b sext.w	a3, a3
0x0000000080017ee0: 00 07 07 1b sext.w	a4, a4
0x0000000080017ee4: 00 e6 94 63 bne	a3, a4, 8
0x0000000080017eec: 00 00 56 b7 lui	a3, 5
0x0000000080017ef0: 19 06 86 93 addi	a3, a3, 400
0x0000000080017ef4: 01 01 06 13 addi	a2, sp, 16
0x0000000080017ef8: 80 00 07 37 lui	a4, 524288
0x0000000080017efc: 00 c6 86 b3 add	a3, a3, a2
0x0000000080017f00: ff ff e7 b7 lui	a5, 1048574
0x0000000080017f04: 00 f6 87 b3 add	a5, a3, a5
0x0000000080017f08: 00 17 06 9b addiw	a3, a4, 1
0x0000000080017f0c: 40 d7 a0 23 sw	a3, 1024(a5)
0x0000000080017f10: ff f7 47 13 not	a4, a4
0x0000000080017f14: 40 e7 a2 23 sw	a4, 1028(a5)
0x0000000080017f18: 40 07 a6 83 lw	a3, 1024(a5)
0x0000000080017f1c: 40 47 a7 03 lw	a4, 1028(a5)
0x0000000080017f20: 00 06 86 9b sext.w	a3, a3
0x0000000080017f24: 00 07 07 1b sext.w	a4, a4
0x0000000080017f28: 00 e6 94 63 bne	a3, a4, 8
0x0000000080017f30: 00 00 57 37 lui	a4, 5
0x0000000080017f34: 01 01 06 93 addi	a3, sp, 16
0x0000000080017f38: 19 07 07 13 addi	a4, a4, 400
0x0000000080017f3c: 00 d7 07 33 add	a4, a4, a3
0x0000000080017f40: ff ff e7 b7 lui	a5, 1048574
0x0000000080017f44: 00 f7 07 b3 add	a5, a4, a5
0x0000000080017f48: ff e0 07 13 addi	a4, zero, -2
0x0000000080017f4c: 40 e7 a4 23 sw	a4, 1032(a5)
0x0000000080017f50: 40 e7 a6 23 sw	a4, 1036(a5)
0x0000000080017f54: 40 87 a6 83 lw	a3, 1032(a5)
0x0000000080017f58: 40 c7 a7 03 lw	a4, 1036(a5)
0x0000000080017f5c: 00 06 86 9b sext.w	a3, a3
0x0000000080017f60: 00 07 07 1b sext.w	a4, a4
0x0000000080017f64: 08 e6 88 63 beq	a3, a4, 144
0x0000000080017ff4: 00 00 57 37 lui	a4, 5
0x0000000080017ff8: 01 01 06 93 addi	a3, sp, 16
0x0000000080017ffc: 19 07 07 13 addi	a4, a4, 400
0x0000000080018000: 00 d7 07 33 add	a4, a4, a3
0x0000000080018004: ff ff e7 b7 lui	a5, 1048574
0x0000000080018008: 00 f7 07 b3 add	a5, a4, a5
0x000000008001800c: ff e0 07 13 addi	a4, zero, -2
0x0000000080018010: 40 e7 a8 23 sw	a4, 1040(a5)
0x0000000080018014: ff f0 07 13 addi	a4, zero, -1
0x0000000080018018: 40 e7 aa 23 sw	a4, 1044(a5)
0x000000008001801c: 41 07 a6 83 lw	a3, 1040(a5)
0x0000000080018020: 41 47 a7 03 lw	a4, 1044(a5)
0x0000000080018024: 00 06 86 9b sext.w	a3, a3
0x0000000080018028: 00 07 07 1b sext.w	a4, a4
0x000000008001802c: 00 e6 94 63 bne	a3, a4, 8
0x0000000080018034: 00 00 57 37 lui	a4, 5
0x0000000080018038: 01 01 06 93 addi	a3, sp, 16
0x000000008001803c: 19 07 07 13 addi	a4, a4, 400
0x0000000080018040: 00 d7 07 33 add	a4, a4, a3
0x0000000080018044: ff ff e7 b7 lui	a5, 1048574
0x0000000080018048: 00 f7 07 b3 add	a5, a4, a5
0x000000008001804c: ff e0 07 13 addi	a4, zero, -2
0x0000000080018050: 40 e7 ac 23 sw	a4, 1048(a5)
0x0000000080018054: 40 07 ae 23 sw	zero, 1052(a5)
0x0000000080018058: 41 87 a6 83 lw	a3, 1048(a5)
0x000000008001805c: 41 c7 a7 03 lw	a4, 1052(a5)
0x0000000080018060: 00 06 86 9b sext.w	a3, a3
0x0000000080018064: 00 07 07 1b sext.w	a4, a4
0x0000000080018068: 00 e6 94 63 bne	a3, a4, 8
0x0000000080018070: 00 00 57 37 lui	a4, 5
0x0000000080018074: 01 01 06 93 addi	a3, sp, 16
0x0000000080018078: 19 07 07 13 addi	a4, a4, 400
0x000000008001807c: 00 d7 07 33 add	a4, a4, a3
0x0000000080018080: ff ff e7 b7 lui	a5, 1048574
0x0000000080018084: 00 f7 07 b3 add	a5, a4, a5
0x0000000080018088: ff e0 07 13 addi	a4, zero, -2
0x000000008001808c: 42 e7 a0 23 sw	a4, 1056(a5)
0x0000000080018090: 00 10 07 13 addi	a4, zero, 1
0x0000000080018094: 42 e7 a2 23 sw	a4, 1060(a5)
0x0000000080018098: 42 07 a6 83 lw	a3, 1056(a5)
0x000000008001809c: 42 47 a7 03 lw	a4, 1060(a5)
0x00000000800180a0: 00 06 86 9b sext.w	a3, a3
0x00000000800180a4: 00 07 07 1b sext.w	a4, a4
0x00000000800180a8: 00 e6 94 63 bne	a3, a4, 8
0x00000000800180b0: 00 00 57 37 lui	a4, 5
0x00000000800180b4: 01 01 06 93 addi	a3, sp, 16
0x00000000800180b8: 19 07 07 13 addi	a4, a4, 400
0x00000000800180bc: 00 d7 07 33 add	a4, a4, a3
0x00000000800180c0: ff ff e7 b7 lui	a5, 1048574
0x00000000800180c4: 00 f7 07 b3 add	a5, a4, a5
0x00000000800180c8: ff e0 07 13 addi	a4, zero, -2
0x00000000800180cc: 42 e7 a4 23 sw	a4, 1064(a5)
0x00000000800180d0: 00 20 07 13 addi	a4, zero, 2
0x00000000800180d4: 42 e7 a6 23 sw	a4, 1068(a5)
0x00000000800180d8: 42 87 a6 83 lw	a3, 1064(a5)
0x00000000800180dc: 42 c7 a7 03 lw	a4, 1068(a5)
0x00000000800180e0: 00 06 86 9b sext.w	a3, a3
0x00000000800180e4: 00 07 07 1b sext.w	a4, a4
0x00000000800180e8: 00 e6 94 63 bne	a3, a4, 8
0x00000000800180f0: 00 00 57 37 lui	a4, 5
0x00000000800180f4: 01 01 06 93 addi	a3, sp, 16
0x00000000800180f8: 19 07 07 13 addi	a4, a4, 400
0x00000000800180fc: 00 d7 07 33 add	a4, a4, a3
0x0000000080018100: ff ff e7 b7 lui	a5, 1048574
0x0000000080018104: 00 f7 07 b3 add	a5, a4, a5
0x0000000080018108: ff e0 07 13 addi	a4, zero, -2
0x000000008001810c: 42 e7 a8 23 sw	a4, 1072(a5)
0x0000000080018110: 80 00 07 37 lui	a4, 524288
0x0000000080018114: ff e7 47 13 xori	a4, a4, -2
0x0000000080018118: 42 e7 aa 23 sw	a4, 1076(a5)
0x000000008001811c: 43 07 a6 83 lw	a3, 1072(a5)
0x0000000080018120: 43 47 a7 03 lw	a4, 1076(a5)
0x0000000080018124: 00 06 86 9b sext.w	a3, a3
0x0000000080018128: 00 07 07 1b sext.w	a4, a4
0x000000008001812c: 00 e6 94 63 bne	a3, a4, 8
0x0000000080018134: 00 00 57 37 lui	a4, 5
0x0000000080018138: 01 01 06 93 addi	a3, sp, 16
0x000000008001813c: 19 07 07 13 addi	a4, a4, 400
0x0000000080018140: 00 d7 07 33 add	a4, a4, a3
0x0000000080018144: ff ff e7 b7 lui	a5, 1048574
0x0000000080018148: 00 f7 07 b3 add	a5, a4, a5
0x000000008001814c: ff e0 07 13 addi	a4, zero, -2
0x0000000080018150: 42 e7 ac 23 sw	a4, 1080(a5)
0x0000000080018154: 80 00 07 37 lui	a4, 524288
0x0000000080018158: ff f7 47 13 not	a4, a4
0x000000008001815c: 42 e7 ae 23 sw	a4, 1084(a5)
0x0000000080018160: 43 87 a6 83 lw	a3, 1080(a5)
0x0000000080018164: 43 c7 a7 03 lw	a4, 1084(a5)
0x0000000080018168: 00 06 86 9b sext.w	a3, a3
0x000000008001816c: 00 07 07 1b sext.w	a4, a4
0x0000000080018170: 00 e6 94 63 bne	a3, a4, 8
0x0000000080018178: 00 00 57 37 lui	a4, 5
0x000000008001817c: 01 01 06 93 addi	a3, sp, 16
0x0000000080018180: 19 07 07 13 addi	a4, a4, 400
0x0000000080018184: 00 d7 07 33 add	a4, a4, a3
0x0000000080018188: ff ff e7 b7 lui	a5, 1048574
0x000000008001818c: 00 f7 07 b3 add	a5, a4, a5
0x0000000080018190: ff f0 07 13 addi	a4, zero, -1
0x0000000080018194: 44 e7 a0 23 sw	a4, 1088(a5)
0x0000000080018198: 44 e7 a2 23 sw	a4, 1092(a5)
0x000000008001819c: 44 07 a6 83 lw	a3, 1088(a5)
0x00000000800181a0: 44 47 a7 03 lw	a4, 1092(a5)
0x00000000800181a4: 00 06 86 9b sext.w	a3, a3
0x00000000800181a8: 00 07 07 1b sext.w	a4, a4
0x00000000800181ac: 08 e6 88 63 beq	a3, a4, 144
0x000000008001823c: 00 00 57 37 lui	a4, 5
0x0000000080018240: 01 01 06 93 addi	a3, sp, 16
0x0000000080018244: 19 07 07 13 addi	a4, a4, 400
0x0000000080018248: 00 d7 07 33 add	a4, a4, a3
0x000000008001824c: ff ff e7 b7 lui	a5, 1048574
0x0000000080018250: 00 f7 07 b3 add	a5, a4, a5
0x0000000080018254: ff f0 07 13 addi	a4, zero, -1
0x0000000080018258: 44 e7 a4 23 sw	a4, 1096(a5)
0x000000008001825c: 44 07 a6 23 sw	zero, 1100(a5)
0x0000000080018260: 44 87 a6 83 lw	a3, 1096(a5)
0x0000000080018264: 44 c7 a7 03 lw	a4, 1100(a5)
0x0000000080018268: 00 06 86 9b sext.w	a3, a3
0x000000008001826c: 00 07 07 1b sext.w	a4, a4
0x0000000080018270: 00 e6 94 63 bne	a3, a4, 8
0x0000000080018278: 00 00 57 37 lui	a4, 5
0x000000008001827c: 01 01 06 93 addi	a3, sp, 16
0x0000000080018280: 19 07 07 13 addi	a4, a4, 400
0x0000000080018284: 00 d7 07 33 add	a4, a4, a3
0x0000000080018288: ff ff e7 b7 lui	a5, 1048574
0x000000008001828c: 00 f7 07 b3 add	a5, a4, a5
0x0000000080018290: ff f0 07 13 addi	a4, zero, -1
0x0000000080018294: 44 e7 a8 23 sw	a4, 1104(a5)
0x0000000080018298: 00 10 07 13 addi	a4, zero, 1
0x000000008001829c: 44 e7 aa 23 sw	a4, 1108(a5)
0x00000000800182a0: 45 07 a6 83 lw	a3, 1104(a5)
0x00000000800182a4: 45 47 a7 03 lw	a4, 1108(a5)
0x00000000800182a8: 00 06 86 9b sext.w	a3, a3
0x00000000800182ac: 00 07 07 1b sext.w	a4, a4
0x00000000800182b0: 00 e6 94 63 bne	a3, a4, 8
0x00000000800182b8: 00 00 57 37 lui	a4, 5
0x00000000800182bc: 01 01 06 93 addi	a3, sp, 16
0x00000000800182c0: 19 07 07 13 addi	a4, a4, 400
0x00000000800182c4: 00 d7 07 33 add	a4, a4, a3
0x00000000800182c8: ff ff e7 b7 lui	a5, 1048574
0x00000000800182cc: 00 f7 07 b3 add	a5, a4, a5
0x00000000800182d0: ff f0 07 13 addi	a4, zero, -1
0x00000000800182d4: 44 e7 ac 23 sw	a4, 1112(a5)
0x00000000800182d8: 00 20 07 13 addi	a4, zero, 2
0x00000000800182dc: 44 e7 ae 23 sw	a4, 1116(a5)
0x00000000800182e0: 45 87 a6 83 lw	a3, 1112(a5)
0x00000000800182e4: 45 c7 a7 03 lw	a4, 1116(a5)
0x00000000800182e8: 00 06 86 9b sext.w	a3, a3
0x00000000800182ec: 00 07 07 1b sext.w	a4, a4
0x00000000800182f0: 00 e6 94 63 bne	a3, a4, 8
0x00000000800182f8: 00 00 57 37 lui	a4, 5
0x00000000800182fc: 01 01 06 93 addi	a3, sp, 16
0x0000000080018300: 19 07 07 13 addi	a4, a4, 400
0x0000000080018304: 00 d7 07 33 add	a4, a4, a3
0x0000000080018308: ff ff e7 b7 lui	a5, 1048574
0x000000008001830c: 00 f7 07 b3 add	a5, a4, a5
0x0000000080018310: ff f0 07 13 addi	a4, zero, -1
0x0000000080018314: 46 e7 a0 23 sw	a4, 1120(a5)
0x0000000080018318: 80 00 07 37 lui	a4, 524288
0x000000008001831c: ff e7 47 13 xori	a4, a4, -2
0x0000000080018320: 46 e7 a2 23 sw	a4, 1124(a5)
0x0000000080018324: 46 07 a6 83 lw	a3, 1120(a5)
0x0000000080018328: 46 47 a7 03 lw	a4, 1124(a5)
0x000000008001832c: 00 06 86 9b sext.w	a3, a3
0x0000000080018330: 00 07 07 1b sext.w	a4, a4
0x0000000080018334: 00 e6 94 63 bne	a3, a4, 8
0x000000008001833c: 00 00 57 37 lui	a4, 5
0x0000000080018340: 01 01 06 93 addi	a3, sp, 16
0x0000000080018344: 19 07 07 13 addi	a4, a4, 400
0x0000000080018348: 00 d7 07 33 add	a4, a4, a3
0x000000008001834c: ff ff e7 b7 lui	a5, 1048574
0x0000000080018350: 00 f7 07 b3 add	a5, a4, a5
0x0000000080018354: ff f0 07 13 addi	a4, zero, -1
0x0000000080018358: 46 e7 a4 23 sw	a4, 1128(a5)
0x000000008001835c: 80 00 07 37 lui	a4, 524288
0x0000000080018360: ff f7 47 13 not	a4, a4
0x0000000080018364: 46 e7 a6 23 sw	a4, 1132(a5)
0x0000000080018368: 46 87 a6 83 lw	a3, 1128(a5)
0x000000008001836c: 46 c7 a7 03 lw	a4, 1132(a5)
0x0000000080018370: 00 06 86 9b sext.w	a3, a3
0x0000000080018374: 00 07 07 1b sext.w	a4, a4
0x0000000080018378: 00 e6 94 63 bne	a3, a4, 8
0x0000000080018380: 00 00 57 37 lui	a4, 5
0x0000000080018384: 01 01 06 93 addi	a3, sp, 16
0x0000000080018388: 19 07 07 13 addi	a4, a4, 400
0x000000008001838c: 00 d7 07 33 add	a4, a4, a3
0x0000000080018390: ff ff e7 b7 lui	a5, 1048574
0x0000000080018394: 00 f7 07 b3 add	a5, a4, a5
0x0000000080018398: 46 07 a8 23 sw	zero, 1136(a5)
0x000000008001839c: 46 07 aa 23 sw	zero, 1140(a5)
0x00000000800183a0: 47 07 a6 83 lw	a3, 1136(a5)
0x00000000800183a4: 47 47 a7 03 lw	a4, 1140(a5)
0x00000000800183a8: 00 06 86 9b sext.w	a3, a3
0x00000000800183ac: 00 07 07 1b sext.w	a4, a4
0x00000000800183b0: 08 e6 88 63 beq	a3, a4, 144
0x0000000080018440: 00 00 57 37 lui	a4, 5
0x0000000080018444: 01 01 06 93 addi	a3, sp, 16
0x0000000080018448: 19 07 07 13 addi	a4, a4, 400
0x000000008001844c: 00 d7 07 33 add	a4, a4, a3
0x0000000080018450: ff ff e7 b7 lui	a5, 1048574
0x0000000080018454: 00 f7 07 b3 add	a5, a4, a5
0x0000000080018458: 46 07 ac 23 sw	zero, 1144(a5)
0x000000008001845c: 00 10 07 13 addi	a4, zero, 1
0x0000000080018460: 46 e7 ae 23 sw	a4, 1148(a5)
0x0000000080018464: 47 87 a6 83 lw	a3, 1144(a5)
0x0000000080018468: 47 c7 a7 03 lw	a4, 1148(a5)
0x000000008001846c: 00 06 86 9b sext.w	a3, a3
0x0000000080018470: 00 07 07 1b sext.w	a4, a4
0x0000000080018474: 00 e6 94 63 bne	a3, a4, 8
0x000000008001847c: 00 00 57 37 lui	a4, 5
0x0000000080018480: 01 01 06 93 addi	a3, sp, 16
0x0000000080018484: 19 07 07 13 addi	a4, a4, 400
0x0000000080018488: 00 d7 07 33 add	a4, a4, a3
0x000000008001848c: ff ff e7 b7 lui	a5, 1048574
0x0000000080018490: 00 f7 07 b3 add	a5, a4, a5
0x0000000080018494: 48 07 a0 23 sw	zero, 1152(a5)
0x0000000080018498: 00 20 07 13 addi	a4, zero, 2
0x000000008001849c: 48 e7 a2 23 sw	a4, 1156(a5)
0x00000000800184a0: 48 07 a6 83 lw	a3, 1152(a5)
0x00000000800184a4: 48 47 a7 03 lw	a4, 1156(a5)
0x00000000800184a8: 00 06 86 9b sext.w	a3, a3
0x00000000800184ac: 00 07 07 1b sext.w	a4, a4
0x00000000800184b0: 00 e6 94 63 bne	a3, a4, 8
0x00000000800184b8: 00 00 57 37 lui	a4, 5
0x00000000800184bc: 01 01 06 93 addi	a3, sp, 16
0x00000000800184c0: 19 07 07 13 addi	a4, a4, 400
0x00000000800184c4: 00 d7 07 33 add	a4, a4, a3
0x00000000800184c8: ff ff e7 b7 lui	a5, 1048574
0x00000000800184cc: 00 f7 07 b3 add	a5, a4, a5
0x00000000800184d0: 80 00 07 37 lui	a4, 524288
0x00000000800184d4: 48 07 a4 23 sw	zero, 1160(a5)
0x00000000800184d8: ff e7 47 13 xori	a4, a4, -2
0x00000000800184dc: 48 e7 a6 23 sw	a4, 1164(a5)
0x00000000800184e0: 48 87 a6 83 lw	a3, 1160(a5)
0x00000000800184e4: 48 c7 a7 03 lw	a4, 1164(a5)
0x00000000800184e8: 00 06 86 9b sext.w	a3, a3
0x00000000800184ec: 00 07 07 1b sext.w	a4, a4
0x00000000800184f0: 00 e6 94 63 bne	a3, a4, 8
0x00000000800184f8: 00 00 57 37 lui	a4, 5
0x00000000800184fc: 01 01 06 93 addi	a3, sp, 16
0x0000000080018500: 19 07 07 13 addi	a4, a4, 400
0x0000000080018504: 00 d7 07 33 add	a4, a4, a3
0x0000000080018508: ff ff e7 b7 lui	a5, 1048574
0x000000008001850c: 00 f7 07 b3 add	a5, a4, a5
0x0000000080018510: 80 00 07 37 lui	a4, 524288
0x0000000080018514: 48 07 a8 23 sw	zero, 1168(a5)
0x0000000080018518: ff f7 47 13 not	a4, a4
0x000000008001851c: 48 e7 aa 23 sw	a4, 1172(a5)
0x0000000080018520: 49 07 a6 83 lw	a3, 1168(a5)
0x0000000080018524: 49 47 a7 03 lw	a4, 1172(a5)
0x0000000080018528: 00 06 86 9b sext.w	a3, a3
0x000000008001852c: 00 07 07 1b sext.w	a4, a4
0x0000000080018530: 00 e6 94 63 bne	a3, a4, 8
0x0000000080018538: 00 00 57 37 lui	a4, 5
0x000000008001853c: 01 01 06 93 addi	a3, sp, 16
0x0000000080018540: 19 07 07 13 addi	a4, a4, 400
0x0000000080018544: 00 d7 07 33 add	a4, a4, a3
0x0000000080018548: ff ff e7 b7 lui	a5, 1048574
0x000000008001854c: 00 f7 07 b3 add	a5, a4, a5
0x0000000080018550: 00 10 07 13 addi	a4, zero, 1
0x0000000080018554: 48 e7 ac 23 sw	a4, 1176(a5)
0x0000000080018558: 48 e7 ae 23 sw	a4, 1180(a5)
0x000000008001855c: 49 87 a6 83 lw	a3, 1176(a5)
0x0000000080018560: 49 c7 a7 03 lw	a4, 1180(a5)
0x0000000080018564: 00 06 86 9b sext.w	a3, a3
0x0000000080018568: 00 07 07 1b sext.w	a4, a4
0x000000008001856c: 08 e6 88 63 beq	a3, a4, 144
0x00000000800185fc: 00 00 57 37 lui	a4, 5
0x0000000080018600: 01 01 06 93 addi	a3, sp, 16
0x0000000080018604: 19 07 07 13 addi	a4, a4, 400
0x0000000080018608: 00 d7 07 33 add	a4, a4, a3
0x000000008001860c: ff ff e7 b7 lui	a5, 1048574
0x0000000080018610: 00 f7 07 b3 add	a5, a4, a5
0x0000000080018614: 00 10 07 13 addi	a4, zero, 1
0x0000000080018618: 4a e7 a0 23 sw	a4, 1184(a5)
0x000000008001861c: 00 20 07 13 addi	a4, zero, 2
0x0000000080018620: 4a e7 a2 23 sw	a4, 1188(a5)
0x0000000080018624: 4a 07 a6 83 lw	a3, 1184(a5)
0x0000000080018628: 4a 47 a7 03 lw	a4, 1188(a5)
0x000000008001862c: 00 06 86 9b sext.w	a3, a3
0x0000000080018630: 00 07 07 1b sext.w	a4, a4
0x0000000080018634: 00 e6 94 63 bne	a3, a4, 8
0x000000008001863c: 00 00 57 37 lui	a4, 5
0x0000000080018640: 01 01 06 93 addi	a3, sp, 16
0x0000000080018644: 19 07 07 13 addi	a4, a4, 400
0x0000000080018648: 00 d7 07 33 add	a4, a4, a3
0x000000008001864c: ff ff e7 b7 lui	a5, 1048574
0x0000000080018650: 00 f7 07 b3 add	a5, a4, a5
0x0000000080018654: 00 10 07 13 addi	a4, zero, 1
0x0000000080018658: 4a e7 a4 23 sw	a4, 1192(a5)
0x000000008001865c: 80 00 07 37 lui	a4, 524288
0x0000000080018660: ff e7 47 13 xori	a4, a4, -2
0x0000000080018664: 4a e7 a6 23 sw	a4, 1196(a5)
0x0000000080018668: 4a 87 a6 83 lw	a3, 1192(a5)
0x000000008001866c: 4a c7 a7 03 lw	a4, 1196(a5)
0x0000000080018670: 00 06 86 9b sext.w	a3, a3
0x0000000080018674: 00 07 07 1b sext.w	a4, a4
0x0000000080018678: 00 e6 94 63 bne	a3, a4, 8
0x0000000080018680: 00 00 57 37 lui	a4, 5
0x0000000080018684: 01 01 06 93 addi	a3, sp, 16
0x0000000080018688: 19 07 07 13 addi	a4, a4, 400
0x000000008001868c: 00 d7 07 33 add	a4, a4, a3
0x0000000080018690: ff ff e7 b7 lui	a5, 1048574
0x0000000080018694: 00 f7 07 b3 add	a5, a4, a5
0x0000000080018698: 00 10 07 13 addi	a4, zero, 1
0x000000008001869c: 4a e7 a8 23 sw	a4, 1200(a5)
0x00000000800186a0: 80 00 07 37 lui	a4, 524288
0x00000000800186a4: ff f7 47 13 not	a4, a4
0x00000000800186a8: 4a e7 aa 23 sw	a4, 1204(a5)
0x00000000800186ac: 4b 07 a6 83 lw	a3, 1200(a5)
0x00000000800186b0: 4b 47 a7 03 lw	a4, 1204(a5)
0x00000000800186b4: 00 06 86 9b sext.w	a3, a3
0x00000000800186b8: 00 07 07 1b sext.w	a4, a4
0x00000000800186bc: 00 e6 94 63 bne	a3, a4, 8
0x00000000800186c4: 00 00 57 37 lui	a4, 5
0x00000000800186c8: 01 01 06 93 addi	a3, sp, 16
0x00000000800186cc: 19 07 07 13 addi	a4, a4, 400
0x00000000800186d0: 00 d7 07 33 add	a4, a4, a3
0x00000000800186d4: ff ff e7 b7 lui	a5, 1048574
0x00000000800186d8: 00 f7 07 b3 add	a5, a4, a5
0x00000000800186dc: 00 20 07 13 addi	a4, zero, 2
0x00000000800186e0: 4a e7 ac 23 sw	a4, 1208(a5)
0x00000000800186e4: 4a e7 ae 23 sw	a4, 1212(a5)
0x00000000800186e8: 4b 87 a6 83 lw	a3, 1208(a5)
0x00000000800186ec: 4b c7 a7 03 lw	a4, 1212(a5)
0x00000000800186f0: 00 06 86 9b sext.w	a3, a3
0x00000000800186f4: 00 07 07 1b sext.w	a4, a4
0x00000000800186f8: 08 e6 88 63 beq	a3, a4, 144
0x0000000080018788: 00 00 57 37 lui	a4, 5
0x000000008001878c: 01 01 06 93 addi	a3, sp, 16
0x0000000080018790: 19 07 07 13 addi	a4, a4, 400
0x0000000080018794: 00 d7 07 33 add	a4, a4, a3
0x0000000080018798: ff ff e7 b7 lui	a5, 1048574
0x000000008001879c: 00 f7 07 b3 add	a5, a4, a5
0x00000000800187a0: 00 20 07 13 addi	a4, zero, 2
0x00000000800187a4: 4c e7 a0 23 sw	a4, 1216(a5)
0x00000000800187a8: 80 00 07 37 lui	a4, 524288
0x00000000800187ac: ff e7 47 13 xori	a4, a4, -2
0x00000000800187b0: 4c e7 a2 23 sw	a4, 1220(a5)
0x00000000800187b4: 4c 07 a6 83 lw	a3, 1216(a5)
0x00000000800187b8: 4c 47 a7 03 lw	a4, 1220(a5)
0x00000000800187bc: 00 06 86 9b sext.w	a3, a3
0x00000000800187c0: 00 07 07 1b sext.w	a4, a4
0x00000000800187c4: 00 e6 94 63 bne	a3, a4, 8
0x00000000800187cc: 00 00 57 37 lui	a4, 5
0x00000000800187d0: 01 01 06 93 addi	a3, sp, 16
0x00000000800187d4: 19 07 07 13 addi	a4, a4, 400
0x00000000800187d8: 00 d7 07 33 add	a4, a4, a3
0x00000000800187dc: ff ff e7 b7 lui	a5, 1048574
0x00000000800187e0: 00 f7 07 b3 add	a5, a4, a5
0x00000000800187e4: 00 20 07 13 addi	a4, zero, 2
0x00000000800187e8: 4c e7 a4 23 sw	a4, 1224(a5)
0x00000000800187ec: 80 00 07 37 lui	a4, 524288
0x00000000800187f0: ff f7 47 13 not	a4, a4
0x00000000800187f4: 4c e7 a6 23 sw	a4, 1228(a5)
0x00000000800187f8: 4c 87 a6 83 lw	a3, 1224(a5)
0x00000000800187fc: 4c c7 a7 03 lw	a4, 1228(a5)
0x0000000080018800: 00 06 86 9b sext.w	a3, a3
0x0000000080018804: 00 07 07 1b sext.w	a4, a4
0x0000000080018808: 00 e6 94 63 bne	a3, a4, 8
0x0000000080018810: 00 00 57 37 lui	a4, 5
0x0000000080018814: 01 01 06 93 addi	a3, sp, 16
0x0000000080018818: 19 07 07 13 addi	a4, a4, 400
0x000000008001881c: 00 d7 07 33 add	a4, a4, a3
0x0000000080018820: ff ff e7 b7 lui	a5, 1048574
0x0000000080018824: 00 f7 07 b3 add	a5, a4, a5
0x0000000080018828: 80 00 07 37 lui	a4, 524288
0x000000008001882c: ff e7 47 13 xori	a4, a4, -2
0x0000000080018830: 4c e7 a8 23 sw	a4, 1232(a5)
0x0000000080018834: 4c e7 aa 23 sw	a4, 1236(a5)
0x0000000080018838: 4d 07 a6 83 lw	a3, 1232(a5)
0x000000008001883c: 4d 47 a7 03 lw	a4, 1236(a5)
0x0000000080018840: 00 06 86 9b sext.w	a3, a3
0x0000000080018844: 00 07 07 1b sext.w	a4, a4
0x0000000080018848: 08 e6 8a 63 beq	a3, a4, 148
0x00000000800188dc: 00 00 56 b7 lui	a3, 5
0x00000000800188e0: 19 06 86 93 addi	a3, a3, 400
0x00000000800188e4: 01 01 06 13 addi	a2, sp, 16
0x00000000800188e8: 80 00 07 37 lui	a4, 524288
0x00000000800188ec: 00 c6 86 b3 add	a3, a3, a2
0x00000000800188f0: ff ff e7 b7 lui	a5, 1048574
0x00000000800188f4: 00 f6 87 b3 add	a5, a3, a5
0x00000000800188f8: ff e7 46 93 xori	a3, a4, -2
0x00000000800188fc: 4c d7 ac 23 sw	a3, 1240(a5)
0x0000000080018900: ff f7 47 13 not	a4, a4
0x0000000080018904: 4c e7 ae 23 sw	a4, 1244(a5)
0x0000000080018908: 4d 87 a6 83 lw	a3, 1240(a5)
0x000000008001890c: 4d c7 a7 03 lw	a4, 1244(a5)
0x0000000080018910: 00 06 86 9b sext.w	a3, a3
0x0000000080018914: 00 07 07 1b sext.w	a4, a4
0x0000000080018918: 00 e6 94 63 bne	a3, a4, 8
0x0000000080018920: 00 00 57 37 lui	a4, 5
0x0000000080018924: 01 01 06 93 addi	a3, sp, 16
0x0000000080018928: 19 07 07 13 addi	a4, a4, 400
0x000000008001892c: 00 d7 07 33 add	a4, a4, a3
0x0000000080018930: ff ff e7 b7 lui	a5, 1048574
0x0000000080018934: 00 f7 07 b3 add	a5, a4, a5
0x0000000080018938: 80 00 07 37 lui	a4, 524288
0x000000008001893c: ff f7 47 13 not	a4, a4
0x0000000080018940: 4e e7 a0 23 sw	a4, 1248(a5)
0x0000000080018944: 4e e7 a2 23 sw	a4, 1252(a5)
0x0000000080018948: 4e 07 a6 83 lw	a3, 1248(a5)
0x000000008001894c: 4e 47 a7 03 lw	a4, 1252(a5)
0x0000000080018950: 00 06 86 9b sext.w	a3, a3
0x0000000080018954: 00 07 07 1b sext.w	a4, a4
0x0000000080018958: 08 e6 8a 63 beq	a3, a4, 148
0x00000000800189ec: 00 00 57 37 lui	a4, 5
0x00000000800189f0: 01 01 06 93 addi	a3, sp, 16
0x00000000800189f4: 19 07 07 13 addi	a4, a4, 400
0x00000000800189f8: 00 d7 07 33 add	a4, a4, a3
0x00000000800189fc: ff ff e7 b7 lui	a5, 1048574
0x0000000080018a00: 00 f7 07 b3 add	a5, a4, a5
0x0000000080018a04: 80 00 07 37 lui	a4, 524288
0x0000000080018a08: 4e e7 a4 23 sw	a4, 1256(a5)
0x0000000080018a0c: 4e e7 a6 23 sw	a4, 1260(a5)
0x0000000080018a10: 4e 87 a7 03 lw	a4, 1256(a5)
0x0000000080018a14: 4e c7 a6 83 lw	a3, 1260(a5)
0x0000000080018a18: 02 e6 87 3b mulw	a4, a3, a4
0x0000000080018a1c: 08 07 02 63 beqz	a4, 132
0x0000000080018aa0: 00 00 57 37 lui	a4, 5
0x0000000080018aa4: 01 01 06 93 addi	a3, sp, 16
0x0000000080018aa8: 19 07 07 13 addi	a4, a4, 400
0x0000000080018aac: 00 d7 07 33 add	a4, a4, a3
0x0000000080018ab0: ff ff e7 b7 lui	a5, 1048574
0x0000000080018ab4: 00 f7 07 b3 add	a5, a4, a5
0x0000000080018ab8: 80 00 07 37 lui	a4, 524288
0x0000000080018abc: 4e e7 a8 23 sw	a4, 1264(a5)
0x0000000080018ac0: 00 17 07 1b addiw	a4, a4, 1
0x0000000080018ac4: 4e e7 aa 23 sw	a4, 1268(a5)
0x0000000080018ac8: 4f 07 a6 83 lw	a3, 1264(a5)
0x0000000080018acc: 4f 47 a6 03 lw	a2, 1268(a5)
0x0000000080018ad0: 80 00 07 37 lui	a4, 524288
0x0000000080018ad4: 02 d6 06 bb mulw	a3, a2, a3
0x0000000080018ad8: 08 e6 84 63 beq	a3, a4, 136
0x0000000080018b60: 00 00 57 37 lui	a4, 5
0x0000000080018b64: 01 01 06 93 addi	a3, sp, 16
0x0000000080018b68: 19 07 07 13 addi	a4, a4, 400
0x0000000080018b6c: 00 d7 07 33 add	a4, a4, a3
0x0000000080018b70: ff ff e7 b7 lui	a5, 1048574
0x0000000080018b74: 00 f7 07 b3 add	a5, a4, a5
0x0000000080018b78: 80 00 07 37 lui	a4, 524288
0x0000000080018b7c: 4e e7 ac 23 sw	a4, 1272(a5)
0x0000000080018b80: ff e0 07 13 addi	a4, zero, -2
0x0000000080018b84: 4e e7 ae 23 sw	a4, 1276(a5)
0x0000000080018b88: 4f 87 a7 03 lw	a4, 1272(a5)
0x0000000080018b8c: 4f c7 a6 83 lw	a3, 1276(a5)
0x0000000080018b90: 02 e6 87 3b mulw	a4, a3, a4
0x0000000080018b94: 08 07 02 63 beqz	a4, 132
0x0000000080018c18: 00 00 57 37 lui	a4, 5
0x0000000080018c1c: 01 01 06 93 addi	a3, sp, 16
0x0000000080018c20: 19 07 07 13 addi	a4, a4, 400
0x0000000080018c24: 00 d7 07 33 add	a4, a4, a3
0x0000000080018c28: ff ff e7 b7 lui	a5, 1048574
0x0000000080018c2c: 00 f7 07 b3 add	a5, a4, a5
0x0000000080018c30: 80 00 07 37 lui	a4, 524288
0x0000000080018c34: 50 e7 a0 23 sw	a4, 1280(a5)
0x0000000080018c38: ff f0 07 13 addi	a4, zero, -1
0x0000000080018c3c: 50 e7 a2 23 sw	a4, 1284(a5)
0x0000000080018c40: 50 07 a6 83 lw	a3, 1280(a5)
0x0000000080018c44: 50 47 a6 03 lw	a2, 1284(a5)
0x0000000080018c48: 80 00 07 37 lui	a4, 524288
0x0000000080018c4c: 02 d6 06 bb mulw	a3, a2, a3
0x0000000080018c50: 08 e6 82 63 beq	a3, a4, 132
0x0000000080018cd4: 00 00 57 37 lui	a4, 5
0x0000000080018cd8: 01 01 06 93 addi	a3, sp, 16
0x0000000080018cdc: 19 07 07 13 addi	a4, a4, 400
0x0000000080018ce0: 00 d7 07 33 add	a4, a4, a3
0x0000000080018ce4: ff ff e7 b7 lui	a5, 1048574
0x0000000080018ce8: 00 f7 07 b3 add	a5, a4, a5
0x0000000080018cec: 80 00 07 37 lui	a4, 524288
0x0000000080018cf0: 50 e7 a4 23 sw	a4, 1288(a5)
0x0000000080018cf4: 50 07 a6 23 sw	zero, 1292(a5)
0x0000000080018cf8: 50 87 a7 03 lw	a4, 1288(a5)
0x0000000080018cfc: 50 c7 a6 83 lw	a3, 1292(a5)
0x0000000080018d00: 02 e6 87 3b mulw	a4, a3, a4
0x0000000080018d04: 08 07 02 63 beqz	a4, 132
0x0000000080018d88: 00 00 57 37 lui	a4, 5
0x0000000080018d8c: 01 01 06 93 addi	a3, sp, 16
0x0000000080018d90: 19 07 07 13 addi	a4, a4, 400
0x0000000080018d94: 00 d7 07 33 add	a4, a4, a3
0x0000000080018d98: ff ff e7 b7 lui	a5, 1048574
0x0000000080018d9c: 00 f7 07 b3 add	a5, a4, a5
0x0000000080018da0: 80 00 07 37 lui	a4, 524288
0x0000000080018da4: 50 e7 a8 23 sw	a4, 1296(a5)
0x0000000080018da8: 00 10 07 13 addi	a4, zero, 1
0x0000000080018dac: 50 e7 aa 23 sw	a4, 1300(a5)
0x0000000080018db0: 51 07 a6 83 lw	a3, 1296(a5)
0x0000000080018db4: 51 47 a6 03 lw	a2, 1300(a5)
0x0000000080018db8: 80 00 07 37 lui	a4, 524288
0x0000000080018dbc: 02 d6 06 bb mulw	a3, a2, a3
0x0000000080018dc0: 08 e6 82 63 beq	a3, a4, 132
0x0000000080018e44: 00 00 57 37 lui	a4, 5
0x0000000080018e48: 01 01 06 93 addi	a3, sp, 16
0x0000000080018e4c: 19 07 07 13 addi	a4, a4, 400
0x0000000080018e50: 00 d7 07 33 add	a4, a4, a3
0x0000000080018e54: ff ff e7 b7 lui	a5, 1048574
0x0000000080018e58: 00 f7 07 b3 add	a5, a4, a5
0x0000000080018e5c: 80 00 07 37 lui	a4, 524288
0x0000000080018e60: 50 e7 ac 23 sw	a4, 1304(a5)
0x0000000080018e64: 00 20 07 13 addi	a4, zero, 2
0x0000000080018e68: 50 e7 ae 23 sw	a4, 1308(a5)
0x0000000080018e6c: 51 87 a7 03 lw	a4, 1304(a5)
0x0000000080018e70: 51 c7 a6 83 lw	a3, 1308(a5)
0x0000000080018e74: 02 e6 87 3b mulw	a4, a3, a4
0x0000000080018e78: 08 07 02 63 beqz	a4, 132
0x0000000080018efc: 00 00 57 37 lui	a4, 5
0x0000000080018f00: 01 01 06 93 addi	a3, sp, 16
0x0000000080018f04: 19 07 07 13 addi	a4, a4, 400
0x0000000080018f08: 00 d7 07 33 add	a4, a4, a3
0x0000000080018f0c: ff ff e7 b7 lui	a5, 1048574
0x0000000080018f10: 00 f7 07 b3 add	a5, a4, a5
0x0000000080018f14: 80 00 07 37 lui	a4, 524288
0x0000000080018f18: 52 e7 a0 23 sw	a4, 1312(a5)
0x0000000080018f1c: ff e7 47 13 xori	a4, a4, -2
0x0000000080018f20: 52 e7 a2 23 sw	a4, 1316(a5)
0x0000000080018f24: 52 07 a7 03 lw	a4, 1312(a5)
0x0000000080018f28: 52 47 a6 83 lw	a3, 1316(a5)
0x0000000080018f2c: 02 e6 87 3b mulw	a4, a3, a4
0x0000000080018f30: 08 07 04 63 beqz	a4, 136
0x0000000080018fb8: 00 00 57 37 lui	a4, 5
0x0000000080018fbc: 01 01 06 93 addi	a3, sp, 16
0x0000000080018fc0: 19 07 07 13 addi	a4, a4, 400
0x0000000080018fc4: 00 d7 07 33 add	a4, a4, a3
0x0000000080018fc8: ff ff e7 b7 lui	a5, 1048574
0x0000000080018fcc: 00 f7 07 b3 add	a5, a4, a5
0x0000000080018fd0: 80 00 07 37 lui	a4, 524288
0x0000000080018fd4: 52 e7 a4 23 sw	a4, 1320(a5)
0x0000000080018fd8: ff f7 47 13 not	a4, a4
0x0000000080018fdc: 52 e7 a6 23 sw	a4, 1324(a5)
0x0000000080018fe0: 52 87 a6 83 lw	a3, 1320(a5)
0x0000000080018fe4: 52 c7 a6 03 lw	a2, 1324(a5)
0x0000000080018fe8: 80 00 07 37 lui	a4, 524288
0x0000000080018fec: 02 d6 06 bb mulw	a3, a2, a3
0x0000000080018ff0: 08 e6 84 63 beq	a3, a4, 136
0x0000000080019078: 00 00 57 37 lui	a4, 5
0x000000008001907c: 01 01 06 93 addi	a3, sp, 16
0x0000000080019080: 19 07 07 13 addi	a4, a4, 400
0x0000000080019084: 00 d7 07 33 add	a4, a4, a3
0x0000000080019088: ff ff e7 b7 lui	a5, 1048574
0x000000008001908c: 00 f7 07 b3 add	a5, a4, a5
0x0000000080019090: 80 00 07 37 lui	a4, 524288
0x0000000080019094: 00 17 07 1b addiw	a4, a4, 1
0x0000000080019098: 52 e7 a8 23 sw	a4, 1328(a5)
0x000000008001909c: 52 e7 aa 23 sw	a4, 1332(a5)
0x00000000800190a0: 53 07 a6 83 lw	a3, 1328(a5)
0x00000000800190a4: 53 47 a6 03 lw	a2, 1332(a5)
0x00000000800190a8: 00 10 07 13 addi	a4, zero, 1
0x00000000800190ac: 02 d6 06 bb mulw	a3, a2, a3
0x00000000800190b0: 08 e6 82 63 beq	a3, a4, 132
0x0000000080019134: 00 00 57 37 lui	a4, 5
0x0000000080019138: 01 01 06 93 addi	a3, sp, 16
0x000000008001913c: 19 07 07 13 addi	a4, a4, 400
0x0000000080019140: 00 d7 07 33 add	a4, a4, a3
0x0000000080019144: ff ff e7 b7 lui	a5, 1048574
0x0000000080019148: 00 f7 07 b3 add	a5, a4, a5
0x000000008001914c: 80 00 07 37 lui	a4, 524288
0x0000000080019150: 00 17 07 1b addiw	a4, a4, 1
0x0000000080019154: 52 e7 ac 23 sw	a4, 1336(a5)
0x0000000080019158: ff e0 07 13 addi	a4, zero, -2
0x000000008001915c: 52 e7 ae 23 sw	a4, 1340(a5)
0x0000000080019160: 53 87 a6 83 lw	a3, 1336(a5)
0x0000000080019164: 53 c7 a6 03 lw	a2, 1340(a5)
0x0000000080019168: ff e0 07 13 addi	a4, zero, -2
0x000000008001916c: 02 d6 06 bb mulw	a3, a2, a3
0x0000000080019170: 08 e6 84 63 beq	a3, a4, 136
0x00000000800191f8: 00 00 57 37 lui	a4, 5
0x00000000800191fc: 01 01 06 93 addi	a3, sp, 16
0x0000000080019200: 19 07 07 13 addi	a4, a4, 400
0x0000000080019204: 00 d7 07 33 add	a4, a4, a3
0x0000000080019208: ff ff e7 b7 lui	a5, 1048574
0x000000008001920c: 00 f7 07 b3 add	a5, a4, a5
0x0000000080019210: 80 00 07 37 lui	a4, 524288
0x0000000080019214: 00 17 07 1b addiw	a4, a4, 1
0x0000000080019218: 54 e7 a0 23 sw	a4, 1344(a5)
0x000000008001921c: ff f0 07 13 addi	a4, zero, -1
0x0000000080019220: 54 e7 a2 23 sw	a4, 1348(a5)
0x0000000080019224: 54 07 a6 83 lw	a3, 1344(a5)
0x0000000080019228: 54 47 a6 03 lw	a2, 1348(a5)
0x000000008001922c: 80 00 07 37 lui	a4, 524288
0x0000000080019230: ff f7 47 13 not	a4, a4
0x0000000080019234: 02 d6 06 bb mulw	a3, a2, a3
0x0000000080019238: 08 e6 84 63 beq	a3, a4, 136
0x00000000800192c0: 00 00 57 37 lui	a4, 5
0x00000000800192c4: 01 01 06 93 addi	a3, sp, 16
0x00000000800192c8: 19 07 07 13 addi	a4, a4, 400
0x00000000800192cc: 00 d7 07 33 add	a4, a4, a3
0x00000000800192d0: ff ff e7 b7 lui	a5, 1048574
0x00000000800192d4: 00 f7 07 b3 add	a5, a4, a5
0x00000000800192d8: 80 00 07 37 lui	a4, 524288
0x00000000800192dc: 00 17 07 1b addiw	a4, a4, 1
0x00000000800192e0: 54 e7 a4 23 sw	a4, 1352(a5)
0x00000000800192e4: 54 07 a6 23 sw	zero, 1356(a5)
0x00000000800192e8: 54 87 a7 03 lw	a4, 1352(a5)
0x00000000800192ec: 54 c7 a6 83 lw	a3, 1356(a5)
0x00000000800192f0: 02 e6 87 3b mulw	a4, a3, a4
0x00000000800192f4: 08 07 04 63 beqz	a4, 136
0x000000008001937c: 00 00 57 37 lui	a4, 5
0x0000000080019380: 01 01 06 93 addi	a3, sp, 16
0x0000000080019384: 19 07 07 13 addi	a4, a4, 400
0x0000000080019388: 00 d7 07 33 add	a4, a4, a3
0x000000008001938c: ff ff e7 b7 lui	a5, 1048574
0x0000000080019390: 00 f7 07 b3 add	a5, a4, a5
0x0000000080019394: 80 00 07 37 lui	a4, 524288
0x0000000080019398: 00 17 07 1b addiw	a4, a4, 1
0x000000008001939c: 54 e7 a8 23 sw	a4, 1360(a5)
0x00000000800193a0: 00 10 07 13 addi	a4, zero, 1
0x00000000800193a4: 54 e7 aa 23 sw	a4, 1364(a5)
0x00000000800193a8: 55 07 a6 83 lw	a3, 1360(a5)
0x00000000800193ac: 55 47 a6 03 lw	a2, 1364(a5)
0x00000000800193b0: 80 00 07 37 lui	a4, 524288
0x00000000800193b4: 00 17 07 13 addi	a4, a4, 1
0x00000000800193b8: 02 d6 06 bb mulw	a3, a2, a3
0x00000000800193bc: 08 e6 84 63 beq	a3, a4, 136
0x0000000080019444: 00 00 57 37 lui	a4, 5
0x0000000080019448: 01 01 06 93 addi	a3, sp, 16
0x000000008001944c: 19 07 07 13 addi	a4, a4, 400
0x0000000080019450: 00 d7 07 33 add	a4, a4, a3
0x0000000080019454: ff ff e7 b7 lui	a5, 1048574
0x0000000080019458: 00 f7 07 b3 add	a5, a4, a5
0x000000008001945c: 80 00 07 37 lui	a4, 524288
0x0000000080019460: 00 17 07 1b addiw	a4, a4, 1
0x0000000080019464: 54 e7 ac 23 sw	a4, 1368(a5)
0x0000000080019468: 00 20 07 13 addi	a4, zero, 2
0x000000008001946c: 54 e7 ae 23 sw	a4, 1372(a5)
0x0000000080019470: 55 87 a6 83 lw	a3, 1368(a5)
0x0000000080019474: 55 c7 a6 03 lw	a2, 1372(a5)
0x0000000080019478: 00 20 07 13 addi	a4, zero, 2
0x000000008001947c: 02 d6 06 bb mulw	a3, a2, a3
0x0000000080019480: 08 e6 84 63 beq	a3, a4, 136
0x0000000080019508: 00 00 56 b7 lui	a3, 5
0x000000008001950c: 01 01 06 13 addi	a2, sp, 16
0x0000000080019510: 19 06 86 93 addi	a3, a3, 400
0x0000000080019514: 00 c6 86 b3 add	a3, a3, a2
0x0000000080019518: 80 00 07 37 lui	a4, 524288
0x000000008001951c: ff ff e7 b7 lui	a5, 1048574
0x0000000080019520: 00 f6 87 b3 add	a5, a3, a5
0x0000000080019524: 00 17 06 9b addiw	a3, a4, 1
0x0000000080019528: 56 d7 a0 23 sw	a3, 1376(a5)
0x000000008001952c: ff e7 47 13 xori	a4, a4, -2
0x0000000080019530: 56 e7 a2 23 sw	a4, 1380(a5)
0x0000000080019534: 56 07 a6 83 lw	a3, 1376(a5)
0x0000000080019538: 56 47 a6 03 lw	a2, 1380(a5)
0x000000008001953c: 80 00 07 37 lui	a4, 524288
0x0000000080019540: ff e7 47 13 xori	a4, a4, -2
0x0000000080019544: 02 d6 06 bb mulw	a3, a2, a3
0x0000000080019548: 08 e6 84 63 beq	a3, a4, 136
0x00000000800195d0: 00 00 56 b7 lui	a3, 5
0x00000000800195d4: 01 01 06 13 addi	a2, sp, 16
0x00000000800195d8: 19 06 86 93 addi	a3, a3, 400
0x00000000800195dc: 00 c6 86 b3 add	a3, a3, a2
0x00000000800195e0: 80 00 07 37 lui	a4, 524288
0x00000000800195e4: ff ff e7 b7 lui	a5, 1048574
0x00000000800195e8: 00 f6 87 b3 add	a5, a3, a5
0x00000000800195ec: 00 17 06 9b addiw	a3, a4, 1
0x00000000800195f0: 56 d7 a4 23 sw	a3, 1384(a5)
0x00000000800195f4: ff f7 47 13 not	a4, a4
0x00000000800195f8: 56 e7 a6 23 sw	a4, 1388(a5)
0x00000000800195fc: 56 87 a6 83 lw	a3, 1384(a5)
0x0000000080019600: 56 c7 a6 03 lw	a2, 1388(a5)
0x0000000080019604: ff f0 07 13 addi	a4, zero, -1
0x0000000080019608: 02 d6 06 bb mulw	a3, a2, a3
0x000000008001960c: 08 e6 84 63 beq	a3, a4, 136
0x0000000080019694: 00 00 57 37 lui	a4, 5
0x0000000080019698: 01 01 06 93 addi	a3, sp, 16
0x000000008001969c: 19 07 07 13 addi	a4, a4, 400
0x00000000800196a0: 00 d7 07 33 add	a4, a4, a3
0x00000000800196a4: ff ff e7 b7 lui	a5, 1048574
0x00000000800196a8: 00 f7 07 b3 add	a5, a4, a5
0x00000000800196ac: ff e0 07 13 addi	a4, zero, -2
0x00000000800196b0: 56 e7 a8 23 sw	a4, 1392(a5)
0x00000000800196b4: 56 e7 aa 23 sw	a4, 1396(a5)
0x00000000800196b8: 57 07 a6 83 lw	a3, 1392(a5)
0x00000000800196bc: 57 47 a6 03 lw	a2, 1396(a5)
0x00000000800196c0: 00 40 07 13 addi	a4, zero, 4
0x00000000800196c4: 02 d6 06 bb mulw	a3, a2, a3
0x00000000800196c8: 08 e6 82 63 beq	a3, a4, 132
0x000000008001974c: 00 00 57 37 lui	a4, 5
0x0000000080019750: 01 01 06 93 addi	a3, sp, 16
0x0000000080019754: 19 07 07 13 addi	a4, a4, 400
0x0000000080019758: 00 d7 07 33 add	a4, a4, a3
0x000000008001975c: ff ff e7 b7 lui	a5, 1048574
0x0000000080019760: 00 f7 07 b3 add	a5, a4, a5
0x0000000080019764: ff e0 07 13 addi	a4, zero, -2
0x0000000080019768: 56 e7 ac 23 sw	a4, 1400(a5)
0x000000008001976c: ff f0 07 13 addi	a4, zero, -1
0x0000000080019770: 56 e7 ae 23 sw	a4, 1404(a5)
0x0000000080019774: 57 87 a6 83 lw	a3, 1400(a5)
0x0000000080019778: 57 c7 a6 03 lw	a2, 1404(a5)
0x000000008001977c: 00 20 07 13 addi	a4, zero, 2
0x0000000080019780: 02 d6 06 bb mulw	a3, a2, a3
0x0000000080019784: 08 e6 82 63 beq	a3, a4, 132
0x0000000080019808: 00 00 57 37 lui	a4, 5
0x000000008001980c: 01 01 06 93 addi	a3, sp, 16
0x0000000080019810: 19 07 07 13 addi	a4, a4, 400
0x0000000080019814: 00 d7 07 33 add	a4, a4, a3
0x0000000080019818: ff ff e7 b7 lui	a5, 1048574
0x000000008001981c: 00 f7 07 b3 add	a5, a4, a5
0x0000000080019820: ff e0 07 13 addi	a4, zero, -2
0x0000000080019824: 58 e7 a0 23 sw	a4, 1408(a5)
0x0000000080019828: 58 07 a2 23 sw	zero, 1412(a5)
0x000000008001982c: 58 07 a7 03 lw	a4, 1408(a5)
0x0000000080019830: 58 47 a6 83 lw	a3, 1412(a5)
0x0000000080019834: 02 e6 87 3b mulw	a4, a3, a4
0x0000000080019838: 08 07 02 63 beqz	a4, 132
0x00000000800198bc: 00 00 57 37 lui	a4, 5
0x00000000800198c0: 01 01 06 93 addi	a3, sp, 16
0x00000000800198c4: 19 07 07 13 addi	a4, a4, 400
0x00000000800198c8: 00 d7 07 33 add	a4, a4, a3
0x00000000800198cc: ff ff e7 b7 lui	a5, 1048574
0x00000000800198d0: 00 f7 07 b3 add	a5, a4, a5
0x00000000800198d4: ff e0 07 13 addi	a4, zero, -2
0x00000000800198d8: 58 e7 a4 23 sw	a4, 1416(a5)
0x00000000800198dc: 00 10 07 13 addi	a4, zero, 1
0x00000000800198e0: 58 e7 a6 23 sw	a4, 1420(a5)
0x00000000800198e4: 58 87 a6 83 lw	a3, 1416(a5)
0x00000000800198e8: 58 c7 a6 03 lw	a2, 1420(a5)
0x00000000800198ec: ff e0 07 13 addi	a4, zero, -2
0x00000000800198f0: 02 d6 06 bb mulw	a3, a2, a3
0x00000000800198f4: 08 e6 82 63 beq	a3, a4, 132
0x0000000080019978: 00 00 57 37 lui	a4, 5
0x000000008001997c: 01 01 06 93 addi	a3, sp, 16
0x0000000080019980: 19 07 07 13 addi	a4, a4, 400
0x0000000080019984: 00 d7 07 33 add	a4, a4, a3
0x0000000080019988: ff ff e7 b7 lui	a5, 1048574
0x000000008001998c: 00 f7 07 b3 add	a5, a4, a5
0x0000000080019990: ff e0 07 13 addi	a4, zero, -2
0x0000000080019994: 58 e7 a8 23 sw	a4, 1424(a5)
0x0000000080019998: 00 20 07 13 addi	a4, zero, 2
0x000000008001999c: 58 e7 aa 23 sw	a4, 1428(a5)
0x00000000800199a0: 59 07 a6 83 lw	a3, 1424(a5)
0x00000000800199a4: 59 47 a6 03 lw	a2, 1428(a5)
0x00000000800199a8: ff c0 07 13 addi	a4, zero, -4
0x00000000800199ac: 02 d6 06 bb mulw	a3, a2, a3
0x00000000800199b0: 08 e6 82 63 beq	a3, a4, 132
0x0000000080019a34: 00 00 57 37 lui	a4, 5
0x0000000080019a38: 01 01 06 93 addi	a3, sp, 16
0x0000000080019a3c: 19 07 07 13 addi	a4, a4, 400
0x0000000080019a40: 00 d7 07 33 add	a4, a4, a3
0x0000000080019a44: ff ff e7 b7 lui	a5, 1048574
0x0000000080019a48: 00 f7 07 b3 add	a5, a4, a5
0x0000000080019a4c: ff e0 07 13 addi	a4, zero, -2
0x0000000080019a50: 58 e7 ac 23 sw	a4, 1432(a5)
0x0000000080019a54: 80 00 07 37 lui	a4, 524288
0x0000000080019a58: ff e7 47 13 xori	a4, a4, -2
0x0000000080019a5c: 58 e7 ae 23 sw	a4, 1436(a5)
0x0000000080019a60: 59 87 a6 83 lw	a3, 1432(a5)
0x0000000080019a64: 59 c7 a6 03 lw	a2, 1436(a5)
0x0000000080019a68: 00 40 07 13 addi	a4, zero, 4
0x0000000080019a6c: 02 d6 06 bb mulw	a3, a2, a3
0x0000000080019a70: 08 e6 84 63 beq	a3, a4, 136
0x0000000080019af8: 00 00 57 37 lui	a4, 5
0x0000000080019afc: 01 01 06 93 addi	a3, sp, 16
0x0000000080019b00: 19 07 07 13 addi	a4, a4, 400
0x0000000080019b04: 00 d7 07 33 add	a4, a4, a3
0x0000000080019b08: ff ff e7 b7 lui	a5, 1048574
0x0000000080019b0c: 00 f7 07 b3 add	a5, a4, a5
0x0000000080019b10: ff e0 07 13 addi	a4, zero, -2
0x0000000080019b14: 5a e7 a0 23 sw	a4, 1440(a5)
0x0000000080019b18: 80 00 07 37 lui	a4, 524288
0x0000000080019b1c: ff f7 47 13 not	a4, a4
0x0000000080019b20: 5a e7 a2 23 sw	a4, 1444(a5)
0x0000000080019b24: 5a 07 a6 83 lw	a3, 1440(a5)
0x0000000080019b28: 5a 47 a6 03 lw	a2, 1444(a5)
0x0000000080019b2c: 00 20 07 13 addi	a4, zero, 2
0x0000000080019b30: 02 d6 06 bb mulw	a3, a2, a3
0x0000000080019b34: 08 e6 84 63 beq	a3, a4, 136
0x0000000080019bbc: 00 00 57 37 lui	a4, 5
0x0000000080019bc0: 01 01 06 93 addi	a3, sp, 16
0x0000000080019bc4: 19 07 07 13 addi	a4, a4, 400
0x0000000080019bc8: 00 d7 07 33 add	a4, a4, a3
0x0000000080019bcc: ff ff e7 b7 lui	a5, 1048574
0x0000000080019bd0: 00 f7 07 b3 add	a5, a4, a5
0x0000000080019bd4: ff f0 07 13 addi	a4, zero, -1
0x0000000080019bd8: 5a e7 a4 23 sw	a4, 1448(a5)
0x0000000080019bdc: 5a e7 a6 23 sw	a4, 1452(a5)
0x0000000080019be0: 5a 87 a6 83 lw	a3, 1448(a5)
0x0000000080019be4: 5a c7 a6 03 lw	a2, 1452(a5)
0x0000000080019be8: 00 10 07 13 addi	a4, zero, 1
0x0000000080019bec: 02 d6 06 bb mulw	a3, a2, a3
0x0000000080019bf0: 08 e6 82 63 beq	a3, a4, 132
0x0000000080019c74: 00 00 57 37 lui	a4, 5
0x0000000080019c78: 01 01 06 93 addi	a3, sp, 16
0x0000000080019c7c: 19 07 07 13 addi	a4, a4, 400
0x0000000080019c80: 00 d7 07 33 add	a4, a4, a3
0x0000000080019c84: ff ff e7 b7 lui	a5, 1048574
0x0000000080019c88: 00 f7 07 b3 add	a5, a4, a5
0x0000000080019c8c: ff f0 07 13 addi	a4, zero, -1
0x0000000080019c90: 5a e7 a8 23 sw	a4, 1456(a5)
0x0000000080019c94: 5a 07 aa 23 sw	zero, 1460(a5)
0x0000000080019c98: 5b 07 a7 03 lw	a4, 1456(a5)
0x0000000080019c9c: 5b 47 a6 83 lw	a3, 1460(a5)
0x0000000080019ca0: 02 e6 87 3b mulw	a4, a3, a4
0x0000000080019ca4: 08 07 02 63 beqz	a4, 132
0x0000000080019d28: 00 00 57 37 lui	a4, 5
0x0000000080019d2c: 01 01 06 93 addi	a3, sp, 16
0x0000000080019d30: 19 07 07 13 addi	a4, a4, 400
0x0000000080019d34: 00 d7 07 33 add	a4, a4, a3
0x0000000080019d38: ff ff e7 b7 lui	a5, 1048574
0x0000000080019d3c: 00 f7 07 b3 add	a5, a4, a5
0x0000000080019d40: ff f0 07 13 addi	a4, zero, -1
0x0000000080019d44: 5a e7 ac 23 sw	a4, 1464(a5)
0x0000000080019d48: 00 10 07 13 addi	a4, zero, 1
0x0000000080019d4c: 5a e7 ae 23 sw	a4, 1468(a5)
0x0000000080019d50: 5b 87 a6 83 lw	a3, 1464(a5)
0x0000000080019d54: 5b c7 a6 03 lw	a2, 1468(a5)
0x0000000080019d58: ff f0 07 13 addi	a4, zero, -1
0x0000000080019d5c: 02 d6 06 bb mulw	a3, a2, a3
0x0000000080019d60: 08 e6 82 63 beq	a3, a4, 132
0x0000000080019de4: 00 00 57 37 lui	a4, 5
0x0000000080019de8: 01 01 06 93 addi	a3, sp, 16
0x0000000080019dec: 19 07 07 13 addi	a4, a4, 400
0x0000000080019df0: 00 d7 07 33 add	a4, a4, a3
0x0000000080019df4: ff ff e7 b7 lui	a5, 1048574
0x0000000080019df8: 00 f7 07 b3 add	a5, a4, a5
0x0000000080019dfc: ff f0 07 13 addi	a4, zero, -1
0x0000000080019e00: 5c e7 a0 23 sw	a4, 1472(a5)
0x0000000080019e04: 00 20 07 13 addi	a4, zero, 2
0x0000000080019e08: 5c e7 a2 23 sw	a4, 1476(a5)
0x0000000080019e0c: 5c 07 a6 83 lw	a3, 1472(a5)
0x0000000080019e10: 5c 47 a6 03 lw	a2, 1476(a5)
0x0000000080019e14: ff e0 07 13 addi	a4, zero, -2
0x0000000080019e18: 02 d6 06 bb mulw	a3, a2, a3
0x0000000080019e1c: 08 e6 82 63 beq	a3, a4, 132
0x0000000080019ea0: 00 00 57 37 lui	a4, 5
0x0000000080019ea4: 01 01 06 93 addi	a3, sp, 16
0x0000000080019ea8: 19 07 07 13 addi	a4, a4, 400
0x0000000080019eac: 00 d7 07 33 add	a4, a4, a3
0x0000000080019eb0: ff ff e7 b7 lui	a5, 1048574
0x0000000080019eb4: 00 f7 07 b3 add	a5, a4, a5
0x0000000080019eb8: ff f0 07 13 addi	a4, zero, -1
0x0000000080019ebc: 5c e7 a4 23 sw	a4, 1480(a5)
0x0000000080019ec0: 80 00 07 37 lui	a4, 524288
0x0000000080019ec4: ff e7 47 13 xori	a4, a4, -2
0x0000000080019ec8: 5c e7 a6 23 sw	a4, 1484(a5)
0x0000000080019ecc: 5c 87 a6 83 lw	a3, 1480(a5)
0x0000000080019ed0: 5c c7 a6 03 lw	a2, 1484(a5)
0x0000000080019ed4: 80 00 07 37 lui	a4, 524288
0x0000000080019ed8: 00 27 07 13 addi	a4, a4, 2
0x0000000080019edc: 02 d6 06 bb mulw	a3, a2, a3
0x0000000080019ee0: 08 e6 82 63 beq	a3, a4, 132
0x0000000080019f64: 00 00 57 37 lui	a4, 5
0x0000000080019f68: 01 01 06 93 addi	a3, sp, 16
0x0000000080019f6c: 19 07 07 13 addi	a4, a4, 400
0x0000000080019f70: 00 d7 07 33 add	a4, a4, a3
0x0000000080019f74: ff ff e7 b7 lui	a5, 1048574
0x0000000080019f78: 00 f7 07 b3 add	a5, a4, a5
0x0000000080019f7c: ff f0 07 13 addi	a4, zero, -1
0x0000000080019f80: 5c e7 a8 23 sw	a4, 1488(a5)
0x0000000080019f84: 80 00 07 37 lui	a4, 524288
0x0000000080019f88: ff f7 47 13 not	a4, a4
0x0000000080019f8c: 5c e7 aa 23 sw	a4, 1492(a5)
0x0000000080019f90: 5d 07 a6 83 lw	a3, 1488(a5)
0x0000000080019f94: 5d 47 a6 03 lw	a2, 1492(a5)
0x0000000080019f98: 80 00 07 37 lui	a4, 524288
0x0000000080019f9c: 00 17 07 13 addi	a4, a4, 1
0x0000000080019fa0: 02 d6 06 bb mulw	a3, a2, a3
0x0000000080019fa4: 08 e6 82 63 beq	a3, a4, 132
0x000000008001a028: 00 00 57 37 lui	a4, 5
0x000000008001a02c: 01 01 06 93 addi	a3, sp, 16
0x000000008001a030: 19 07 07 13 addi	a4, a4, 400
0x000000008001a034: 00 d7 07 33 add	a4, a4, a3
0x000000008001a038: ff ff e7 b7 lui	a5, 1048574
0x000000008001a03c: 00 f7 07 b3 add	a5, a4, a5
0x000000008001a040: 5c 07 ac 23 sw	zero, 1496(a5)
0x000000008001a044: 5c 07 ae 23 sw	zero, 1500(a5)
0x000000008001a048: 5d 87 a7 03 lw	a4, 1496(a5)
0x000000008001a04c: 5d c7 a6 83 lw	a3, 1500(a5)
0x000000008001a050: 02 e6 87 3b mulw	a4, a3, a4
0x000000008001a054: 08 07 02 63 beqz	a4, 132
0x000000008001a0d8: 00 00 57 37 lui	a4, 5
0x000000008001a0dc: 01 01 06 93 addi	a3, sp, 16
0x000000008001a0e0: 19 07 07 13 addi	a4, a4, 400
0x000000008001a0e4: 00 d7 07 33 add	a4, a4, a3
0x000000008001a0e8: ff ff e7 b7 lui	a5, 1048574
0x000000008001a0ec: 00 f7 07 b3 add	a5, a4, a5
0x000000008001a0f0: 5e 07 a0 23 sw	zero, 1504(a5)
0x000000008001a0f4: 00 10 07 13 addi	a4, zero, 1
0x000000008001a0f8: 5e e7 a2 23 sw	a4, 1508(a5)
0x000000008001a0fc: 5e 07 a7 03 lw	a4, 1504(a5)
0x000000008001a100: 5e 47 a6 83 lw	a3, 1508(a5)
0x000000008001a104: 02 e6 87 3b mulw	a4, a3, a4
0x000000008001a108: 08 07 02 63 beqz	a4, 132
0x000000008001a18c: 00 00 57 37 lui	a4, 5
0x000000008001a190: 01 01 06 93 addi	a3, sp, 16
0x000000008001a194: 19 07 07 13 addi	a4, a4, 400
0x000000008001a198: 00 d7 07 33 add	a4, a4, a3
0x000000008001a19c: ff ff e7 b7 lui	a5, 1048574
0x000000008001a1a0: 00 f7 07 b3 add	a5, a4, a5
0x000000008001a1a4: 5e 07 a4 23 sw	zero, 1512(a5)
0x000000008001a1a8: 00 20 07 13 addi	a4, zero, 2
0x000000008001a1ac: 5e e7 a6 23 sw	a4, 1516(a5)
0x000000008001a1b0: 5e 87 a7 03 lw	a4, 1512(a5)
0x000000008001a1b4: 5e c7 a6 83 lw	a3, 1516(a5)
0x000000008001a1b8: 02 e6 87 3b mulw	a4, a3, a4
0x000000008001a1bc: 08 07 02 63 beqz	a4, 132
0x000000008001a240: 00 00 57 37 lui	a4, 5
0x000000008001a244: 01 01 06 93 addi	a3, sp, 16
0x000000008001a248: 19 07 07 13 addi	a4, a4, 400
0x000000008001a24c: 00 d7 07 33 add	a4, a4, a3
0x000000008001a250: ff ff e7 b7 lui	a5, 1048574
0x000000008001a254: 00 f7 07 b3 add	a5, a4, a5
0x000000008001a258: 80 00 07 37 lui	a4, 524288
0x000000008001a25c: 5e 07 a8 23 sw	zero, 1520(a5)
0x000000008001a260: ff e7 47 13 xori	a4, a4, -2
0x000000008001a264: 5e e7 aa 23 sw	a4, 1524(a5)
0x000000008001a268: 5f 07 a7 03 lw	a4, 1520(a5)
0x000000008001a26c: 5f 47 a6 83 lw	a3, 1524(a5)
0x000000008001a270: 02 e6 87 3b mulw	a4, a3, a4
0x000000008001a274: 08 07 04 63 beqz	a4, 136
0x000000008001a2fc: 00 00 57 37 lui	a4, 5
0x000000008001a300: 01 01 06 93 addi	a3, sp, 16
0x000000008001a304: 19 07 07 13 addi	a4, a4, 400
0x000000008001a308: 00 d7 07 33 add	a4, a4, a3
0x000000008001a30c: ff ff e7 b7 lui	a5, 1048574
0x000000008001a310: 00 f7 07 b3 add	a5, a4, a5
0x000000008001a314: 80 00 07 37 lui	a4, 524288
0x000000008001a318: 5e 07 ac 23 sw	zero, 1528(a5)
0x000000008001a31c: ff f7 47 13 not	a4, a4
0x000000008001a320: 5e e7 ae 23 sw	a4, 1532(a5)
0x000000008001a324: 5f 87 a7 03 lw	a4, 1528(a5)
0x000000008001a328: 5f c7 a6 83 lw	a3, 1532(a5)
0x000000008001a32c: 02 e6 87 3b mulw	a4, a3, a4
0x000000008001a330: 08 07 04 63 beqz	a4, 136
0x000000008001a3b8: 00 00 57 37 lui	a4, 5
0x000000008001a3bc: 01 01 06 93 addi	a3, sp, 16
0x000000008001a3c0: 19 07 07 13 addi	a4, a4, 400
0x000000008001a3c4: 00 d7 07 33 add	a4, a4, a3
0x000000008001a3c8: ff ff e7 b7 lui	a5, 1048574
0x000000008001a3cc: 00 f7 07 b3 add	a5, a4, a5
0x000000008001a3d0: 00 10 07 13 addi	a4, zero, 1
0x000000008001a3d4: 60 e7 a0 23 sw	a4, 1536(a5)
0x000000008001a3d8: 60 e7 a2 23 sw	a4, 1540(a5)
